	.file	"sub_64_aligned.c"
# GNU C17 (Ubuntu 11.4.0-1ubuntu1~22.04) version 11.4.0 (x86_64-linux-gnu)
#	compiled by GNU C version 11.4.0, GMP version 6.2.1, MPFR version 4.1.0, MPC version 1.2.1, isl version isl-0.24-GMP

# GGC heuristics: --param ggc-min-expand=100 --param ggc-min-heapsize=131072
# options passed: -mtune=generic -march=x86-64 -g -O3 -funroll-all-loops -fopt-info-vec-optimized=vec_report.txt -fasynchronous-unwind-tables -fstack-protector-strong -fstack-clash-protection -fcf-protection
	.text
.Ltext0:
	.file 0 "/users/lattu/Large-Number-Arithmetic-Operations/subtraction" "sub_64_aligned.c"
	.section	.rodata.str1.8,"aMS",@progbits,1
	.align 8
.LC0:
	.string	"Error opening file for writing \n"
	.text
	.p2align 4
	.type	open_file.part.0, @function
open_file.part.0:
.LFB5802:
	.file 1 "sub_64_aligned.c"
	.loc 1 602 7 view -0
	.cfi_startproc
	pushq	%rax	#
	.cfi_def_cfa_offset 16
	popq	%rax	#
	.cfi_def_cfa_offset 8
.LVL0:
	.loc 1 608 9 view .LVU1
	leaq	.LC0(%rip), %rdi	#, tmp82
# sub_64_aligned.c:602: FILE *open_file(char *filename)
	.loc 1 602 7 is_stmt 0 view .LVU2
	subq	$8, %rsp	#,
	.cfi_def_cfa_offset 16
# sub_64_aligned.c:608:         perror("Error opening file for writing \n");
	.loc 1 608 9 view .LVU3
	call	perror@PLT	#
.LVL1:
	.loc 1 609 9 is_stmt 1 view .LVU4
	movl	$1, %edi	#,
	call	exit@PLT	#
.LVL2:
	.cfi_endproc
.LFE5802:
	.size	open_file.part.0, .-open_file.part.0
	.p2align 4
	.globl	perf_event_open
	.type	perf_event_open, @function
perf_event_open:
.LVL3:
.LFB5777:
	.loc 1 115 1 view -0
	.cfi_startproc
	.loc 1 115 1 is_stmt 0 view .LVU6
	endbr64	
	.loc 1 116 5 is_stmt 1 view .LVU7
	.loc 1 118 5 view .LVU8
# sub_64_aligned.c:115: {
	.loc 1 115 1 is_stmt 0 view .LVU9
	pushq	%r12	#
	.cfi_def_cfa_offset 16
	.cfi_offset 12, -16
# sub_64_aligned.c:118:     ret = syscall(__NR_perf_event_open, hw_event, pid, cpu, group_fd, flags);
	.loc 1 118 11 view .LVU10
	movq	%r8, %r9	# tmp95,
	xorl	%eax, %eax	#
	movl	%ecx, %r8d	# tmp94,
.LVL4:
	.loc 1 118 11 view .LVU11
	movl	%edx, %ecx	# cpu,
.LVL5:
	.loc 1 118 11 view .LVU12
	movl	%esi, %edx	# pid,
.LVL6:
	.loc 1 118 11 view .LVU13
	movq	%rdi, %rsi	# hw_event,
.LVL7:
	.loc 1 118 11 view .LVU14
	movl	$298, %edi	#,
.LVL8:
	.loc 1 118 11 view .LVU15
	call	syscall@PLT	#
.LVL9:
	.loc 1 119 5 is_stmt 1 view .LVU16
# sub_64_aligned.c:120: }
	.loc 1 120 1 is_stmt 0 view .LVU17
	popq	%r12	#
	.cfi_def_cfa_offset 8
# sub_64_aligned.c:119:     return ret;
	.loc 1 119 12 view .LVU18
	cltq
# sub_64_aligned.c:120: }
	.loc 1 120 1 view .LVU19
	ret	
	.cfi_endproc
.LFE5777:
	.size	perf_event_open, .-perf_event_open
	.section	.rodata.str1.1,"aMS",@progbits,1
.LC1:
	.string	"/dev/urandom"
.LC2:
	.string	"Error opening /dev/urandom"
	.section	.rodata.str1.8
	.align 8
.LC3:
	.string	"Error reading from /dev/urandom"
	.text
	.p2align 4
	.globl	generate_seed
	.type	generate_seed, @function
generate_seed:
.LFB5778:
	.loc 1 124 1 is_stmt 1 view -0
	.cfi_startproc
	endbr64	
	pushq	%rbp	#
	.cfi_def_cfa_offset 16
	.cfi_offset 6, -16
# sub_64_aligned.c:126:     clock_gettime(CLOCK_MONOTONIC, &ts1);
	.loc 1 126 5 is_stmt 0 view .LVU21
	movl	$1, %edi	#,
# sub_64_aligned.c:124: {
	.loc 1 124 1 view .LVU22
	subq	$64, %rsp	#,
	.cfi_def_cfa_offset 80
# sub_64_aligned.c:124: {
	.loc 1 124 1 view .LVU23
	movq	%fs:40, %rax	# MEM[(<address-space-1> long unsigned int *)40B], tmp116
	movq	%rax, 56(%rsp)	# tmp116, D.39292
	xorl	%eax, %eax	# tmp116
	.loc 1 125 5 is_stmt 1 view .LVU24
	.loc 1 126 5 view .LVU25
	leaq	16(%rsp), %rsi	#, tmp98
	call	clock_gettime@PLT	#
.LVL10:
	.loc 1 127 5 view .LVU26
	xorl	%edi, %edi	#
	leaq	32(%rsp), %rsi	#, tmp99
	call	clock_gettime@PLT	#
.LVL11:
	.loc 1 129 5 view .LVU27
.LBB153:
.LBI153:
	.file 2 "/usr/include/x86_64-linux-gnu/bits/fcntl2.h"
	.loc 2 41 1 view .LVU28
.LBB154:
	.loc 2 43 3 view .LVU29
	.loc 2 46 3 view .LVU30
	.loc 2 48 7 view .LVU31
	.loc 2 53 7 view .LVU32
# /usr/include/x86_64-linux-gnu/bits/fcntl2.h:53:       return __open_alias (__path, __oflag, __va_arg_pack ());
	.loc 2 53 14 is_stmt 0 view .LVU33
	xorl	%esi, %esi	#
	xorl	%eax, %eax	#
	leaq	.LC1(%rip), %rdi	#, tmp100
	call	open@PLT	#
.LVL12:
	.loc 2 53 14 view .LVU34
.LBE154:
.LBE153:
	.loc 1 130 5 is_stmt 1 view .LVU35
# sub_64_aligned.c:130:     if (urandom_fd == -1)
	.loc 1 130 8 is_stmt 0 view .LVU36
	cmpl	$-1, %eax	#, _28
	je	.L11	#,
.LBB155:
.LBB156:
# /usr/include/x86_64-linux-gnu/bits/unistd.h:38:   return __glibc_fortify (read, __nbytes, sizeof (char),
	.file 3 "/usr/include/x86_64-linux-gnu/bits/unistd.h"
	.loc 3 38 10 view .LVU37
	leaq	8(%rsp), %rsi	#, tmp102
	movl	$8, %edx	#,
	movl	%eax, %edi	# _28,
	movl	%eax, %ebp	# tmp112, _28
.LBE156:
.LBE155:
	.loc 1 136 5 is_stmt 1 view .LVU38
	.loc 1 137 5 view .LVU39
.LVL13:
.LBB158:
.LBI155:
	.loc 3 36 1 view .LVU40
.LBB157:
	.loc 3 38 3 view .LVU41
# /usr/include/x86_64-linux-gnu/bits/unistd.h:38:   return __glibc_fortify (read, __nbytes, sizeof (char),
	.loc 3 38 10 is_stmt 0 view .LVU42
	call	read@PLT	#
.LVL14:
	.loc 3 38 10 view .LVU43
.LBE157:
.LBE158:
	.loc 1 138 5 is_stmt 1 view .LVU44
# sub_64_aligned.c:138:     if (result != sizeof(urandom_value))
	.loc 1 138 8 is_stmt 0 view .LVU45
	cmpq	$8, %rax	#, tmp113
	jne	.L12	#,
	.loc 1 144 5 is_stmt 1 view .LVU46
	movl	%ebp, %edi	# _28,
	call	close@PLT	#
.LVL15:
	.loc 1 146 5 view .LVU47
# sub_64_aligned.c:146:     pid_t pid = getpid();
	.loc 1 146 17 is_stmt 0 view .LVU48
	call	getpid@PLT	#
.LVL16:
# sub_64_aligned.c:147:     pid_t tid = syscall(SYS_gettid);
	.loc 1 147 17 view .LVU49
	movl	$186, %edi	#,
# sub_64_aligned.c:146:     pid_t pid = getpid();
	.loc 1 146 17 view .LVU50
	movslq	%eax, %rbp	# tmp114,
.LVL17:
	.loc 1 147 5 is_stmt 1 view .LVU51
# sub_64_aligned.c:147:     pid_t tid = syscall(SYS_gettid);
	.loc 1 147 17 is_stmt 0 view .LVU52
	xorl	%eax, %eax	#
	call	syscall@PLT	#
.LVL18:
	movq	%rax, %r8	#, tmp115
.LVL19:
	.loc 1 149 5 is_stmt 1 view .LVU53
# sub_64_aligned.c:149:     return ts1.tv_nsec ^ ts2.tv_nsec ^ urandom_value ^ pid ^ tid;
	.loc 1 149 24 is_stmt 0 view .LVU54
	movq	24(%rsp), %rax	# ts1.tv_nsec, ts1.tv_nsec
	xorq	40(%rsp), %rax	# ts2.tv_nsec, tmp104
# sub_64_aligned.c:149:     return ts1.tv_nsec ^ ts2.tv_nsec ^ urandom_value ^ pid ^ tid;
	.loc 1 149 38 view .LVU55
	xorq	8(%rsp), %rax	# urandom_value, tmp106
# sub_64_aligned.c:149:     return ts1.tv_nsec ^ ts2.tv_nsec ^ urandom_value ^ pid ^ tid;
	.loc 1 149 60 view .LVU56
	movslq	%r8d, %rdx	# tmp115, _1
# sub_64_aligned.c:149:     return ts1.tv_nsec ^ ts2.tv_nsec ^ urandom_value ^ pid ^ tid;
	.loc 1 149 54 view .LVU57
	xorq	%rbp, %rax	# pid, tmp108
# sub_64_aligned.c:149:     return ts1.tv_nsec ^ ts2.tv_nsec ^ urandom_value ^ pid ^ tid;
	.loc 1 149 60 view .LVU58
	xorq	%rdx, %rax	# _1, <retval>
# sub_64_aligned.c:150: }
	.loc 1 150 1 view .LVU59
	movq	56(%rsp), %rdx	# D.39292, tmp117
	subq	%fs:40, %rdx	# MEM[(<address-space-1> long unsigned int *)40B], tmp117
	jne	.L13	#,
	addq	$64, %rsp	#,
	.cfi_remember_state
	.cfi_def_cfa_offset 16
	popq	%rbp	#
	.cfi_def_cfa_offset 8
.LVL20:
	.loc 1 150 1 view .LVU60
	ret	
.LVL21:
.L11:
	.cfi_restore_state
	.loc 1 132 9 is_stmt 1 view .LVU61
	leaq	.LC2(%rip), %rdi	#, tmp101
	call	perror@PLT	#
.LVL22:
	.loc 1 133 9 view .LVU62
	movl	$1, %edi	#,
	call	exit@PLT	#
.LVL23:
.L13:
# sub_64_aligned.c:150: }
	.loc 1 150 1 is_stmt 0 view .LVU63
	call	__stack_chk_fail@PLT	#
.LVL24:
.L12:
	.loc 1 140 9 is_stmt 1 view .LVU64
	leaq	.LC3(%rip), %rdi	#, tmp103
	call	perror@PLT	#
.LVL25:
	.loc 1 141 9 view .LVU65
	movl	%ebp, %edi	# _28,
	call	close@PLT	#
.LVL26:
	.loc 1 142 9 view .LVU66
	movl	$1, %edi	#,
	call	exit@PLT	#
.LVL27:
	.cfi_endproc
.LFE5778:
	.size	generate_seed, .-generate_seed
	.p2align 4
	.globl	left_shift
	.type	left_shift, @function
left_shift:
.LVL28:
.LFB5780:
	.loc 1 173 1 view -0
	.cfi_startproc
	.loc 1 173 1 is_stmt 0 view .LVU68
	endbr64	
	.loc 1 175 5 is_stmt 1 view .LVU69
# sub_64_aligned.c:173: {
	.loc 1 173 1 is_stmt 0 view .LVU70
	pushq	%r12	#
	.cfi_def_cfa_offset 16
	.cfi_offset 12, -16
.LBB169:
.LBB170:
# sub_64_aligned.c:177:         memset(borrow_array, 0, n * sizeof(uint64_t)); // Clear the array if it's empty or has only one element
	.loc 1 177 9 view .LVU71
	movslq	%esi, %r12	# n, n
	salq	$3, %r12	#, _19
.LBE170:
.LBE169:
# sub_64_aligned.c:175:     if (n <= 1)
	.loc 1 175 8 view .LVU72
	cmpl	$1, %esi	#, n
	jle	.L17	#,
	.loc 1 182 5 is_stmt 1 view .LVU73
.LVL29:
.LBB177:
.LBI177:
	.file 4 "/usr/include/x86_64-linux-gnu/bits/string_fortified.h"
	.loc 4 34 1 view .LVU74
.LBB178:
	.loc 4 36 3 view .LVU75
.LBE178:
.LBE177:
# sub_64_aligned.c:182:     memmove(borrow_array, borrow_array + 1, (n - 1) * sizeof(uint64_t));
	.loc 1 182 5 is_stmt 0 view .LVU76
	leaq	-8(%r12), %rdx	#, tmp97
.LVL30:
# sub_64_aligned.c:182:     memmove(borrow_array, borrow_array + 1, (n - 1) * sizeof(uint64_t));
	.loc 1 182 40 view .LVU77
	leaq	8(%rdi), %rsi	#, tmp98
.LVL31:
.LBB180:
.LBB179:
# /usr/include/x86_64-linux-gnu/bits/string_fortified.h:36:   return __builtin___memmove_chk (__dest, __src, __len,
	.loc 4 36 10 view .LVU78
	call	memmove@PLT	#
.LVL32:
	.loc 4 36 10 view .LVU79
.LBE179:
.LBE180:
	.loc 1 185 5 is_stmt 1 view .LVU80
# sub_64_aligned.c:185:     borrow_array[n - 1] = 0;
	.loc 1 185 25 is_stmt 0 view .LVU81
	movq	$0, -8(%rax,%r12)	#, *_8
# sub_64_aligned.c:186: }
	.loc 1 186 1 view .LVU82
	popq	%r12	#
	.cfi_remember_state
	.cfi_def_cfa_offset 8
	ret	
.LVL33:
	.p2align 4,,10
	.p2align 3
.L17:
	.cfi_restore_state
.LBB181:
.LBI169:
	.loc 1 172 6 is_stmt 1 view .LVU83
.LBB175:
	.loc 1 177 9 view .LVU84
.LBB171:
.LBI171:
	.loc 4 57 1 view .LVU85
.LBB172:
	.loc 4 59 3 view .LVU86
# /usr/include/x86_64-linux-gnu/bits/string_fortified.h:59:   return __builtin___memset_chk (__dest, __ch, __len,
	.loc 4 59 10 is_stmt 0 view .LVU87
	movq	%r12, %rdx	# _19,
	xorl	%esi, %esi	#
.LVL34:
	.loc 4 59 10 view .LVU88
.LBE172:
.LBE171:
.LBE175:
.LBE181:
# sub_64_aligned.c:186: }
	.loc 1 186 1 view .LVU89
	popq	%r12	#
	.cfi_def_cfa_offset 8
.LBB182:
.LBB176:
.LBB174:
.LBB173:
# /usr/include/x86_64-linux-gnu/bits/string_fortified.h:59:   return __builtin___memset_chk (__dest, __ch, __len,
	.loc 4 59 10 view .LVU90
	jmp	memset@PLT	#
.LVL35:
	.loc 4 59 10 view .LVU91
.LBE173:
.LBE174:
.LBE176:
.LBE182:
	.cfi_endproc
.LFE5780:
	.size	left_shift, .-left_shift
	.section	.rodata.str1.8
	.align 8
.LC4:
	.string	"Memory could not be allocated for limbs"
	.text
	.p2align 4
	.globl	returnLimbs
	.type	returnLimbs, @function
returnLimbs:
.LVL36:
.LFB5783:
	.loc 1 323 1 is_stmt 1 view -0
	.cfi_startproc
	.loc 1 323 1 is_stmt 0 view .LVU93
	endbr64	
	pushq	%rbp	#
	.cfi_def_cfa_offset 16
	.cfi_offset 6, -16
	movq	%rsp, %rbp	#,
	.cfi_def_cfa_register 6
	pushq	%r15	#
	pushq	%r14	#
	.cfi_offset 15, -24
	.cfi_offset 14, -32
	movq	%rdi, %r14	# tmp136, number
	pushq	%r13	#
	pushq	%r12	#
	.cfi_offset 13, -40
	.cfi_offset 12, -48
	movq	%rsi, %r12	# tmp137, length
	pushq	%rbx	#
	andq	$-64, %rsp	#,
	subq	$64, %rsp	#,
	.cfi_offset 3, -56
# sub_64_aligned.c:325:     int n = *length;
	.loc 1 325 9 view .LVU94
	movl	(%rsi), %r13d	# *length_25(D), n
.LBB191:
.LBB192:
# /usr/lib/gcc/x86_64-linux-gnu/11/include/mm_malloc.h:45:   if (posix_memalign (&__ptr, __alignment, __size) == 0)
	.file 5 "/usr/lib/gcc/x86_64-linux-gnu/11/include/mm_malloc.h"
	.loc 5 45 7 view .LVU95
	movl	$64, %esi	#,
.LVL37:
	.loc 5 45 7 view .LVU96
.LBE192:
.LBE191:
# sub_64_aligned.c:323: {
	.loc 1 323 1 view .LVU97
	movq	%fs:40, %rax	# MEM[(<address-space-1> long unsigned int *)40B], tmp139
	movq	%rax, 56(%rsp)	# tmp139, D.39346
	xorl	%eax, %eax	# tmp139
	.loc 1 324 5 is_stmt 1 view .LVU98
	.loc 1 325 5 view .LVU99
.LVL38:
	.loc 1 326 5 view .LVU100
.LBB195:
.LBB193:
# /usr/lib/gcc/x86_64-linux-gnu/11/include/mm_malloc.h:45:   if (posix_memalign (&__ptr, __alignment, __size) == 0)
	.loc 5 45 7 is_stmt 0 view .LVU101
	leaq	48(%rsp), %rdi	#, tmp114
.LVL39:
	.loc 5 45 7 view .LVU102
.LBE193:
.LBE195:
# sub_64_aligned.c:326:     int num_limbs = (n + LIMB_SIZE - 1) / LIMB_SIZE; // Calculate the number of limbs needed
	.loc 1 326 36 view .LVU103
	leal	18(%r13), %eax	#, tmp107
# sub_64_aligned.c:326:     int num_limbs = (n + LIMB_SIZE - 1) / LIMB_SIZE; // Calculate the number of limbs needed
	.loc 1 326 9 view .LVU104
	movslq	%eax, %rbx	# tmp107, tmp108
	sarl	$31, %eax	#, tmp112
	imulq	$1808407283, %rbx, %rbx	#, tmp108, tmp109
	sarq	$35, %rbx	#, tmp111
	subl	%eax, %ebx	# tmp112, num_limbs
.LVL40:
	.loc 1 327 5 is_stmt 1 view .LVU105
# sub_64_aligned.c:327:     limbs = (aligned_uint64_ptr)_mm_malloc(num_limbs * sizeof(uint64_t), 64);
	.loc 1 327 33 is_stmt 0 view .LVU106
	movslq	%ebx, %r15	# num_limbs, num_limbs
	salq	$3, %r15	#, _3
.LVL41:
.LBB196:
.LBI191:
	.loc 5 38 1 is_stmt 1 view .LVU107
.LBB194:
	.loc 5 40 3 view .LVU108
	.loc 5 41 3 view .LVU109
	.loc 5 43 3 view .LVU110
	.loc 5 45 3 view .LVU111
# /usr/lib/gcc/x86_64-linux-gnu/11/include/mm_malloc.h:45:   if (posix_memalign (&__ptr, __alignment, __size) == 0)
	.loc 5 45 7 is_stmt 0 view .LVU112
	movq	%r15, %rdx	# _3,
	call	posix_memalign@PLT	#
.LVL42:
	testl	%eax, %eax	# tmp138
	je	.L31	#,
.LVL43:
.L19:
	.loc 5 45 7 view .LVU113
.LBE194:
.LBE196:
	.loc 1 330 9 is_stmt 1 view .LVU114
.LBB197:
.LBI197:
	.file 6 "/usr/include/x86_64-linux-gnu/bits/stdio2.h"
	.loc 6 110 1 view .LVU115
.LBB198:
	.loc 6 112 3 view .LVU116
# /usr/include/x86_64-linux-gnu/bits/stdio2.h:112:   return __printf_chk (__USE_FORTIFY_LEVEL - 1, __fmt, __va_arg_pack ());
	.loc 6 112 10 is_stmt 0 view .LVU117
	leaq	.LC4(%rip), %rdi	#, tmp115
	call	puts@PLT	#
.LVL44:
	.loc 6 112 10 view .LVU118
.LBE198:
.LBE197:
	.loc 1 331 9 is_stmt 1 view .LVU119
	movl	$1, %edi	#,
	call	exit@PLT	#
.LVL45:
	.p2align 4,,10
	.p2align 3
.L31:
	.loc 1 331 9 is_stmt 0 view .LVU120
	movq	48(%rsp), %r8	# D.39328, <retval>
.LVL46:
	.loc 1 328 5 is_stmt 1 view .LVU121
# sub_64_aligned.c:328:     if (limbs == NULL)
	.loc 1 328 8 is_stmt 0 view .LVU122
	testq	%r8, %r8	# <retval>
	je	.L19	#,
	.loc 1 333 5 is_stmt 1 view .LVU123
.LVL47:
.LBB199:
.LBI199:
	.loc 4 57 1 view .LVU124
.LBB200:
	.loc 4 59 3 view .LVU125
# /usr/include/x86_64-linux-gnu/bits/string_fortified.h:59:   return __builtin___memset_chk (__dest, __ch, __len,
	.loc 4 59 10 is_stmt 0 view .LVU126
	movq	%r15, %rdx	# _3,
	xorl	%esi, %esi	#
	movq	%r8, %rdi	# <retval>,
	call	memset@PLT	#
.LVL48:
	.loc 4 59 10 view .LVU127
.LBE200:
.LBE199:
# sub_64_aligned.c:335:     int k = num_limbs - 1;
	.loc 1 335 9 view .LVU128
	leal	-1(%rbx), %r9d	#, k
.LBB202:
.LBB201:
# /usr/include/x86_64-linux-gnu/bits/string_fortified.h:59:   return __builtin___memset_chk (__dest, __ch, __len,
	.loc 4 59 10 view .LVU129
	movq	%rax, %r15	#, <retval>
.LVL49:
	.loc 4 59 10 view .LVU130
.LBE201:
.LBE202:
	.loc 1 334 5 is_stmt 1 view .LVU131
	.loc 1 335 5 view .LVU132
	.loc 1 336 5 view .LVU133
	.loc 1 336 14 view .LVU134
	testl	%r13d, %r13d	# n
	jle	.L21	#,
	leal	-2(%r13), %edx	#, tmp120
.LBB203:
.LBB204:
# sub_64_aligned.c:340:         for (int j = 0; j < LIMB_SIZE && i >= 0; j++, i--)
	.loc 1 340 18 is_stmt 0 view .LVU135
	xorl	%r11d, %r11d	# j
.LBE204:
# sub_64_aligned.c:339:         uint64_t power = 1;
	.loc 1 339 18 view .LVU136
	movl	$1, %r13d	#, power
.LVL50:
# sub_64_aligned.c:338:         aligned_uint64 limb = 0;
	.loc 1 338 24 view .LVU137
	xorl	%esi, %esi	# limb
	movslq	%edx, %rax	# tmp120, ivtmp.109
	jmp	.L22	#
.LVL51:
	.p2align 4,,10
	.p2align 3
.L23:
	.loc 1 338 24 view .LVU138
	subq	$1, %rax	#, ivtmp.109
.LVL52:
.L22:
.LBB205:
	.loc 1 342 13 is_stmt 1 discriminator 3 view .LVU139
# sub_64_aligned.c:342:             limb += number[i] * power;
	.loc 1 342 31 is_stmt 0 discriminator 3 view .LVU140
	movq	8(%r14,%rax,8), %rdi	# MEM[(uint64_t *)number_35(D) + 8B + ivtmp.109_92 * 8], tmp121
# sub_64_aligned.c:340:         for (int j = 0; j < LIMB_SIZE && i >= 0; j++, i--)
	.loc 1 340 51 discriminator 3 view .LVU141
	addl	$1, %r11d	#, j
.LVL53:
	.loc 1 340 51 discriminator 3 view .LVU142
	movl	%eax, %r10d	# ivtmp.109, i
# sub_64_aligned.c:342:             limb += number[i] * power;
	.loc 1 342 31 discriminator 3 view .LVU143
	imulq	%r13, %rdi	# power, tmp121
# sub_64_aligned.c:343:             power *= 10;
	.loc 1 343 19 discriminator 3 view .LVU144
	leaq	0(%r13,%r13,4), %r13	#, tmp124
.LVL54:
	.loc 1 343 19 discriminator 3 view .LVU145
	addq	%r13, %r13	# power
# sub_64_aligned.c:342:             limb += number[i] * power;
	.loc 1 342 18 discriminator 3 view .LVU146
	addq	%rdi, %rsi	# tmp121, limb
.LVL55:
	.loc 1 343 13 is_stmt 1 discriminator 3 view .LVU147
	.loc 1 340 53 discriminator 3 view .LVU148
	.loc 1 340 39 discriminator 3 view .LVU149
	cmpl	$18, %r11d	#, j
	jg	.L26	#,
	testl	%eax, %eax	# ivtmp.109
	jns	.L23	#,
.L26:
.LBE205:
	.loc 1 345 9 view .LVU150
# sub_64_aligned.c:345:         limbs[k] = limb;
	.loc 1 345 14 is_stmt 0 view .LVU151
	movslq	%r9d, %rcx	# k, k
# sub_64_aligned.c:345:         limbs[k] = limb;
	.loc 1 345 18 view .LVU152
	movq	%rsi, (%r15,%rcx,8)	# limb, MEM[(uint64_t *)_102]
	.loc 1 346 9 is_stmt 1 view .LVU153
.LVL56:
	.loc 1 346 9 is_stmt 0 view .LVU154
.LBE203:
	.loc 1 336 14 is_stmt 1 view .LVU155
	testl	%r10d, %r10d	# i
	js	.L21	#,
.LBB207:
# sub_64_aligned.c:346:         k--;
	.loc 1 346 10 is_stmt 0 view .LVU156
	subl	$1, %r9d	#, k
.LVL57:
.LBB206:
	.loc 1 340 39 is_stmt 1 view .LVU157
# sub_64_aligned.c:340:         for (int j = 0; j < LIMB_SIZE && i >= 0; j++, i--)
	.loc 1 340 18 is_stmt 0 view .LVU158
	xorl	%r11d, %r11d	# j
.LBE206:
# sub_64_aligned.c:339:         uint64_t power = 1;
	.loc 1 339 18 view .LVU159
	movl	$1, %r13d	#, power
# sub_64_aligned.c:338:         aligned_uint64 limb = 0;
	.loc 1 338 24 view .LVU160
	xorl	%esi, %esi	# limb
	jmp	.L23	#
.LVL58:
.L21:
	.loc 1 338 24 view .LVU161
.LBE207:
	.loc 1 348 5 is_stmt 1 view .LVU162
# sub_64_aligned.c:348:     *length = num_limbs;
	.loc 1 348 13 is_stmt 0 view .LVU163
	movl	%ebx, (%r12)	# num_limbs, *length_25(D)
	.loc 1 349 5 is_stmt 1 view .LVU164
# sub_64_aligned.c:350: }
	.loc 1 350 1 is_stmt 0 view .LVU165
	movq	56(%rsp), %rax	# D.39346, tmp140
	subq	%fs:40, %rax	# MEM[(<address-space-1> long unsigned int *)40B], tmp140
	jne	.L32	#,
	.loc 1 350 1 view .LVU166
	leaq	-40(%rbp), %rsp	#,
	movq	%r15, %rax	# <retval>,
	popq	%rbx	#
.LVL59:
	.loc 1 350 1 view .LVU167
	popq	%r12	#
.LVL60:
	.loc 1 350 1 view .LVU168
	popq	%r13	#
	popq	%r14	#
.LVL61:
	.loc 1 350 1 view .LVU169
	popq	%r15	#
	popq	%rbp	#
	.cfi_remember_state
	.cfi_def_cfa 7, 8
	ret	
.LVL62:
.L32:
	.cfi_restore_state
	.loc 1 350 1 view .LVU170
	call	__stack_chk_fail@PLT	#
.LVL63:
	.cfi_endproc
.LFE5783:
	.size	returnLimbs, .-returnLimbs
	.section	.rodata.str1.8
	.align 8
.LC5:
	.string	"Memory allocation failed for result_str\n"
	.section	.rodata.str1.1
.LC6:
	.string	"%lu"
.LC7:
	.string	"%019lu"
	.section	.rodata.str1.8
	.align 8
.LC8:
	.string	"Memory allocation failed for final_result\n"
	.text
	.p2align 4
	.globl	formatResult
	.type	formatResult, @function
formatResult:
.LVL64:
.LFB5784:
	.loc 1 353 1 is_stmt 1 view -0
	.cfi_startproc
	.loc 1 353 1 is_stmt 0 view .LVU172
	endbr64	
	pushq	%r15	#
	.cfi_def_cfa_offset 16
	.cfi_offset 15, -16
	pushq	%r14	#
	.cfi_def_cfa_offset 24
	.cfi_offset 14, -24
	movq	%rdi, %r14	# tmp180, result
	pushq	%r13	#
	.cfi_def_cfa_offset 32
	.cfi_offset 13, -32
	movq	%rsi, %r13	# tmp181, result_length
	pushq	%r12	#
	.cfi_def_cfa_offset 40
	.cfi_offset 12, -40
	pushq	%rbp	#
	.cfi_def_cfa_offset 48
	.cfi_offset 6, -48
	pushq	%rbx	#
	.cfi_def_cfa_offset 56
	.cfi_offset 3, -56
	subq	$56, %rsp	#,
	.cfi_def_cfa_offset 112
# sub_64_aligned.c:354:     char *result_str = (char *)calloc(*result_length * 25 + 1, sizeof(char)); // 25 digits + null terminator per number
	.loc 1 354 54 view .LVU173
	movq	%fs:40, %rax	# MEM[(<address-space-1> long unsigned int *)40B], *result_length_38(D)
	movq	%rax, 40(%rsp)	# *result_length_38(D), D.39387
	movl	(%rsi), %eax	# *result_length_38(D), *result_length_38(D)
# sub_64_aligned.c:354:     char *result_str = (char *)calloc(*result_length * 25 + 1, sizeof(char)); // 25 digits + null terminator per number
	.loc 1 354 32 view .LVU174
	movl	$1, %esi	#,
.LVL65:
# sub_64_aligned.c:354:     char *result_str = (char *)calloc(*result_length * 25 + 1, sizeof(char)); // 25 digits + null terminator per number
	.loc 1 354 54 view .LVU175
	leal	(%rax,%rax,4), %edx	#, tmp120
# sub_64_aligned.c:354:     char *result_str = (char *)calloc(*result_length * 25 + 1, sizeof(char)); // 25 digits + null terminator per number
	.loc 1 354 59 view .LVU176
	leal	1(%rdx,%rdx,4), %edi	#, tmp123
.LVL66:
# sub_64_aligned.c:354:     char *result_str = (char *)calloc(*result_length * 25 + 1, sizeof(char)); // 25 digits + null terminator per number
	.loc 1 354 32 view .LVU177
	movslq	%edi, %rdi	# tmp123, tmp124
	call	calloc@PLT	#
.LVL67:
	.loc 1 355 5 is_stmt 1 view .LVU178
# sub_64_aligned.c:355:     if (result_str == NULL)
	.loc 1 355 8 is_stmt 0 view .LVU179
	testq	%rax, %rax	# result_str
	je	.L90	#,
.LBB208:
.LBB209:
# /usr/include/x86_64-linux-gnu/bits/stdio2.h:38:   return __builtin___sprintf_chk (__s, __USE_FORTIFY_LEVEL - 1,
	.loc 6 38 10 view .LVU180
	movq	(%r14), %r8	# *result_41(D),
	movq	%rax, %rdi	# result_str,
	movq	%rax, %rbp	# tmp182, result_str
.LBE209:
.LBE208:
	.loc 1 360 5 is_stmt 1 view .LVU181
.LVL68:
	.loc 1 362 5 view .LVU182
.LBB213:
.LBI208:
	.loc 6 36 1 view .LVU183
.LBB210:
	.loc 6 38 3 view .LVU184
# /usr/include/x86_64-linux-gnu/bits/stdio2.h:38:   return __builtin___sprintf_chk (__s, __USE_FORTIFY_LEVEL - 1,
	.loc 6 38 10 is_stmt 0 view .LVU185
	leaq	.LC6(%rip), %rcx	#, tmp127
	xorl	%eax, %eax	#
.LVL69:
	.loc 6 38 10 view .LVU186
	movl	$1, %esi	#,
.LBE210:
.LBE213:
.LBB214:
# sub_64_aligned.c:382:     for (int i = 1; i < *result_length; i++)
	.loc 1 382 23 view .LVU187
	movl	$1, %r12d	#, ivtmp.142
	movq	%rsp, %rbx	#, tmp147
.LBE214:
.LBB241:
.LBB211:
# /usr/include/x86_64-linux-gnu/bits/stdio2.h:38:   return __builtin___sprintf_chk (__s, __USE_FORTIFY_LEVEL - 1,
	.loc 6 38 10 view .LVU188
	movq	$-1, %rdx	#,
.LBE211:
.LBE241:
.LBB242:
.LBB215:
.LBB216:
.LBB217:
# /usr/include/x86_64-linux-gnu/bits/stdio2.h:71:   return __builtin___snprintf_chk (__s, __n, __USE_FORTIFY_LEVEL - 1,
	.loc 6 71 10 view .LVU189
	leaq	.LC7(%rip), %r15	#, tmp149
.LBE217:
.LBE216:
.LBE215:
.LBE242:
.LBB243:
.LBB212:
# /usr/include/x86_64-linux-gnu/bits/stdio2.h:38:   return __builtin___sprintf_chk (__s, __USE_FORTIFY_LEVEL - 1,
	.loc 6 38 10 view .LVU190
	call	__sprintf_chk@PLT	#
.LVL70:
	.loc 6 38 10 view .LVU191
.LBE212:
.LBE243:
	.loc 1 364 5 is_stmt 1 view .LVU192
	.loc 1 382 5 view .LVU193
.LBB244:
	.loc 1 382 10 view .LVU194
	.loc 1 382 23 view .LVU195
	cmpl	$1, 0(%r13)	#, *result_length_38(D)
	jle	.L38	#,
.LVL71:
.L35:
.LBB236:
	.loc 1 384 9 discriminator 3 view .LVU196
	.loc 1 385 9 discriminator 3 view .LVU197
.LBB223:
.LBI216:
	.loc 6 68 1 discriminator 3 view .LVU198
.LBB218:
	.loc 6 71 3 discriminator 3 view .LVU199
# /usr/include/x86_64-linux-gnu/bits/stdio2.h:71:   return __builtin___snprintf_chk (__s, __n, __USE_FORTIFY_LEVEL - 1,
	.loc 6 71 10 is_stmt 0 discriminator 3 view .LVU200
	movq	(%r14,%r12,8), %r9	# MEM[(uint64_t *)result_41(D) + ivtmp.142_89 * 8],
	movl	$25, %ecx	#,
	movq	%r15, %r8	# tmp149,
	movq	%rbx, %rdi	# tmp147,
	movl	$1, %edx	#,
	movl	$25, %esi	#,
	xorl	%eax, %eax	#
	call	__snprintf_chk@PLT	#
.LVL72:
	.loc 6 71 10 discriminator 3 view .LVU201
.LBE218:
.LBE223:
	.loc 1 386 9 is_stmt 1 discriminator 3 view .LVU202
.LBB224:
.LBI224:
	.loc 4 128 1 discriminator 3 view .LVU203
.LBB225:
	.loc 4 130 3 discriminator 3 view .LVU204
# /usr/include/x86_64-linux-gnu/bits/string_fortified.h:130:   return __builtin___strcat_chk (__dest, __src, __glibc_objsize (__dest));
	.loc 4 130 10 is_stmt 0 discriminator 3 view .LVU205
	movq	%rbx, %rsi	# tmp147,
	movq	%rbp, %rdi	# result_str,
	call	strcat@PLT	#
.LVL73:
	.loc 4 130 10 discriminator 3 view .LVU206
.LBE225:
.LBE224:
.LBE236:
	.loc 1 382 42 is_stmt 1 discriminator 3 view .LVU207
	.loc 1 382 23 discriminator 3 view .LVU208
	leaq	1(%r12), %rcx	#, tmp152
	cmpl	%ecx, 0(%r13)	# tmp152, *result_length_38(D)
	jle	.L38	#,
.LBB237:
	.loc 1 384 9 view .LVU209
	.loc 1 385 9 view .LVU210
.LVL74:
.LBB229:
	.loc 6 68 1 view .LVU211
.LBB219:
	.loc 6 71 3 view .LVU212
# /usr/include/x86_64-linux-gnu/bits/stdio2.h:71:   return __builtin___snprintf_chk (__s, __n, __USE_FORTIFY_LEVEL - 1,
	.loc 6 71 10 is_stmt 0 view .LVU213
	movq	(%r14,%rcx,8), %r9	# MEM[(uint64_t *)result_41(D) + ivtmp.142_89 * 8],
	movq	%r15, %r8	# tmp149,
	movl	$25, %ecx	#,
	movq	%rbx, %rdi	# tmp147,
	movl	$1, %edx	#,
	movl	$25, %esi	#,
	xorl	%eax, %eax	#
	call	__snprintf_chk@PLT	#
.LVL75:
	.loc 6 71 10 view .LVU214
.LBE219:
.LBE229:
	.loc 1 386 9 is_stmt 1 view .LVU215
.LBB230:
	.loc 4 128 1 view .LVU216
.LBB226:
	.loc 4 130 3 view .LVU217
# /usr/include/x86_64-linux-gnu/bits/string_fortified.h:130:   return __builtin___strcat_chk (__dest, __src, __glibc_objsize (__dest));
	.loc 4 130 10 is_stmt 0 view .LVU218
	movq	%rbx, %rsi	# tmp147,
	movq	%rbp, %rdi	# result_str,
	call	strcat@PLT	#
.LVL76:
	.loc 4 130 10 view .LVU219
.LBE226:
.LBE230:
.LBE237:
	.loc 1 382 42 is_stmt 1 view .LVU220
	.loc 1 382 23 view .LVU221
	leaq	2(%r12), %rsi	#, ivtmp.142
	cmpl	%esi, 0(%r13)	# ivtmp.142, *result_length_38(D)
	jle	.L38	#,
.LBB238:
	.loc 1 384 9 view .LVU222
	.loc 1 385 9 view .LVU223
.LVL77:
.LBB231:
	.loc 6 68 1 view .LVU224
.LBB220:
	.loc 6 71 3 view .LVU225
# /usr/include/x86_64-linux-gnu/bits/stdio2.h:71:   return __builtin___snprintf_chk (__s, __n, __USE_FORTIFY_LEVEL - 1,
	.loc 6 71 10 is_stmt 0 view .LVU226
	movq	(%r14,%rsi,8), %r9	# MEM[(uint64_t *)result_41(D) + ivtmp.142_89 * 8],
	movq	%r15, %r8	# tmp149,
	movl	$25, %ecx	#,
	movq	%rbx, %rdi	# tmp147,
	movl	$1, %edx	#,
	movl	$25, %esi	#,
	xorl	%eax, %eax	#
	call	__snprintf_chk@PLT	#
.LVL78:
	.loc 6 71 10 view .LVU227
.LBE220:
.LBE231:
	.loc 1 386 9 is_stmt 1 view .LVU228
.LBB232:
	.loc 4 128 1 view .LVU229
.LBB227:
	.loc 4 130 3 view .LVU230
# /usr/include/x86_64-linux-gnu/bits/string_fortified.h:130:   return __builtin___strcat_chk (__dest, __src, __glibc_objsize (__dest));
	.loc 4 130 10 is_stmt 0 view .LVU231
	movq	%rbx, %rsi	# tmp147,
	movq	%rbp, %rdi	# result_str,
	call	strcat@PLT	#
.LVL79:
	.loc 4 130 10 view .LVU232
.LBE227:
.LBE232:
.LBE238:
	.loc 1 382 42 is_stmt 1 view .LVU233
	.loc 1 382 23 view .LVU234
	leaq	3(%r12), %r8	#, ivtmp.142
	cmpl	%r8d, 0(%r13)	# ivtmp.142, *result_length_38(D)
	jle	.L38	#,
.LBB239:
	.loc 1 384 9 view .LVU235
	.loc 1 385 9 view .LVU236
.LVL80:
.LBB233:
	.loc 6 68 1 view .LVU237
.LBB221:
	.loc 6 71 3 view .LVU238
# /usr/include/x86_64-linux-gnu/bits/stdio2.h:71:   return __builtin___snprintf_chk (__s, __n, __USE_FORTIFY_LEVEL - 1,
	.loc 6 71 10 is_stmt 0 view .LVU239
	movq	(%r14,%r8,8), %r9	# MEM[(uint64_t *)result_41(D) + ivtmp.142_89 * 8],
	movl	$25, %ecx	#,
	movq	%r15, %r8	# tmp149,
	movq	%rbx, %rdi	# tmp147,
	movl	$1, %edx	#,
	movl	$25, %esi	#,
	xorl	%eax, %eax	#
.LBE221:
.LBE233:
.LBE239:
# sub_64_aligned.c:382:     for (int i = 1; i < *result_length; i++)
	.loc 1 382 23 view .LVU240
	addq	$4, %r12	#, ivtmp.142
.LBB240:
.LBB234:
.LBB222:
# /usr/include/x86_64-linux-gnu/bits/stdio2.h:71:   return __builtin___snprintf_chk (__s, __n, __USE_FORTIFY_LEVEL - 1,
	.loc 6 71 10 view .LVU241
	call	__snprintf_chk@PLT	#
.LVL81:
	.loc 6 71 10 view .LVU242
.LBE222:
.LBE234:
	.loc 1 386 9 is_stmt 1 view .LVU243
.LBB235:
	.loc 4 128 1 view .LVU244
.LBB228:
	.loc 4 130 3 view .LVU245
# /usr/include/x86_64-linux-gnu/bits/string_fortified.h:130:   return __builtin___strcat_chk (__dest, __src, __glibc_objsize (__dest));
	.loc 4 130 10 is_stmt 0 view .LVU246
	movq	%rbx, %rsi	# tmp147,
	movq	%rbp, %rdi	# result_str,
	call	strcat@PLT	#
.LVL82:
	.loc 4 130 10 view .LVU247
.LBE228:
.LBE235:
.LBE240:
	.loc 1 382 42 is_stmt 1 view .LVU248
	.loc 1 382 23 view .LVU249
	cmpl	%r12d, 0(%r13)	# ivtmp.142, *result_length_38(D)
	jg	.L35	#,
	.p2align 4,,10
	.p2align 3
.L38:
	.loc 1 382 23 is_stmt 0 view .LVU250
.LBE244:
	.loc 1 390 26 is_stmt 1 view .LVU251
# sub_64_aligned.c:390:     while (result_str[i] == '0')
	.loc 1 390 22 is_stmt 0 view .LVU252
	xorl	%r12d, %r12d	# ivtmp.135
# sub_64_aligned.c:389:     i = 0;
	.loc 1 389 7 view .LVU253
	xorl	%ebx, %ebx	#
# sub_64_aligned.c:390:     while (result_str[i] == '0')
	.loc 1 390 26 view .LVU254
	cmpb	$48, 0(%rbp)	#, *result_str_40
	movl	$1, %r9d	#, ivtmp.135
	movq	%rbp, %r14	# result_str, _90
.LVL83:
	.loc 1 390 26 view .LVU255
	jne	.L37	#,
.LVL84:
.L36:
	.loc 1 392 9 is_stmt 1 view .LVU256
# sub_64_aligned.c:390:     while (result_str[i] == '0')
	.loc 1 390 26 is_stmt 0 view .LVU257
	cmpb	$48, 0(%rbp,%r9)	#, MEM[(char *)result_str_40 + -1B + ivtmp.135_94 * 1]
# sub_64_aligned.c:392:         i++;
	.loc 1 392 10 view .LVU258
	movslq	%r9d, %rbx	# ivtmp.135,
	.loc 1 390 26 is_stmt 1 view .LVU259
	leaq	1(%r9), %r10	#, tmp151
	movq	%r9, %r12	# ivtmp.135, ivtmp.135
	leaq	0(%rbp,%r9), %r14	#, _90
	jne	.L37	#,
	.loc 1 392 9 view .LVU260
# sub_64_aligned.c:390:     while (result_str[i] == '0')
	.loc 1 390 26 is_stmt 0 view .LVU261
	cmpb	$48, 1(%rbp,%r9)	#, MEM[(char *)result_str_40 + -1B + ivtmp.135_94 * 1]
# sub_64_aligned.c:392:         i++;
	.loc 1 392 10 view .LVU262
	movslq	%r10d, %rbx	# tmp151,
	.loc 1 390 26 is_stmt 1 view .LVU263
	leaq	2(%r9), %r11	#, ivtmp.135
	movq	%r10, %r12	# tmp151, ivtmp.135
	leaq	0(%rbp,%r10), %r14	#, _90
	jne	.L37	#,
	.loc 1 392 9 view .LVU264
# sub_64_aligned.c:390:     while (result_str[i] == '0')
	.loc 1 390 26 is_stmt 0 view .LVU265
	cmpb	$48, 2(%rbp,%r9)	#, MEM[(char *)result_str_40 + -1B + ivtmp.135_94 * 1]
# sub_64_aligned.c:392:         i++;
	.loc 1 392 10 view .LVU266
	movslq	%r11d, %rbx	# ivtmp.135,
	.loc 1 390 26 is_stmt 1 view .LVU267
	leaq	3(%r9), %rax	#, ivtmp.135
	movq	%r11, %r12	# ivtmp.135, ivtmp.135
	leaq	0(%rbp,%r11), %r14	#, _90
	jne	.L37	#,
	.loc 1 392 9 view .LVU268
# sub_64_aligned.c:390:     while (result_str[i] == '0')
	.loc 1 390 26 is_stmt 0 view .LVU269
	cmpb	$48, 3(%rbp,%r9)	#, MEM[(char *)result_str_40 + -1B + ivtmp.135_94 * 1]
# sub_64_aligned.c:392:         i++;
	.loc 1 392 10 view .LVU270
	movslq	%eax, %rbx	# ivtmp.135,
	.loc 1 390 26 is_stmt 1 view .LVU271
	leaq	4(%r9), %rdx	#, ivtmp.135
	movq	%rax, %r12	# ivtmp.135, ivtmp.135
	leaq	0(%rbp,%rax), %r14	#, _90
	jne	.L37	#,
	.loc 1 392 9 view .LVU272
# sub_64_aligned.c:390:     while (result_str[i] == '0')
	.loc 1 390 26 is_stmt 0 view .LVU273
	cmpb	$48, 4(%rbp,%r9)	#, MEM[(char *)result_str_40 + -1B + ivtmp.135_94 * 1]
# sub_64_aligned.c:392:         i++;
	.loc 1 392 10 view .LVU274
	movslq	%edx, %rbx	# ivtmp.135,
	.loc 1 390 26 is_stmt 1 view .LVU275
	leaq	5(%r9), %rdi	#, ivtmp.135
	movq	%rdx, %r12	# ivtmp.135, ivtmp.135
	leaq	0(%rbp,%rdx), %r14	#, _90
	jne	.L37	#,
	.loc 1 392 9 view .LVU276
# sub_64_aligned.c:390:     while (result_str[i] == '0')
	.loc 1 390 26 is_stmt 0 view .LVU277
	cmpb	$48, 5(%rbp,%r9)	#, MEM[(char *)result_str_40 + -1B + ivtmp.135_94 * 1]
# sub_64_aligned.c:392:         i++;
	.loc 1 392 10 view .LVU278
	movslq	%edi, %rbx	# ivtmp.135,
	.loc 1 390 26 is_stmt 1 view .LVU279
	leaq	6(%r9), %r15	#, ivtmp.135
	movq	%rdi, %r12	# ivtmp.135, ivtmp.135
	leaq	0(%rbp,%rdi), %r14	#, _90
	jne	.L37	#,
	.loc 1 392 9 view .LVU280
# sub_64_aligned.c:390:     while (result_str[i] == '0')
	.loc 1 390 26 is_stmt 0 view .LVU281
	cmpb	$48, 6(%rbp,%r9)	#, MEM[(char *)result_str_40 + -1B + ivtmp.135_94 * 1]
# sub_64_aligned.c:392:         i++;
	.loc 1 392 10 view .LVU282
	movslq	%r15d, %rbx	# ivtmp.135,
	.loc 1 390 26 is_stmt 1 view .LVU283
	leaq	7(%r9), %rcx	#, ivtmp.135
	movq	%r15, %r12	# ivtmp.135, ivtmp.135
	leaq	0(%rbp,%r15), %r14	#, _90
	jne	.L37	#,
	.loc 1 392 9 view .LVU284
# sub_64_aligned.c:390:     while (result_str[i] == '0')
	.loc 1 390 26 is_stmt 0 view .LVU285
	addq	$8, %r9	#, ivtmp.135
# sub_64_aligned.c:392:         i++;
	.loc 1 392 10 view .LVU286
	movslq	%ecx, %rbx	# ivtmp.135,
	.loc 1 390 26 is_stmt 1 view .LVU287
	leaq	0(%rbp,%rcx), %r14	#, _90
	movq	%rcx, %r12	# ivtmp.135, ivtmp.135
	cmpb	$48, -1(%rbp,%r9)	#, MEM[(char *)result_str_40 + -1B + ivtmp.135_94 * 1]
	je	.L36	#,
	.p2align 4,,10
	.p2align 3
.L37:
	.loc 1 394 5 view .LVU288
# sub_64_aligned.c:394:     if (i == strlen(result_str))
	.loc 1 394 14 is_stmt 0 view .LVU289
	movq	%rbp, %rdi	# result_str,
	call	strlen@PLT	#
.LVL85:
# sub_64_aligned.c:394:     if (i == strlen(result_str))
	.loc 1 394 8 view .LVU290
	cmpq	%r12, %rax	# ivtmp.135, tmp132
	je	.L91	#,
	.loc 1 401 5 is_stmt 1 view .LVU291
# sub_64_aligned.c:401:     char *final_result = (char *)calloc(strlen(result_str) - i + 1, sizeof(char));
	.loc 1 401 34 is_stmt 0 view .LVU292
	leaq	1(%rax), %rdi	#, tmp135
	movl	$1, %esi	#,
	subq	%r12, %rdi	# ivtmp.135, tmp136
	call	calloc@PLT	#
.LVL86:
	movq	%rax, %r15	# tmp185, <retval>
.LVL87:
	.loc 1 402 5 is_stmt 1 view .LVU293
# sub_64_aligned.c:402:     if (final_result == NULL)
	.loc 1 402 8 is_stmt 0 view .LVU294
	testq	%rax, %rax	# <retval>
	je	.L41	#,
.LVL88:
	.loc 1 408 26 is_stmt 1 view .LVU295
# sub_64_aligned.c:408:     while (result_str[i] != '\0')
	.loc 1 408 22 is_stmt 0 view .LVU296
	movzbl	(%r14), %edi	# *prephitmp_96, _31
# sub_64_aligned.c:408:     while (result_str[i] != '\0')
	.loc 1 408 26 view .LVU297
	movl	$1, %r8d	#, ivtmp.127
# sub_64_aligned.c:408:     while (result_str[i] != '\0')
	.loc 1 408 22 view .LVU298
	addq	%rbp, %rbx	# result_str, tmp140
# sub_64_aligned.c:408:     while (result_str[i] != '\0')
	.loc 1 408 26 view .LVU299
	movq	%rax, %rdx	# <retval>, _104
	testb	%dil, %dil	# _31
	je	.L43	#,
.LVL89:
.L42:
	.loc 1 410 9 is_stmt 1 view .LVU300
# sub_64_aligned.c:408:     while (result_str[i] != '\0')
	.loc 1 408 26 is_stmt 0 view .LVU301
	leaq	1(%r8), %r9	#, tmp150
# sub_64_aligned.c:410:         final_result[j] = result_str[i];
	.loc 1 410 25 view .LVU302
	movb	%dil, -1(%r15,%r8)	# _31, MEM[(char *)final_result_43 + -1B + ivtmp.127_101 * 1]
	.loc 1 411 9 is_stmt 1 view .LVU303
	.loc 1 412 9 view .LVU304
# sub_64_aligned.c:412:         j++;
	.loc 1 412 10 is_stmt 0 view .LVU305
	movslq	%r8d, %rdx	# ivtmp.127,
.LVL90:
	.loc 1 408 26 is_stmt 1 view .LVU306
# sub_64_aligned.c:408:     while (result_str[i] != '\0')
	.loc 1 408 22 is_stmt 0 view .LVU307
	movzbl	-1(%rbx,%r9), %esi	# MEM[(char *)_98 + -1B + ivtmp.127_79 * 1], _31
# sub_64_aligned.c:408:     while (result_str[i] != '\0')
	.loc 1 408 26 view .LVU308
	testb	%sil, %sil	# _31
	je	.L88	#,
.LVL91:
	.loc 1 410 9 is_stmt 1 view .LVU309
# sub_64_aligned.c:408:     while (result_str[i] != '\0')
	.loc 1 408 22 is_stmt 0 view .LVU310
	movzbl	1(%r8,%rbx), %r11d	# MEM[(char *)_98 + -1B + ivtmp.127_79 * 1], _31
# sub_64_aligned.c:410:         final_result[j] = result_str[i];
	.loc 1 410 25 view .LVU311
	movb	%sil, -1(%r15,%r9)	# _31, MEM[(char *)final_result_43 + -1B + ivtmp.127_101 * 1]
	.loc 1 411 9 is_stmt 1 view .LVU312
	.loc 1 412 9 view .LVU313
# sub_64_aligned.c:412:         j++;
	.loc 1 412 10 is_stmt 0 view .LVU314
	movslq	%r9d, %rdx	# tmp150,
.LVL92:
	.loc 1 408 26 is_stmt 1 view .LVU315
	leaq	2(%r8), %r10	#, ivtmp.127
	testb	%r11b, %r11b	# _31
	je	.L88	#,
.LVL93:
	.loc 1 410 9 view .LVU316
# sub_64_aligned.c:408:     while (result_str[i] != '\0')
	.loc 1 408 22 is_stmt 0 view .LVU317
	movzbl	2(%r8,%rbx), %edi	# MEM[(char *)_98 + -1B + ivtmp.127_79 * 1], _31
# sub_64_aligned.c:410:         final_result[j] = result_str[i];
	.loc 1 410 25 view .LVU318
	movb	%r11b, 1(%r15,%r8)	# _31, MEM[(char *)final_result_43 + -1B + ivtmp.127_101 * 1]
	.loc 1 411 9 is_stmt 1 view .LVU319
	.loc 1 412 9 view .LVU320
# sub_64_aligned.c:412:         j++;
	.loc 1 412 10 is_stmt 0 view .LVU321
	movslq	%r10d, %rdx	# ivtmp.127,
.LVL94:
	.loc 1 408 26 is_stmt 1 view .LVU322
	leaq	3(%r8), %rax	#, ivtmp.127
	testb	%dil, %dil	# _31
	je	.L88	#,
.LVL95:
	.loc 1 410 9 view .LVU323
# sub_64_aligned.c:408:     while (result_str[i] != '\0')
	.loc 1 408 22 is_stmt 0 view .LVU324
	movzbl	3(%r8,%rbx), %r14d	# MEM[(char *)_98 + -1B + ivtmp.127_79 * 1], _31
# sub_64_aligned.c:410:         final_result[j] = result_str[i];
	.loc 1 410 25 view .LVU325
	movb	%dil, 2(%r15,%r8)	# _31, MEM[(char *)final_result_43 + -1B + ivtmp.127_101 * 1]
	.loc 1 411 9 is_stmt 1 view .LVU326
	.loc 1 412 9 view .LVU327
# sub_64_aligned.c:412:         j++;
	.loc 1 412 10 is_stmt 0 view .LVU328
	movslq	%eax, %rdx	# ivtmp.127,
.LVL96:
	.loc 1 408 26 is_stmt 1 view .LVU329
	leaq	4(%r8), %rcx	#, ivtmp.127
	testb	%r14b, %r14b	# _31
	je	.L88	#,
.LVL97:
	.loc 1 410 9 view .LVU330
# sub_64_aligned.c:408:     while (result_str[i] != '\0')
	.loc 1 408 22 is_stmt 0 view .LVU331
	movzbl	4(%r8,%rbx), %r9d	# MEM[(char *)_98 + -1B + ivtmp.127_79 * 1], _31
# sub_64_aligned.c:410:         final_result[j] = result_str[i];
	.loc 1 410 25 view .LVU332
	movb	%r14b, 3(%r15,%r8)	# _31, MEM[(char *)final_result_43 + -1B + ivtmp.127_101 * 1]
	.loc 1 411 9 is_stmt 1 view .LVU333
	.loc 1 412 9 view .LVU334
# sub_64_aligned.c:412:         j++;
	.loc 1 412 10 is_stmt 0 view .LVU335
	movslq	%ecx, %rdx	# ivtmp.127,
.LVL98:
	.loc 1 408 26 is_stmt 1 view .LVU336
	leaq	5(%r8), %r12	#, ivtmp.127
	testb	%r9b, %r9b	# _31
	je	.L88	#,
.LVL99:
	.loc 1 410 9 view .LVU337
# sub_64_aligned.c:408:     while (result_str[i] != '\0')
	.loc 1 408 22 is_stmt 0 view .LVU338
	movzbl	5(%r8,%rbx), %esi	# MEM[(char *)_98 + -1B + ivtmp.127_79 * 1], _31
# sub_64_aligned.c:410:         final_result[j] = result_str[i];
	.loc 1 410 25 view .LVU339
	movb	%r9b, 4(%r15,%r8)	# _31, MEM[(char *)final_result_43 + -1B + ivtmp.127_101 * 1]
	.loc 1 411 9 is_stmt 1 view .LVU340
	.loc 1 412 9 view .LVU341
# sub_64_aligned.c:412:         j++;
	.loc 1 412 10 is_stmt 0 view .LVU342
	movslq	%r12d, %rdx	# ivtmp.127,
.LVL100:
	.loc 1 408 26 is_stmt 1 view .LVU343
	leaq	6(%r8), %r10	#, ivtmp.127
	testb	%sil, %sil	# _31
	je	.L88	#,
.LVL101:
	.loc 1 410 9 view .LVU344
# sub_64_aligned.c:408:     while (result_str[i] != '\0')
	.loc 1 408 22 is_stmt 0 view .LVU345
	movzbl	6(%r8,%rbx), %eax	# MEM[(char *)_98 + -1B + ivtmp.127_79 * 1], _31
# sub_64_aligned.c:410:         final_result[j] = result_str[i];
	.loc 1 410 25 view .LVU346
	movb	%sil, 5(%r15,%r8)	# _31, MEM[(char *)final_result_43 + -1B + ivtmp.127_101 * 1]
	.loc 1 411 9 is_stmt 1 view .LVU347
	.loc 1 412 9 view .LVU348
# sub_64_aligned.c:412:         j++;
	.loc 1 412 10 is_stmt 0 view .LVU349
	movslq	%r10d, %rdx	# ivtmp.127,
.LVL102:
	.loc 1 408 26 is_stmt 1 view .LVU350
	leaq	7(%r8), %r11	#, ivtmp.127
	testb	%al, %al	# _31
	je	.L88	#,
.LVL103:
	.loc 1 410 9 view .LVU351
# sub_64_aligned.c:410:         final_result[j] = result_str[i];
	.loc 1 410 25 is_stmt 0 view .LVU352
	movb	%al, 6(%r15,%r8)	# _31, MEM[(char *)final_result_43 + -1B + ivtmp.127_101 * 1]
	.loc 1 411 9 is_stmt 1 view .LVU353
	.loc 1 412 9 view .LVU354
# sub_64_aligned.c:408:     while (result_str[i] != '\0')
	.loc 1 408 26 is_stmt 0 view .LVU355
	addq	$8, %r8	#, ivtmp.127
# sub_64_aligned.c:412:         j++;
	.loc 1 412 10 view .LVU356
	movslq	%r11d, %rdx	# ivtmp.127,
.LVL104:
	.loc 1 408 26 is_stmt 1 view .LVU357
# sub_64_aligned.c:408:     while (result_str[i] != '\0')
	.loc 1 408 22 is_stmt 0 view .LVU358
	movzbl	-1(%rbx,%r8), %edi	# MEM[(char *)_98 + -1B + ivtmp.127_79 * 1], _31
# sub_64_aligned.c:408:     while (result_str[i] != '\0')
	.loc 1 408 26 view .LVU359
	testb	%dil, %dil	# _31
	jne	.L42	#,
	.p2align 4,,10
	.p2align 3
.L88:
# sub_64_aligned.c:414:     final_result[j] = '\0';
	.loc 1 414 17 view .LVU360
	addq	%r15, %rdx	# <retval>, _104
.LVL105:
.L43:
	.loc 1 414 5 is_stmt 1 view .LVU361
# sub_64_aligned.c:414:     final_result[j] = '\0';
	.loc 1 414 21 is_stmt 0 view .LVU362
	movb	$0, (%rdx)	#, *prephitmp_105
	.loc 1 415 5 is_stmt 1 view .LVU363
	movq	%rbp, %rdi	# result_str,
	call	free@PLT	#
.LVL106:
	.loc 1 416 5 view .LVU364
# sub_64_aligned.c:416:     *result_length = strlen(final_result);
	.loc 1 416 22 is_stmt 0 view .LVU365
	movq	%r15, %rdi	# <retval>,
	call	strlen@PLT	#
.LVL107:
# sub_64_aligned.c:416:     *result_length = strlen(final_result);
	.loc 1 416 20 view .LVU366
	movl	%eax, 0(%r13)	# tmp186, *result_length_38(D)
	.loc 1 417 5 is_stmt 1 view .LVU367
.LVL108:
.L33:
# sub_64_aligned.c:418: }
	.loc 1 418 1 is_stmt 0 view .LVU368
	movq	40(%rsp), %rax	# D.39387, tmp188
	subq	%fs:40, %rax	# MEM[(<address-space-1> long unsigned int *)40B], tmp188
	jne	.L92	#,
	addq	$56, %rsp	#,
	.cfi_remember_state
	.cfi_def_cfa_offset 56
	movq	%r15, %rax	# <retval>,
	popq	%rbx	#
	.cfi_def_cfa_offset 48
	popq	%rbp	#
	.cfi_def_cfa_offset 40
.LVL109:
	.loc 1 418 1 view .LVU369
	popq	%r12	#
	.cfi_def_cfa_offset 32
	popq	%r13	#
	.cfi_def_cfa_offset 24
	popq	%r14	#
	.cfi_def_cfa_offset 16
	popq	%r15	#
	.cfi_def_cfa_offset 8
	ret	
.LVL110:
	.p2align 4,,10
	.p2align 3
.L91:
	.cfi_restore_state
.LBB245:
	.loc 1 396 9 is_stmt 1 view .LVU370
# sub_64_aligned.c:396:         char *temp = (char *)calloc(2, sizeof(char));
	.loc 1 396 30 is_stmt 0 view .LVU371
	movl	$1, %esi	#,
	movl	$2, %edi	#,
# sub_64_aligned.c:397:         temp[0] = '0';
	.loc 1 397 17 view .LVU372
	movl	$48, %r13d	#,
.LVL111:
# sub_64_aligned.c:396:         char *temp = (char *)calloc(2, sizeof(char));
	.loc 1 396 30 view .LVU373
	call	calloc@PLT	#
.LVL112:
# sub_64_aligned.c:397:         temp[0] = '0';
	.loc 1 397 17 view .LVU374
	movw	%r13w, (%rax)	#, MEM <vector(2) char> [(char *)temp_53]
# sub_64_aligned.c:396:         char *temp = (char *)calloc(2, sizeof(char));
	.loc 1 396 30 view .LVU375
	movq	%rax, %r15	# tmp184, <retval>
.LVL113:
	.loc 1 397 9 is_stmt 1 view .LVU376
	.loc 1 398 9 view .LVU377
	.loc 1 399 9 view .LVU378
# sub_64_aligned.c:399:         return temp;
	.loc 1 399 16 is_stmt 0 view .LVU379
	jmp	.L33	#
.LVL114:
.L90:
	.loc 1 399 16 view .LVU380
.LBE245:
	.loc 1 357 9 is_stmt 1 view .LVU381
	leaq	.LC5(%rip), %rdi	#, tmp126
	call	perror@PLT	#
.LVL115:
	.loc 1 358 9 view .LVU382
	xorl	%edi, %edi	#
	call	exit@PLT	#
.LVL116:
.L92:
# sub_64_aligned.c:418: }
	.loc 1 418 1 is_stmt 0 view .LVU383
	call	__stack_chk_fail@PLT	#
.LVL117:
.L41:
	.loc 1 404 9 is_stmt 1 view .LVU384
	leaq	.LC8(%rip), %rdi	#, tmp138
	call	perror@PLT	#
.LVL118:
	.loc 1 405 9 view .LVU385
	xorl	%edi, %edi	#
	call	exit@PLT	#
.LVL119:
	.cfi_endproc
.LFE5784:
	.size	formatResult, .-formatResult
	.section	.rodata.str1.8
	.align 8
.LC9:
	.string	"Memory allocation failed for temp\n"
	.align 8
.LC10:
	.string	"Memory reallocation failed for num2\n"
	.align 8
.LC11:
	.string	"Memory reallocation failed for num1\n"
	.text
	.p2align 4
	.globl	make_equidistant
	.type	make_equidistant, @function
make_equidistant:
.LVL120:
.LFB5785:
	.loc 1 421 1 view -0
	.cfi_startproc
	.loc 1 421 1 is_stmt 0 view .LVU387
	endbr64	
	pushq	%r15	#
	.cfi_def_cfa_offset 16
	.cfi_offset 15, -16
	pushq	%r14	#
	.cfi_def_cfa_offset 24
	.cfi_offset 14, -24
	pushq	%r13	#
	.cfi_def_cfa_offset 32
	.cfi_offset 13, -32
	pushq	%r12	#
	.cfi_def_cfa_offset 40
	.cfi_offset 12, -40
	pushq	%rbp	#
	.cfi_def_cfa_offset 48
	.cfi_offset 6, -48
	pushq	%rbx	#
	.cfi_def_cfa_offset 56
	.cfi_offset 3, -56
	subq	$72, %rsp	#,
	.cfi_def_cfa_offset 128
# sub_64_aligned.c:422:     if (*n_1 == *n_2)
	.loc 1 422 9 view .LVU388
	movl	(%rdx), %r15d	# *n_1_59(D), _1
# sub_64_aligned.c:422:     if (*n_1 == *n_2)
	.loc 1 422 17 view .LVU389
	movl	(%rcx), %r14d	# *n_2_60(D), _2
# sub_64_aligned.c:421: {
	.loc 1 421 1 view .LVU390
	movq	%fs:40, %rax	# MEM[(<address-space-1> long unsigned int *)40B], tmp232
	movq	%rax, 56(%rsp)	# tmp232, D.39433
	xorl	%eax, %eax	# tmp232
	.loc 1 422 5 is_stmt 1 view .LVU391
# sub_64_aligned.c:422:     if (*n_1 == *n_2)
	.loc 1 422 8 is_stmt 0 view .LVU392
	cmpl	%r14d, %r15d	# _2, _1
	je	.L93	#,
	movq	%rcx, %rbx	# tmp227, n_2
	.loc 1 425 5 is_stmt 1 view .LVU393
.LVL121:
	.loc 1 426 5 view .LVU394
	.loc 1 428 5 view .LVU395
	movq	(%rdi), %r8	# *num1_base_61(D), _3
	.loc 1 429 5 view .LVU396
	movq	(%rsi), %rcx	# *num2_base_62(D), _4
.LVL122:
	.loc 1 431 5 view .LVU397
	.loc 1 432 5 view .LVU398
	.loc 1 434 5 view .LVU399
	movq	%rdi, %r13	# tmp224, num1_base
	movq	%rsi, %r12	# tmp225, num2_base
# sub_64_aligned.c:434:     if (n1 > n2)
	.loc 1 434 8 is_stmt 0 view .LVU400
	jg	.L124	#,
	.loc 1 483 10 is_stmt 1 view .LVU401
# sub_64_aligned.c:483:     else if (n2 > n1)
	.loc 1 483 13 is_stmt 0 view .LVU402
	jl	.L125	#,
.LVL123:
.L93:
# sub_64_aligned.c:532: }
	.loc 1 532 1 view .LVU403
	movq	56(%rsp), %rax	# D.39433, tmp235
	subq	%fs:40, %rax	# MEM[(<address-space-1> long unsigned int *)40B], tmp235
	jne	.L123	#,
	addq	$72, %rsp	#,
	.cfi_remember_state
	.cfi_def_cfa_offset 56
	popq	%rbx	#
	.cfi_def_cfa_offset 48
	popq	%rbp	#
	.cfi_def_cfa_offset 40
	popq	%r12	#
	.cfi_def_cfa_offset 32
	popq	%r13	#
	.cfi_def_cfa_offset 24
	popq	%r14	#
	.cfi_def_cfa_offset 16
	popq	%r15	#
	.cfi_def_cfa_offset 8
	ret	
.LVL124:
	.p2align 4,,10
	.p2align 3
.L124:
	.cfi_restore_state
.LBB266:
# sub_64_aligned.c:438:         aligned_uint64_ptr temp = (aligned_uint64_ptr)_mm_malloc(n1 * sizeof(uint64_t), 64);
	.loc 1 438 55 view .LVU404
	movslq	%r15d, %r13	# _1, _1
.LBB267:
.LBB268:
# /usr/lib/gcc/x86_64-linux-gnu/11/include/mm_malloc.h:45:   if (posix_memalign (&__ptr, __alignment, __size) == 0)
	.loc 5 45 7 view .LVU405
	leaq	24(%rsp), %rdi	#, tmp145
.LVL125:
	.loc 5 45 7 view .LVU406
	movl	$64, %esi	#,
.LVL126:
	.loc 5 45 7 view .LVU407
	movq	%rcx, 8(%rsp)	# _4, %sfp
.LBE268:
.LBE267:
	.loc 1 438 9 is_stmt 1 view .LVU408
# sub_64_aligned.c:438:         aligned_uint64_ptr temp = (aligned_uint64_ptr)_mm_malloc(n1 * sizeof(uint64_t), 64);
	.loc 1 438 55 is_stmt 0 view .LVU409
	movq	%r13, (%rsp)	# _1, %sfp
	leaq	0(,%r13,8), %r13	#, _6
.LVL127:
.LBB270:
.LBI267:
	.loc 5 38 1 is_stmt 1 view .LVU410
.LBB269:
	.loc 5 40 3 view .LVU411
	.loc 5 41 3 view .LVU412
	.loc 5 43 3 view .LVU413
	.loc 5 45 3 view .LVU414
# /usr/lib/gcc/x86_64-linux-gnu/11/include/mm_malloc.h:45:   if (posix_memalign (&__ptr, __alignment, __size) == 0)
	.loc 5 45 7 is_stmt 0 view .LVU415
	movq	%r13, %rdx	# _6,
.LVL128:
	.loc 5 45 7 view .LVU416
	call	posix_memalign@PLT	#
.LVL129:
	.loc 5 45 7 view .LVU417
	movq	8(%rsp), %rcx	# %sfp, _4
	testl	%eax, %eax	# tmp228
	jne	.L97	#,
	.loc 5 45 7 view .LVU418
	movq	24(%rsp), %rbp	# D.39396, _105
.LVL130:
	.loc 5 45 7 view .LVU419
.LBE269:
.LBE270:
	.loc 1 439 9 is_stmt 1 view .LVU420
# sub_64_aligned.c:439:         if (temp == NULL)
	.loc 1 439 12 is_stmt 0 view .LVU421
	testq	%rbp, %rbp	# _105
	je	.L97	#,
	.loc 1 446 9 is_stmt 1 view .LVU422
	.loc 1 447 9 view .LVU423
	.loc 1 448 9 view .LVU424
.LBB271:
	.loc 1 448 14 view .LVU425
.LVL131:
	.loc 1 448 32 view .LVU426
	movl	%r14d, %eax	# _2, i
	subl	$1, %eax	#, i
.LVL132:
	.loc 1 448 32 is_stmt 0 view .LVU427
	js	.L98	#,
# sub_64_aligned.c:451:             temp[i + n1 - n2] = num2[i];
	.loc 1 451 31 view .LVU428
	movl	%eax, %r9d	# i, _146
	movq	(%rsp), %rdx	# %sfp, _1
	movslq	%eax, %rsi	# i, _135
	movslq	%r14d, %r8	# _2, _2
	movq	%r9, %r10	# _146, tmp149
	leaq	(%rdx,%rsi), %r11	#, tmp151
	negq	%r10	# tmp149
	leaq	8(,%r9,8), %rdx	#, tmp158
	salq	$3, %r10	#, tmp150
	subq	%r8, %r11	# _2, tmp153
	leaq	(%r10,%r11,8), %rdi	#, tmp155
# sub_64_aligned.c:451:             temp[i + n1 - n2] = num2[i];
	.loc 1 451 37 view .LVU429
	leaq	(%r10,%rsi,8), %rax	#, tmp160
.LVL133:
# sub_64_aligned.c:451:             temp[i + n1 - n2] = num2[i];
	.loc 1 451 31 view .LVU430
	addq	%rbp, %rdi	# _105, tmp156
# sub_64_aligned.c:451:             temp[i + n1 - n2] = num2[i];
	.loc 1 451 37 view .LVU431
	leaq	(%rcx,%rax), %rsi	#, tmp161
.LVL134:
# sub_64_aligned.c:451:             temp[i + n1 - n2] = num2[i];
	.loc 1 451 31 view .LVU432
	call	memcpy@PLT	#
.LVL135:
.L98:
	.loc 1 451 31 view .LVU433
.LBE271:
.LBB272:
	.loc 1 456 27 is_stmt 1 view .LVU434
# sub_64_aligned.c:456:         for (int i = 0; i < n1 - n2; i++)
	.loc 1 456 32 is_stmt 0 view .LVU435
	movl	%r15d, %edi	# _1, tmp167
# sub_64_aligned.c:458:             temp[i] = 0;
	.loc 1 458 21 view .LVU436
	xorl	%esi, %esi	#
# sub_64_aligned.c:456:         for (int i = 0; i < n1 - n2; i++)
	.loc 1 456 32 view .LVU437
	subl	%r14d, %edi	# _2, tmp167
# sub_64_aligned.c:458:             temp[i] = 0;
	.loc 1 458 21 view .LVU438
	movslq	%edi, %rdx	# tmp167, tmp168
	movq	%rbp, %rdi	# _105,
	salq	$3, %rdx	#, tmp169
	call	memset@PLT	#
.LVL136:
	.loc 1 458 21 view .LVU439
.LBE272:
	.loc 1 463 9 is_stmt 1 view .LVU440
.LBB273:
.LBI273:
	.loc 5 38 1 view .LVU441
.LBB274:
	.loc 5 40 3 view .LVU442
	.loc 5 41 3 view .LVU443
	.loc 5 43 3 view .LVU444
	.loc 5 45 3 view .LVU445
# /usr/lib/gcc/x86_64-linux-gnu/11/include/mm_malloc.h:45:   if (posix_memalign (&__ptr, __alignment, __size) == 0)
	.loc 5 45 7 is_stmt 0 view .LVU446
	leaq	32(%rsp), %rdi	#, tmp174
	movq	%r13, %rdx	# _6,
	movl	$64, %esi	#,
	call	posix_memalign@PLT	#
.LVL137:
	testl	%eax, %eax	# tmp229
	je	.L126	#,
.LVL138:
.L99:
	.loc 5 45 7 view .LVU447
.LBE274:
.LBE273:
	.loc 1 466 13 is_stmt 1 view .LVU448
	leaq	.LC10(%rip), %rdi	#, tmp175
	call	perror@PLT	#
.LVL139:
	.loc 1 467 13 view .LVU449
	xorl	%edi, %edi	#
	call	exit@PLT	#
.LVL140:
	.p2align 4,,10
	.p2align 3
.L97:
	.loc 1 441 13 view .LVU450
	leaq	.LC9(%rip), %rdi	#, tmp146
	call	perror@PLT	#
.LVL141:
	.loc 1 442 13 view .LVU451
	xorl	%edi, %edi	#
	call	exit@PLT	#
.LVL142:
	.p2align 4,,10
	.p2align 3
.L125:
	.loc 1 442 13 is_stmt 0 view .LVU452
.LBE266:
.LBB278:
# sub_64_aligned.c:487:         aligned_uint64_ptr temp = (aligned_uint64_ptr)_mm_malloc(n2 * sizeof(uint64_t), 64);
	.loc 1 487 55 view .LVU453
	movslq	%r14d, %rax	# _2, _2
	movq	%rdx, %rbp	# tmp226, n_1
.LBB279:
.LBB280:
# /usr/lib/gcc/x86_64-linux-gnu/11/include/mm_malloc.h:45:   if (posix_memalign (&__ptr, __alignment, __size) == 0)
	.loc 5 45 7 view .LVU454
	leaq	40(%rsp), %rdi	#, tmp184
.LVL143:
	.loc 5 45 7 view .LVU455
	movl	$64, %esi	#,
.LVL144:
	.loc 5 45 7 view .LVU456
.LBE280:
.LBE279:
# sub_64_aligned.c:487:         aligned_uint64_ptr temp = (aligned_uint64_ptr)_mm_malloc(n2 * sizeof(uint64_t), 64);
	.loc 1 487 55 view .LVU457
	leaq	0(,%rax,8), %r12	#, _26
.LVL145:
	.loc 1 487 55 view .LVU458
	movq	%r8, 8(%rsp)	# _3, %sfp
	.loc 1 487 9 is_stmt 1 view .LVU459
.LVL146:
.LBB283:
.LBI279:
	.loc 5 38 1 view .LVU460
.LBB281:
	.loc 5 40 3 view .LVU461
	.loc 5 41 3 view .LVU462
	.loc 5 43 3 view .LVU463
	.loc 5 45 3 view .LVU464
# /usr/lib/gcc/x86_64-linux-gnu/11/include/mm_malloc.h:45:   if (posix_memalign (&__ptr, __alignment, __size) == 0)
	.loc 5 45 7 is_stmt 0 view .LVU465
	movq	%r12, %rdx	# _26,
.LVL147:
	.loc 5 45 7 view .LVU466
.LBE281:
.LBE283:
# sub_64_aligned.c:487:         aligned_uint64_ptr temp = (aligned_uint64_ptr)_mm_malloc(n2 * sizeof(uint64_t), 64);
	.loc 1 487 55 view .LVU467
	movq	%rax, (%rsp)	# _2, %sfp
.LBB284:
.LBB282:
# /usr/lib/gcc/x86_64-linux-gnu/11/include/mm_malloc.h:45:   if (posix_memalign (&__ptr, __alignment, __size) == 0)
	.loc 5 45 7 view .LVU468
	call	posix_memalign@PLT	#
.LVL148:
	.loc 5 45 7 view .LVU469
	testl	%eax, %eax	# tmp230
	jne	.L97	#,
	.loc 5 45 7 view .LVU470
	movq	40(%rsp), %rbx	# D.39408, _129
.LVL149:
	.loc 5 45 7 view .LVU471
.LBE282:
.LBE284:
	.loc 1 488 9 is_stmt 1 view .LVU472
# sub_64_aligned.c:488:         if (temp == NULL)
	.loc 1 488 12 is_stmt 0 view .LVU473
	testq	%rbx, %rbx	# _129
	je	.L97	#,
	.loc 1 496 9 is_stmt 1 view .LVU474
	.loc 1 497 9 view .LVU475
	.loc 1 498 9 view .LVU476
.LBB285:
	.loc 1 498 14 view .LVU477
.LVL150:
	.loc 1 498 32 view .LVU478
	movl	%r15d, %eax	# _1, i
	subl	$1, %eax	#, i
.LVL151:
	.loc 1 498 32 is_stmt 0 view .LVU479
	js	.L103	#,
# sub_64_aligned.c:501:             temp[i + n2 - n1] = num1[i];
	.loc 1 501 31 view .LVU480
	movl	%eax, %r9d	# i, _112
	movq	(%rsp), %rsi	# %sfp, _2
# sub_64_aligned.c:501:             temp[i + n2 - n1] = num1[i];
	.loc 1 501 37 view .LVU481
	movq	8(%rsp), %r8	# %sfp, _3
# sub_64_aligned.c:501:             temp[i + n2 - n1] = num1[i];
	.loc 1 501 31 view .LVU482
	cltq
	.loc 1 501 31 view .LVU483
	movq	%r9, %rdx	# _112, tmp187
	leaq	8(,%r9,8), %r10	#, tmp194
	negq	%rdx	# tmp187
	salq	$3, %rdx	#, tmp188
	leaq	-8(%rdx,%rsi,8), %rdi	#, tmp191
# sub_64_aligned.c:501:             temp[i + n2 - n1] = num1[i];
	.loc 1 501 37 view .LVU484
	leaq	(%rdx,%rax,8), %r11	#, tmp197
# sub_64_aligned.c:501:             temp[i + n2 - n1] = num1[i];
	.loc 1 501 31 view .LVU485
	movq	%r10, %rdx	# tmp194,
	addq	%rbx, %rdi	# _129, tmp192
# sub_64_aligned.c:501:             temp[i + n2 - n1] = num1[i];
	.loc 1 501 37 view .LVU486
	leaq	(%r8,%r11), %rsi	#, tmp198
# sub_64_aligned.c:501:             temp[i + n2 - n1] = num1[i];
	.loc 1 501 31 view .LVU487
	call	memcpy@PLT	#
.LVL152:
.L103:
	.loc 1 501 31 view .LVU488
.LBE285:
.LBB286:
	.loc 1 507 27 is_stmt 1 view .LVU489
# sub_64_aligned.c:507:         for (int i = 0; i < n2 - n1; i++)
	.loc 1 507 32 is_stmt 0 view .LVU490
	movl	%r14d, %edi	# _2, tmp204
# sub_64_aligned.c:509:             temp[i] = 0;
	.loc 1 509 21 view .LVU491
	xorl	%esi, %esi	#
# sub_64_aligned.c:507:         for (int i = 0; i < n2 - n1; i++)
	.loc 1 507 32 view .LVU492
	subl	%r15d, %edi	# _1, tmp204
# sub_64_aligned.c:509:             temp[i] = 0;
	.loc 1 509 21 view .LVU493
	movslq	%edi, %rdx	# tmp204, tmp205
	movq	%rbx, %rdi	# _129,
	salq	$3, %rdx	#, tmp206
	call	memset@PLT	#
.LVL153:
	.loc 1 509 21 view .LVU494
.LBE286:
	.loc 1 513 9 is_stmt 1 view .LVU495
.LBB287:
.LBI287:
	.loc 5 38 1 view .LVU496
.LBB288:
	.loc 5 40 3 view .LVU497
	.loc 5 41 3 view .LVU498
	.loc 5 43 3 view .LVU499
	.loc 5 45 3 view .LVU500
# /usr/lib/gcc/x86_64-linux-gnu/11/include/mm_malloc.h:45:   if (posix_memalign (&__ptr, __alignment, __size) == 0)
	.loc 5 45 7 is_stmt 0 view .LVU501
	leaq	48(%rsp), %rdi	#, tmp211
	movq	%r12, %rdx	# _26,
	movl	$64, %esi	#,
	call	posix_memalign@PLT	#
.LVL154:
	testl	%eax, %eax	# tmp231
	je	.L127	#,
.LVL155:
.L104:
	.loc 5 45 7 view .LVU502
.LBE288:
.LBE287:
	.loc 1 516 13 is_stmt 1 view .LVU503
	leaq	.LC11(%rip), %rdi	#, tmp212
	call	perror@PLT	#
.LVL156:
	.loc 1 517 13 view .LVU504
	xorl	%edi, %edi	#
	call	exit@PLT	#
.LVL157:
	.p2align 4,,10
	.p2align 3
.L126:
	.loc 1 517 13 is_stmt 0 view .LVU505
	movq	32(%rsp), %r14	# D.39402, _117
.LVL158:
	.loc 1 517 13 view .LVU506
.LBE278:
.LBB294:
	.loc 1 464 9 is_stmt 1 view .LVU507
# sub_64_aligned.c:464:         if (num2 == NULL)
	.loc 1 464 12 is_stmt 0 view .LVU508
	testq	%r14, %r14	# _117
	je	.L99	#,
.LVL159:
.LBB275:
	.loc 1 473 27 is_stmt 1 view .LVU509
	testl	%r15d, %r15d	# _1
	jle	.L101	#,
# sub_64_aligned.c:475:             num2[i] = temp[i];
	.loc 1 475 21 is_stmt 0 view .LVU510
	movq	(%rsp), %rdx	# %sfp, _1
	movq	%rbp, %rsi	# _105,
	movq	%r14, %rdi	# _117,
	salq	$3, %rdx	#, _1
	call	memcpy@PLT	#
.LVL160:
.L101:
	.loc 1 475 21 view .LVU511
.LBE275:
	.loc 1 478 9 is_stmt 1 view .LVU512
# sub_64_aligned.c:478:         *n_2 = n1;
	.loc 1 478 14 is_stmt 0 view .LVU513
	movl	%r15d, (%rbx)	# _1, *n_2_60(D)
	.loc 1 479 9 is_stmt 1 view .LVU514
# sub_64_aligned.c:479:         *num2_base = num2;
	.loc 1 479 20 is_stmt 0 view .LVU515
	movq	%r14, (%r12)	# _117, *num2_base_62(D)
	.loc 1 481 9 is_stmt 1 view .LVU516
.LVL161:
.LBB276:
.LBI276:
	.loc 5 52 1 view .LVU517
.LBB277:
	.loc 5 54 3 view .LVU518
	movq	56(%rsp), %rax	# D.39433, tmp233
	subq	%fs:40, %rax	# MEM[(<address-space-1> long unsigned int *)40B], tmp233
	jne	.L123	#,
	.loc 5 54 3 is_stmt 0 view .LVU519
	movq	%rbp, %rdi	# _105,
.LVL162:
.L122:
	.loc 5 54 3 view .LVU520
.LBE277:
.LBE276:
.LBE294:
# sub_64_aligned.c:532: }
	.loc 1 532 1 view .LVU521
	addq	$72, %rsp	#,
	.cfi_remember_state
	.cfi_def_cfa_offset 56
	popq	%rbx	#
	.cfi_def_cfa_offset 48
	popq	%rbp	#
	.cfi_def_cfa_offset 40
	popq	%r12	#
	.cfi_def_cfa_offset 32
	popq	%r13	#
	.cfi_def_cfa_offset 24
	popq	%r14	#
	.cfi_def_cfa_offset 16
	popq	%r15	#
	.cfi_def_cfa_offset 8
.LBB295:
.LBB289:
.LBB290:
# /usr/lib/gcc/x86_64-linux-gnu/11/include/mm_malloc.h:54:   free (__ptr);
	.loc 5 54 3 view .LVU522
	jmp	free@PLT	#
.LVL163:
	.p2align 4,,10
	.p2align 3
.L127:
	.cfi_restore_state
	.loc 5 54 3 view .LVU523
	movq	48(%rsp), %r15	# D.39414, _141
.LVL164:
	.loc 5 54 3 view .LVU524
.LBE290:
.LBE289:
	.loc 1 514 9 is_stmt 1 view .LVU525
# sub_64_aligned.c:514:         if (num1 == NULL)
	.loc 1 514 12 is_stmt 0 view .LVU526
	testq	%r15, %r15	# _141
	je	.L104	#,
.LVL165:
.LBB292:
	.loc 1 523 27 is_stmt 1 view .LVU527
	testl	%r14d, %r14d	# _2
	jle	.L106	#,
# sub_64_aligned.c:525:             num1[i] = temp[i];
	.loc 1 525 21 is_stmt 0 view .LVU528
	movq	(%rsp), %rdx	# %sfp, _2
	movq	%rbx, %rsi	# _129,
	movq	%r15, %rdi	# _141,
	salq	$3, %rdx	#, _2
	call	memcpy@PLT	#
.LVL166:
.L106:
	.loc 1 525 21 view .LVU529
.LBE292:
	.loc 1 527 9 is_stmt 1 view .LVU530
# sub_64_aligned.c:527:         *n_1 = n2;
	.loc 1 527 14 is_stmt 0 view .LVU531
	movl	%r14d, 0(%rbp)	# _2, *n_1_59(D)
	.loc 1 528 9 is_stmt 1 view .LVU532
# sub_64_aligned.c:528:         *num1_base = num1;
	.loc 1 528 20 is_stmt 0 view .LVU533
	movq	%r15, 0(%r13)	# _141, *num1_base_61(D)
	.loc 1 530 9 is_stmt 1 view .LVU534
.LVL167:
.LBB293:
.LBI289:
	.loc 5 52 1 view .LVU535
.LBB291:
	.loc 5 54 3 view .LVU536
	movq	56(%rsp), %rax	# D.39433, tmp234
	subq	%fs:40, %rax	# MEM[(<address-space-1> long unsigned int *)40B], tmp234
	jne	.L123	#,
	.loc 5 54 3 is_stmt 0 view .LVU537
	movq	%rbx, %rdi	# _129,
	jmp	.L122	#
.LVL168:
.L123:
	.loc 5 54 3 view .LVU538
.LBE291:
.LBE293:
.LBE295:
# sub_64_aligned.c:532: }
	.loc 1 532 1 view .LVU539
	call	__stack_chk_fail@PLT	#
.LVL169:
	.cfi_endproc
.LFE5785:
	.size	make_equidistant, .-make_equidistant
	.section	.rodata.str1.1
.LC12:
	.string	"Error opening event %d: %s\n"
	.text
	.p2align 4
	.globl	initialize_perf
	.type	initialize_perf, @function
initialize_perf:
.LFB5786:
	.loc 1 548 1 is_stmt 1 view -0
	.cfi_startproc
	endbr64	
	.loc 1 550 5 view .LVU541
.LVL170:
.LBB296:
.LBI296:
	.loc 4 57 1 view .LVU542
.LBB297:
	.loc 4 59 3 view .LVU543
.LBE297:
.LBE296:
# sub_64_aligned.c:548: {
	.loc 1 548 1 is_stmt 0 view .LVU544
	pushq	%r13	#
	.cfi_def_cfa_offset 16
	.cfi_offset 13, -16
.LBB302:
.LBB298:
# /usr/include/x86_64-linux-gnu/bits/string_fortified.h:59:   return __builtin___memset_chk (__dest, __ch, __len,
	.loc 4 59 10 view .LVU545
	movl	$96, %ecx	#, tmp116
	xorl	%eax, %eax	# tmp115
.LBE298:
.LBE302:
# sub_64_aligned.c:579:     pe[3].type = PERF_TYPE_SOFTWARE;
	.loc 1 579 16 view .LVU546
	movabsq	$549755813889, %rdx	#, tmp181
# sub_64_aligned.c:548: {
	.loc 1 548 1 view .LVU547
	pushq	%r12	#
	.cfi_def_cfa_offset 24
	.cfi_offset 12, -24
	leaq	fd(%rip), %r12	#, tmp168
	pushq	%rbp	#
	.cfi_def_cfa_offset 32
	.cfi_offset 6, -32
.LBB303:
.LBB299:
# /usr/include/x86_64-linux-gnu/bits/string_fortified.h:59:   return __builtin___memset_chk (__dest, __ch, __len,
	.loc 4 59 10 view .LVU548
	leaq	pe(%rip), %rbp	#, tmp167
.LBE299:
.LBE303:
# sub_64_aligned.c:548: {
	.loc 1 548 1 view .LVU549
	pushq	%rbx	#
	.cfi_def_cfa_offset 40
	.cfi_offset 3, -40
.LBB304:
.LBB300:
# /usr/include/x86_64-linux-gnu/bits/string_fortified.h:59:   return __builtin___memset_chk (__dest, __ch, __len,
	.loc 4 59 10 view .LVU550
	movq	%rbp, %rdi	# tmp167, tmp114
.LBE300:
.LBE304:
# sub_64_aligned.c:588:     pe[5].config = PERF_COUNT_HW_CACHE_L1D | (PERF_COUNT_HW_CACHE_OP_READ << 8) | (PERF_COUNT_HW_CACHE_RESULT_MISS << 16);
	.loc 1 588 18 view .LVU551
	xorl	%ebx, %ebx	# ivtmp.161
# sub_64_aligned.c:548: {
	.loc 1 548 1 view .LVU552
	subq	$8, %rsp	#,
	.cfi_def_cfa_offset 48
.LBB305:
.LBB301:
# /usr/include/x86_64-linux-gnu/bits/string_fortified.h:59:   return __builtin___memset_chk (__dest, __ch, __len,
	.loc 4 59 10 view .LVU553
	rep stosq
.LVL171:
	.loc 4 59 10 view .LVU554
.LBE301:
.LBE305:
	.loc 1 551 5 is_stmt 1 view .LVU555
.LBB306:
	.loc 1 551 10 view .LVU556
	.loc 1 551 23 view .LVU557
	.loc 1 553 9 view .LVU558
.LBE306:
# sub_64_aligned.c:579:     pe[3].type = PERF_TYPE_SOFTWARE;
	.loc 1 579 16 is_stmt 0 view .LVU559
	movq	%rdx, 384+pe(%rip)	# tmp181, MEM <unsigned long> [(unsigned int *)&pe + 384B]
# sub_64_aligned.c:583:     pe[4].type = PERF_TYPE_HW_CACHE;
	.loc 1 583 16 view .LVU560
	addq	$2, %rdx	#, tmp156
.LBB307:
# sub_64_aligned.c:553:         pe[i].size = sizeof(struct perf_event_attr);
	.loc 1 553 20 view .LVU561
	movl	$128, 4+pe(%rip)	#, pe[0].size
	.loc 1 554 9 is_stmt 1 view .LVU562
	.loc 1 555 9 view .LVU563
	.loc 1 556 9 view .LVU564
	.loc 1 557 9 view .LVU565
	.loc 1 558 9 view .LVU566
	.loc 1 559 9 view .LVU567
# sub_64_aligned.c:554:         pe[i].disabled = 1;
	.loc 1 554 24 is_stmt 0 view .LVU568
	movb	$-59, 40+pe(%rip)	#, MEM <unsigned char> [(struct perf_event_attr *)&pe + 40B]
	.loc 1 551 38 is_stmt 1 view .LVU569
.LVL172:
	.loc 1 551 23 view .LVU570
	.loc 1 553 9 view .LVU571
# sub_64_aligned.c:553:         pe[i].size = sizeof(struct perf_event_attr);
	.loc 1 553 20 is_stmt 0 view .LVU572
	movl	$128, 132+pe(%rip)	#, pe[1].size
	.loc 1 554 9 is_stmt 1 view .LVU573
	.loc 1 555 9 view .LVU574
	.loc 1 556 9 view .LVU575
	.loc 1 557 9 view .LVU576
	.loc 1 558 9 view .LVU577
	.loc 1 559 9 view .LVU578
	.loc 1 551 38 view .LVU579
.LVL173:
	.loc 1 551 23 view .LVU580
	.loc 1 553 9 view .LVU581
# sub_64_aligned.c:553:         pe[i].size = sizeof(struct perf_event_attr);
	.loc 1 553 20 is_stmt 0 view .LVU582
	movl	$128, 260+pe(%rip)	#, pe[2].size
	.loc 1 554 9 is_stmt 1 view .LVU583
	.loc 1 555 9 view .LVU584
	.loc 1 556 9 view .LVU585
	.loc 1 557 9 view .LVU586
	.loc 1 558 9 view .LVU587
	.loc 1 559 9 view .LVU588
	.loc 1 551 38 view .LVU589
.LVL174:
	.loc 1 551 23 view .LVU590
	.loc 1 553 9 view .LVU591
	.loc 1 554 9 view .LVU592
	.loc 1 555 9 view .LVU593
	.loc 1 556 9 view .LVU594
	.loc 1 557 9 view .LVU595
	.loc 1 558 9 view .LVU596
	.loc 1 559 9 view .LVU597
# sub_64_aligned.c:554:         pe[i].disabled = 1;
	.loc 1 554 24 is_stmt 0 view .LVU598
	movb	$-59, 424+pe(%rip)	#, MEM <unsigned char> [(struct perf_event_attr *)&pe + 424B]
	.loc 1 551 38 is_stmt 1 view .LVU599
.LVL175:
	.loc 1 551 23 view .LVU600
	.loc 1 553 9 view .LVU601
	.loc 1 554 9 view .LVU602
	.loc 1 555 9 view .LVU603
	.loc 1 556 9 view .LVU604
	.loc 1 557 9 view .LVU605
	.loc 1 558 9 view .LVU606
	.loc 1 559 9 view .LVU607
# sub_64_aligned.c:554:         pe[i].disabled = 1;
	.loc 1 554 24 is_stmt 0 view .LVU608
	movb	$-59, 552+pe(%rip)	#, MEM <unsigned char> [(struct perf_event_attr *)&pe + 552B]
	.loc 1 551 38 is_stmt 1 view .LVU609
.LVL176:
	.loc 1 551 23 view .LVU610
	.loc 1 553 9 view .LVU611
	.loc 1 554 9 view .LVU612
	.loc 1 555 9 view .LVU613
	.loc 1 556 9 view .LVU614
	.loc 1 557 9 view .LVU615
	.loc 1 558 9 view .LVU616
	.loc 1 559 9 view .LVU617
# sub_64_aligned.c:554:         pe[i].disabled = 1;
	.loc 1 554 24 is_stmt 0 view .LVU618
	movb	$-59, 680+pe(%rip)	#, MEM <unsigned char> [(struct perf_event_attr *)&pe + 680B]
	.loc 1 551 38 is_stmt 1 view .LVU619
.LVL177:
	.loc 1 551 23 view .LVU620
.LBE307:
	.loc 1 563 5 view .LVU621
	.loc 1 564 5 view .LVU622
	.loc 1 567 5 view .LVU623
	.loc 1 568 5 view .LVU624
# sub_64_aligned.c:568:     pe[1].config = PERF_COUNT_HW_INSTRUCTIONS;
	.loc 1 568 18 is_stmt 0 view .LVU625
	movq	$1, 136+pe(%rip)	#, pe[1].config
	.loc 1 569 5 is_stmt 1 view .LVU626
.LBB308:
# sub_64_aligned.c:554:         pe[i].disabled = 1;
	.loc 1 554 24 is_stmt 0 view .LVU627
	movb	$-27, 168+pe(%rip)	#, MEM <unsigned char> [(struct perf_event_attr *)&pe + 168B]
.LBE308:
	.loc 1 570 5 is_stmt 1 view .LVU628
	.loc 1 573 5 view .LVU629
	.loc 1 574 5 view .LVU630
# sub_64_aligned.c:574:     pe[2].config = PERF_COUNT_HW_INSTRUCTIONS;
	.loc 1 574 18 is_stmt 0 view .LVU631
	movq	$1, 264+pe(%rip)	#, pe[2].config
	.loc 1 575 5 is_stmt 1 view .LVU632
	.loc 1 576 5 view .LVU633
.LBB309:
# sub_64_aligned.c:554:         pe[i].disabled = 1;
	.loc 1 554 24 is_stmt 0 view .LVU634
	movb	$-43, 296+pe(%rip)	#, MEM <unsigned char> [(struct perf_event_attr *)&pe + 296B]
.LBE309:
	.loc 1 579 5 is_stmt 1 view .LVU635
	.loc 1 580 5 view .LVU636
# sub_64_aligned.c:580:     pe[3].config = PERF_COUNT_SW_PAGE_FAULTS;
	.loc 1 580 18 is_stmt 0 view .LVU637
	movq	$2, 392+pe(%rip)	#, pe[3].config
	.loc 1 583 5 is_stmt 1 view .LVU638
# sub_64_aligned.c:583:     pe[4].type = PERF_TYPE_HW_CACHE;
	.loc 1 583 16 is_stmt 0 view .LVU639
	movq	%rdx, 512+pe(%rip)	# tmp156, MEM <unsigned long> [(unsigned int *)&pe + 512B]
	.loc 1 584 5 is_stmt 1 view .LVU640
	.loc 1 587 5 view .LVU641
	.loc 1 588 5 view .LVU642
# sub_64_aligned.c:587:     pe[5].type = PERF_TYPE_HW_CACHE;
	.loc 1 587 16 is_stmt 0 view .LVU643
	movq	%rdx, 640+pe(%rip)	# tmp156, MEM <unsigned long> [(unsigned int *)&pe + 640B]
# sub_64_aligned.c:588:     pe[5].config = PERF_COUNT_HW_CACHE_L1D | (PERF_COUNT_HW_CACHE_OP_READ << 8) | (PERF_COUNT_HW_CACHE_RESULT_MISS << 16);
	.loc 1 588 18 view .LVU644
	movq	$65536, 648+pe(%rip)	#, pe[5].config
	.loc 1 591 5 is_stmt 1 view .LVU645
.LBB310:
	.loc 1 591 10 view .LVU646
.LVL178:
	.loc 1 591 23 view .LVU647
	.p2align 4,,10
	.p2align 3
.L130:
	.loc 1 593 9 view .LVU648
.LBB311:
.LBI311:
	.loc 1 114 6 view .LVU649
.LBB312:
	.loc 1 116 5 view .LVU650
	.loc 1 118 5 view .LVU651
# sub_64_aligned.c:118:     ret = syscall(__NR_perf_event_open, hw_event, pid, cpu, group_fd, flags);
	.loc 1 118 11 is_stmt 0 view .LVU652
	movq	%rbx, %rsi	# ivtmp.161, tmp161
	movl	CORE_NO(%rip), %ecx	# CORE_NO,
	xorl	%r9d, %r9d	#
	xorl	%edx, %edx	#
	salq	$7, %rsi	#, tmp161
	movl	$-1, %r8d	#,
	movl	$298, %edi	#,
	xorl	%eax, %eax	#
	addq	%rbp, %rsi	# tmp167, tmp162
	call	syscall@PLT	#
.LVL179:
	.loc 1 119 5 is_stmt 1 view .LVU653
	.loc 1 119 5 is_stmt 0 view .LVU654
.LBE312:
.LBE311:
# sub_64_aligned.c:593:         fd[i] = perf_event_open(&pe[i], 0, CORE_NO, -1, 0);
	.loc 1 593 15 view .LVU655
	movl	%eax, (%r12,%rbx,4)	# _36, MEM[(int *)&fd + ivtmp.161_52 * 4]
	.loc 1 594 9 is_stmt 1 view .LVU656
# sub_64_aligned.c:594:         if (fd[i] == -1)
	.loc 1 594 12 is_stmt 0 view .LVU657
	cmpl	$-1, %eax	#, _36
	je	.L133	#,
	.loc 1 591 38 is_stmt 1 discriminator 2 view .LVU658
.LVL180:
	.loc 1 591 23 discriminator 2 view .LVU659
	addq	$1, %rbx	#, ivtmp.161
.LVL181:
	.loc 1 591 23 is_stmt 0 discriminator 2 view .LVU660
	cmpq	$6, %rbx	#, ivtmp.161
	jne	.L130	#,
.LBE310:
# sub_64_aligned.c:600: }
	.loc 1 600 1 view .LVU661
	addq	$8, %rsp	#,
	.cfi_remember_state
	.cfi_def_cfa_offset 40
	popq	%rbx	#
	.cfi_def_cfa_offset 32
	popq	%rbp	#
	.cfi_def_cfa_offset 24
	popq	%r12	#
	.cfi_def_cfa_offset 16
	popq	%r13	#
	.cfi_def_cfa_offset 8
	ret	
.LVL182:
.L133:
	.cfi_restore_state
.LBB317:
	.loc 1 596 13 is_stmt 1 view .LVU662
# sub_64_aligned.c:596:             fprintf(stderr, "Error opening event %d: %s\n", i, strerror(errno));
	.loc 1 596 73 is_stmt 0 view .LVU663
	call	__errno_location@PLT	#
.LVL183:
# sub_64_aligned.c:596:             fprintf(stderr, "Error opening event %d: %s\n", i, strerror(errno));
	.loc 1 596 13 view .LVU664
	movl	(%rax), %edi	# *_3,
	call	strerror@PLT	#
.LVL184:
.LBB313:
.LBI313:
	.loc 6 103 1 is_stmt 1 view .LVU665
.LBB314:
	.loc 6 105 3 view .LVU666
# /usr/include/x86_64-linux-gnu/bits/stdio2.h:105:   return __fprintf_chk (__stream, __USE_FORTIFY_LEVEL - 1, __fmt,
	.loc 6 105 10 is_stmt 0 view .LVU667
	movq	stderr(%rip), %rdi	# stderr,
	movl	%ebx, %ecx	# i,
	leaq	.LC12(%rip), %rdx	#, tmp166
.LBE314:
.LBE313:
# sub_64_aligned.c:596:             fprintf(stderr, "Error opening event %d: %s\n", i, strerror(errno));
	.loc 1 596 13 view .LVU668
	movq	%rax, %r8	#, tmp178
.LBB316:
.LBB315:
# /usr/include/x86_64-linux-gnu/bits/stdio2.h:105:   return __fprintf_chk (__stream, __USE_FORTIFY_LEVEL - 1, __fmt,
	.loc 6 105 10 view .LVU669
	movl	$1, %esi	#,
	xorl	%eax, %eax	#
	call	__fprintf_chk@PLT	#
.LVL185:
	.loc 6 105 10 view .LVU670
.LBE315:
.LBE316:
	.loc 1 597 13 is_stmt 1 view .LVU671
	movl	$1, %edi	#,
	call	exit@PLT	#
.LVL186:
.LBE317:
	.cfi_endproc
.LFE5786:
	.size	initialize_perf, .-initialize_perf
	.section	.rodata.str1.1
.LC13:
	.string	"w"
.LC14:
	.string	"%s,"
	.text
	.p2align 4
	.globl	open_file
	.type	open_file, @function
open_file:
.LVL187:
.LFB5787:
	.loc 1 603 1 view -0
	.cfi_startproc
	.loc 1 603 1 is_stmt 0 view .LVU673
	endbr64	
	.loc 1 604 5 is_stmt 1 view .LVU674
# sub_64_aligned.c:603: {
	.loc 1 603 1 is_stmt 0 view .LVU675
	pushq	%r13	#
	.cfi_def_cfa_offset 16
	.cfi_offset 13, -16
# sub_64_aligned.c:604:     FILE *file = fopen(filename, "w");
	.loc 1 604 18 view .LVU676
	leaq	.LC13(%rip), %rsi	#, tmp88
# sub_64_aligned.c:603: {
	.loc 1 603 1 view .LVU677
	pushq	%r12	#
	.cfi_def_cfa_offset 24
	.cfi_offset 12, -24
	pushq	%rbp	#
	.cfi_def_cfa_offset 32
	.cfi_offset 6, -32
	pushq	%rbx	#
	.cfi_def_cfa_offset 40
	.cfi_offset 3, -40
	subq	$8, %rsp	#,
	.cfi_def_cfa_offset 48
# sub_64_aligned.c:604:     FILE *file = fopen(filename, "w");
	.loc 1 604 18 view .LVU678
	call	fopen@PLT	#
.LVL188:
	.loc 1 606 5 is_stmt 1 view .LVU679
# sub_64_aligned.c:606:     if (file == NULL)
	.loc 1 606 8 is_stmt 0 view .LVU680
	testq	%rax, %rax	# <retval>
	je	.L139	#,
	leaq	event_names(%rip), %rbx	#, ivtmp.177
	movq	%rax, %r12	# tmp94, <retval>
	leaq	.LC14(%rip), %rbp	#, tmp92
	leaq	48(%rbx), %r13	#, _18
.LVL189:
	.p2align 4,,10
	.p2align 3
.L136:
.LBB323:
	.loc 1 615 9 is_stmt 1 discriminator 3 view .LVU681
.LBB324:
.LBI324:
	.loc 6 103 1 discriminator 3 view .LVU682
.LBB325:
	.loc 6 105 3 discriminator 3 view .LVU683
# /usr/include/x86_64-linux-gnu/bits/stdio2.h:105:   return __fprintf_chk (__stream, __USE_FORTIFY_LEVEL - 1, __fmt,
	.loc 6 105 10 is_stmt 0 discriminator 3 view .LVU684
	movq	(%rbx), %rcx	# MEM[(const char * *)_12],
	movq	%rbp, %rdx	# tmp92,
	movl	$1, %esi	#,
	movq	%r12, %rdi	# <retval>,
	xorl	%eax, %eax	#
.LBE325:
.LBE324:
# sub_64_aligned.c:613:     for (int j = 0; j < MAX_EVENTS; j++)
	.loc 1 613 23 discriminator 3 view .LVU685
	addq	$8, %rbx	#, ivtmp.177
.LVL190:
.LBB327:
.LBB326:
# /usr/include/x86_64-linux-gnu/bits/stdio2.h:105:   return __fprintf_chk (__stream, __USE_FORTIFY_LEVEL - 1, __fmt,
	.loc 6 105 10 discriminator 3 view .LVU686
	call	__fprintf_chk@PLT	#
.LVL191:
	.loc 6 105 10 discriminator 3 view .LVU687
.LBE326:
.LBE327:
	.loc 1 613 38 is_stmt 1 discriminator 3 view .LVU688
	.loc 1 613 23 discriminator 3 view .LVU689
	cmpq	%r13, %rbx	# _18, ivtmp.177
	jne	.L136	#,
.LBE323:
	.loc 1 617 5 view .LVU690
.LVL192:
.LBB328:
.LBI328:
	.loc 6 103 1 view .LVU691
.LBB329:
	.loc 6 105 3 view .LVU692
# /usr/include/x86_64-linux-gnu/bits/stdio2.h:105:   return __fprintf_chk (__stream, __USE_FORTIFY_LEVEL - 1, __fmt,
	.loc 6 105 10 is_stmt 0 view .LVU693
	movq	%r12, %rsi	# <retval>,
	movl	$10, %edi	#,
	call	fputc@PLT	#
.LVL193:
	.loc 6 105 10 view .LVU694
.LBE329:
.LBE328:
	.loc 1 618 5 is_stmt 1 view .LVU695
# sub_64_aligned.c:619: }
	.loc 1 619 1 is_stmt 0 view .LVU696
	addq	$8, %rsp	#,
	.cfi_remember_state
	.cfi_def_cfa_offset 40
	movq	%r12, %rax	# <retval>,
	popq	%rbx	#
	.cfi_def_cfa_offset 32
	popq	%rbp	#
	.cfi_def_cfa_offset 24
	popq	%r12	#
	.cfi_def_cfa_offset 16
.LVL194:
	.loc 1 619 1 view .LVU697
	popq	%r13	#
	.cfi_def_cfa_offset 8
	ret	
.L139:
	.cfi_restore_state
	.loc 1 619 1 view .LVU698
	call	open_file.part.0	#
.LVL195:
	.loc 1 619 1 view .LVU699
	.cfi_endproc
.LFE5787:
	.size	open_file, .-open_file
	.section	.rodata.str1.1
.LC15:
	.string	"Error reading counter value"
	.text
	.p2align 4
	.globl	read_perf
	.type	read_perf, @function
read_perf:
.LVL196:
.LFB5788:
	.loc 1 622 1 is_stmt 1 view -0
	.cfi_startproc
	.loc 1 622 1 is_stmt 0 view .LVU701
	endbr64	
	.loc 1 623 5 is_stmt 1 view .LVU702
.LBB338:
	.loc 1 623 10 view .LVU703
.LVL197:
	.loc 1 623 23 view .LVU704
.LBE338:
# sub_64_aligned.c:622: {
	.loc 1 622 1 is_stmt 0 view .LVU705
	pushq	%r12	#
	.cfi_def_cfa_offset 16
	.cfi_offset 12, -16
	pushq	%rbp	#
	.cfi_def_cfa_offset 24
	.cfi_offset 6, -24
	movq	%rdi, %rbp	# tmp91, ivtmp.188
	pushq	%rbx	#
	.cfi_def_cfa_offset 32
	.cfi_offset 3, -32
	leaq	fd(%rip), %rbx	#, ivtmp.187
	leaq	24(%rbx), %r12	#, _7
.LVL198:
	.p2align 4,,10
	.p2align 3
.L142:
.LBB341:
	.loc 1 625 9 is_stmt 1 view .LVU706
.LBB339:
.LBI339:
	.loc 3 36 1 view .LVU707
.LBB340:
	.loc 3 38 3 view .LVU708
# /usr/include/x86_64-linux-gnu/bits/unistd.h:38:   return __glibc_fortify (read, __nbytes, sizeof (char),
	.loc 3 38 10 is_stmt 0 view .LVU709
	movl	(%rbx), %edi	# MEM[(int *)_13],
	movl	$8, %edx	#,
	movq	%rbp, %rsi	# ivtmp.188,
	call	read@PLT	#
.LVL199:
	.loc 3 38 10 view .LVU710
.LBE340:
.LBE339:
# sub_64_aligned.c:625:         if (read(fd[j], &values[j], sizeof(uint64_t)) == -1)
	.loc 1 625 12 view .LVU711
	cmpq	$-1, %rax	#, tmp92
	je	.L145	#,
	.loc 1 623 38 is_stmt 1 discriminator 2 view .LVU712
.LVL200:
	.loc 1 623 23 discriminator 2 view .LVU713
	addq	$4, %rbx	#, ivtmp.187
.LVL201:
	.loc 1 623 23 is_stmt 0 discriminator 2 view .LVU714
	addq	$8, %rbp	#, ivtmp.188
	cmpq	%r12, %rbx	# _7, ivtmp.187
	jne	.L142	#,
.LBE341:
# sub_64_aligned.c:631: }
	.loc 1 631 1 view .LVU715
	popq	%rbx	#
	.cfi_remember_state
	.cfi_def_cfa_offset 24
.LVL202:
	.loc 1 631 1 view .LVU716
	popq	%rbp	#
	.cfi_def_cfa_offset 16
	popq	%r12	#
	.cfi_def_cfa_offset 8
	ret	
.LVL203:
.L145:
	.cfi_restore_state
.LBB342:
.LBI342:
	.loc 1 621 6 is_stmt 1 view .LVU717
.LBB343:
	.loc 1 627 13 view .LVU718
	leaq	.LC15(%rip), %rdi	#, tmp90
	call	perror@PLT	#
.LVL204:
	.loc 1 628 13 view .LVU719
	movl	$1, %edi	#,
	call	exit@PLT	#
.LVL205:
.LBE343:
.LBE342:
	.cfi_endproc
.LFE5788:
	.size	read_perf, .-read_perf
	.section	.rodata.str1.1
.LC16:
	.string	"%llu,"
	.text
	.p2align 4
	.globl	write_perf
	.type	write_perf, @function
write_perf:
.LVL206:
.LFB5789:
	.loc 1 634 1 view -0
	.cfi_startproc
	.loc 1 634 1 is_stmt 0 view .LVU721
	endbr64	
	pushq	%r13	#
	.cfi_def_cfa_offset 16
	.cfi_offset 13, -16
	leaq	48(%rsi), %r13	#, _20
	pushq	%r12	#
	.cfi_def_cfa_offset 24
	.cfi_offset 12, -24
	leaq	.LC16(%rip), %r12	#, tmp89
	pushq	%rbp	#
	.cfi_def_cfa_offset 32
	.cfi_offset 6, -32
	movq	%rdi, %rbp	# tmp90, file
	.loc 1 635 5 is_stmt 1 view .LVU722
.LBB349:
	.loc 1 635 10 view .LVU723
.LVL207:
	.loc 1 635 23 view .LVU724
.LBE349:
# sub_64_aligned.c:634: {
	.loc 1 634 1 is_stmt 0 view .LVU725
	pushq	%rbx	#
	.cfi_def_cfa_offset 40
	.cfi_offset 3, -40
	movq	%rsi, %rbx	# tmp91, ivtmp.198
	subq	$8, %rsp	#,
	.cfi_def_cfa_offset 48
.LVL208:
	.p2align 4,,10
	.p2align 3
.L147:
.LBB354:
	.loc 1 637 9 is_stmt 1 discriminator 3 view .LVU726
.LBB350:
.LBI350:
	.loc 6 103 1 discriminator 3 view .LVU727
.LBB351:
	.loc 6 105 3 discriminator 3 view .LVU728
# /usr/include/x86_64-linux-gnu/bits/stdio2.h:105:   return __fprintf_chk (__stream, __USE_FORTIFY_LEVEL - 1, __fmt,
	.loc 6 105 10 is_stmt 0 discriminator 3 view .LVU729
	movq	(%rbx), %rcx	# MEM[(long long int *)_5],
	movq	%r12, %rdx	# tmp89,
	movl	$1, %esi	#,
	movq	%rbp, %rdi	# file,
	xorl	%eax, %eax	#
.LBE351:
.LBE350:
# sub_64_aligned.c:635:     for (int j = 0; j < MAX_EVENTS; j++)
	.loc 1 635 23 discriminator 3 view .LVU730
	addq	$8, %rbx	#, ivtmp.198
.LVL209:
.LBB353:
.LBB352:
# /usr/include/x86_64-linux-gnu/bits/stdio2.h:105:   return __fprintf_chk (__stream, __USE_FORTIFY_LEVEL - 1, __fmt,
	.loc 6 105 10 discriminator 3 view .LVU731
	call	__fprintf_chk@PLT	#
.LVL210:
	.loc 6 105 10 discriminator 3 view .LVU732
.LBE352:
.LBE353:
	.loc 1 635 38 is_stmt 1 discriminator 3 view .LVU733
	.loc 1 635 23 discriminator 3 view .LVU734
	cmpq	%r13, %rbx	# _20, ivtmp.198
	jne	.L147	#,
.LBE354:
	.loc 1 639 5 view .LVU735
.LVL211:
.LBB355:
.LBI355:
	.loc 6 103 1 view .LVU736
.LBB356:
	.loc 6 105 3 view .LVU737
.LBE356:
.LBE355:
# sub_64_aligned.c:642: }
	.loc 1 642 1 is_stmt 0 view .LVU738
	addq	$8, %rsp	#,
	.cfi_def_cfa_offset 40
.LBB359:
.LBB357:
# /usr/include/x86_64-linux-gnu/bits/stdio2.h:105:   return __fprintf_chk (__stream, __USE_FORTIFY_LEVEL - 1, __fmt,
	.loc 6 105 10 view .LVU739
	movq	%rbp, %rsi	# file,
	movl	$10, %edi	#,
.LBE357:
.LBE359:
# sub_64_aligned.c:642: }
	.loc 1 642 1 view .LVU740
	popq	%rbx	#
	.cfi_def_cfa_offset 32
	popq	%rbp	#
	.cfi_def_cfa_offset 24
.LVL212:
	.loc 1 642 1 view .LVU741
	popq	%r12	#
	.cfi_def_cfa_offset 16
	popq	%r13	#
	.cfi_def_cfa_offset 8
.LVL213:
.LBB360:
.LBB358:
# /usr/include/x86_64-linux-gnu/bits/stdio2.h:105:   return __fprintf_chk (__stream, __USE_FORTIFY_LEVEL - 1, __fmt,
	.loc 6 105 10 view .LVU742
	jmp	fputc@PLT	#
.LVL214:
	.loc 6 105 10 view .LVU743
.LBE358:
.LBE360:
	.cfi_endproc
.LFE5789:
	.size	write_perf, .-write_perf
	.p2align 4
	.globl	start_perf
	.type	start_perf, @function
start_perf:
.LFB5790:
	.loc 1 645 1 is_stmt 1 view -0
	.cfi_startproc
	endbr64	
	.loc 1 646 5 view .LVU745
.LBB362:
	.loc 1 646 10 view .LVU746
.LVL215:
	.loc 1 646 23 view .LVU747
.LBE362:
# sub_64_aligned.c:645: {
	.loc 1 645 1 is_stmt 0 view .LVU748
	pushq	%rbp	#
	.cfi_def_cfa_offset 16
	.cfi_offset 6, -16
	pushq	%rbx	#
	.cfi_def_cfa_offset 24
	.cfi_offset 3, -24
	leaq	fd(%rip), %rbx	#, ivtmp.208
	leaq	24(%rbx), %rbp	#, _17
	subq	$8, %rsp	#,
	.cfi_def_cfa_offset 32
.LVL216:
	.p2align 4,,10
	.p2align 3
.L151:
.LBB363:
	.loc 1 648 9 is_stmt 1 discriminator 3 view .LVU749
	movl	(%rbx), %edi	# MEM[(int *)_14],
	xorl	%edx, %edx	#
	movl	$9219, %esi	#,
	xorl	%eax, %eax	#
# sub_64_aligned.c:646:     for (int j = 0; j < MAX_EVENTS; j++)
	.loc 1 646 23 is_stmt 0 discriminator 3 view .LVU750
	addq	$4, %rbx	#, ivtmp.208
.LVL217:
# sub_64_aligned.c:648:         ioctl(fd[j], PERF_EVENT_IOC_RESET, 0);
	.loc 1 648 9 discriminator 3 view .LVU751
	call	ioctl@PLT	#
.LVL218:
	.loc 1 649 9 is_stmt 1 discriminator 3 view .LVU752
	movl	-4(%rbx), %edi	# MEM[(int *)_14],
	xorl	%edx, %edx	#
	movl	$9216, %esi	#,
	xorl	%eax, %eax	#
	call	ioctl@PLT	#
.LVL219:
	.loc 1 646 38 discriminator 3 view .LVU753
	.loc 1 646 23 discriminator 3 view .LVU754
	cmpq	%rbp, %rbx	# _17, ivtmp.208
	jne	.L151	#,
.LBE363:
# sub_64_aligned.c:651: }
	.loc 1 651 1 is_stmt 0 view .LVU755
	addq	$8, %rsp	#,
	.cfi_def_cfa_offset 24
	popq	%rbx	#
	.cfi_def_cfa_offset 16
	popq	%rbp	#
	.cfi_def_cfa_offset 8
	ret	
	.cfi_endproc
.LFE5790:
	.size	start_perf, .-start_perf
	.section	.rodata.str1.1
.LC17:
	.string	"Error disabling counter"
	.text
	.p2align 4
	.globl	stop_perf
	.type	stop_perf, @function
stop_perf:
.LFB5791:
	.loc 1 654 1 is_stmt 1 view -0
	.cfi_startproc
	endbr64	
	.loc 1 655 5 view .LVU757
.LBB369:
	.loc 1 655 10 view .LVU758
.LVL220:
	.loc 1 655 23 view .LVU759
.LBE369:
# sub_64_aligned.c:654: {
	.loc 1 654 1 is_stmt 0 view .LVU760
	pushq	%rbp	#
	.cfi_def_cfa_offset 16
	.cfi_offset 6, -16
	pushq	%rbx	#
	.cfi_def_cfa_offset 24
	.cfi_offset 3, -24
	leaq	fd(%rip), %rbx	#, ivtmp.218
	leaq	24(%rbx), %rbp	#, _17
	subq	$8, %rsp	#,
	.cfi_def_cfa_offset 32
.LVL221:
	.p2align 4,,10
	.p2align 3
.L156:
.LBB370:
	.loc 1 657 9 is_stmt 1 view .LVU761
# sub_64_aligned.c:657:         if (ioctl(fd[j], PERF_EVENT_IOC_DISABLE, 0) == -1)
	.loc 1 657 13 is_stmt 0 view .LVU762
	movl	(%rbx), %edi	# MEM[(int *)_15],
	xorl	%edx, %edx	#
	xorl	%eax, %eax	#
	movl	$9217, %esi	#,
	call	ioctl@PLT	#
.LVL222:
# sub_64_aligned.c:657:         if (ioctl(fd[j], PERF_EVENT_IOC_DISABLE, 0) == -1)
	.loc 1 657 12 view .LVU763
	cmpl	$-1, %eax	#, tmp88
	je	.L159	#,
	.loc 1 655 38 is_stmt 1 discriminator 2 view .LVU764
.LVL223:
	.loc 1 655 23 discriminator 2 view .LVU765
	addq	$4, %rbx	#, ivtmp.218
.LVL224:
	.loc 1 655 23 is_stmt 0 discriminator 2 view .LVU766
	cmpq	%rbp, %rbx	# _17, ivtmp.218
	jne	.L156	#,
.LBE370:
# sub_64_aligned.c:663: }
	.loc 1 663 1 view .LVU767
	addq	$8, %rsp	#,
	.cfi_remember_state
	.cfi_def_cfa_offset 24
	popq	%rbx	#
	.cfi_def_cfa_offset 16
.LVL225:
	.loc 1 663 1 view .LVU768
	popq	%rbp	#
	.cfi_def_cfa_offset 8
	ret	
.LVL226:
.L159:
	.cfi_restore_state
.LBB371:
.LBI371:
	.loc 1 653 6 is_stmt 1 view .LVU769
.LBB372:
	.loc 1 659 13 view .LVU770
	leaq	.LC17(%rip), %rdi	#, tmp87
	call	perror@PLT	#
.LVL227:
	.loc 1 660 13 view .LVU771
	movl	$1, %edi	#,
	call	exit@PLT	#
.LVL228:
.LBE372:
.LBE371:
	.cfi_endproc
.LFE5791:
	.size	stop_perf, .-stop_perf
	.section	.rodata.str1.1
.LC18:
	.string	"Error getting start time"
	.text
	.p2align 4
	.globl	start_timespec
	.type	start_timespec, @function
start_timespec:
.LVL229:
.LFB5792:
	.loc 1 666 1 view -0
	.cfi_startproc
	.loc 1 666 1 is_stmt 0 view .LVU773
	endbr64	
	.loc 1 667 5 is_stmt 1 view .LVU774
	.loc 1 668 5 view .LVU775
# sub_64_aligned.c:667:     start->tv_sec = 0;
	.loc 1 667 19 is_stmt 0 view .LVU776
	pxor	%xmm0, %xmm0	# tmp84
# sub_64_aligned.c:666: {
	.loc 1 666 1 view .LVU777
	subq	$8, %rsp	#,
	.cfi_def_cfa_offset 16
# sub_64_aligned.c:666: {
	.loc 1 666 1 view .LVU778
	movq	%rdi, %rsi	# tmp86, start
# sub_64_aligned.c:667:     start->tv_sec = 0;
	.loc 1 667 19 view .LVU779
	movups	%xmm0, (%rdi)	# tmp84, MEM <vector(2) long int> [(long int *)start_3(D)]
	.loc 1 669 5 is_stmt 1 view .LVU780
# sub_64_aligned.c:669:     if (clock_gettime(CLOCK_MONOTONIC_RAW, start) == -1)
	.loc 1 669 9 is_stmt 0 view .LVU781
	movl	$4, %edi	#,
.LVL230:
	.loc 1 669 9 view .LVU782
	call	clock_gettime@PLT	#
.LVL231:
# sub_64_aligned.c:669:     if (clock_gettime(CLOCK_MONOTONIC_RAW, start) == -1)
	.loc 1 669 8 view .LVU783
	cmpl	$-1, %eax	#, tmp87
	je	.L163	#,
# sub_64_aligned.c:674: }
	.loc 1 674 1 view .LVU784
	addq	$8, %rsp	#,
	.cfi_remember_state
	.cfi_def_cfa_offset 8
	ret	
.L163:
	.cfi_restore_state
	.loc 1 671 9 is_stmt 1 view .LVU785
	leaq	.LC18(%rip), %rdi	#, tmp85
	call	perror@PLT	#
.LVL232:
	.loc 1 672 9 view .LVU786
	movl	$1, %edi	#,
	call	exit@PLT	#
.LVL233:
	.cfi_endproc
.LFE5792:
	.size	start_timespec, .-start_timespec
	.section	.rodata.str1.1
.LC19:
	.string	"Error getting end time"
	.text
	.p2align 4
	.globl	stop_timespec
	.type	stop_timespec, @function
stop_timespec:
.LVL234:
.LFB5793:
	.loc 1 687 1 view -0
	.cfi_startproc
	.loc 1 687 1 is_stmt 0 view .LVU788
	endbr64	
	.loc 1 689 5 is_stmt 1 view .LVU789
	.loc 1 690 5 view .LVU790
# sub_64_aligned.c:689:     end->tv_sec = 0;
	.loc 1 689 17 is_stmt 0 view .LVU791
	pxor	%xmm0, %xmm0	# tmp84
# sub_64_aligned.c:687: {
	.loc 1 687 1 view .LVU792
	subq	$8, %rsp	#,
	.cfi_def_cfa_offset 16
# sub_64_aligned.c:687: {
	.loc 1 687 1 view .LVU793
	movq	%rdi, %rsi	# tmp86, end
# sub_64_aligned.c:689:     end->tv_sec = 0;
	.loc 1 689 17 view .LVU794
	movups	%xmm0, (%rdi)	# tmp84, MEM <vector(2) long int> [(long int *)end_3(D)]
	.loc 1 691 5 is_stmt 1 view .LVU795
# sub_64_aligned.c:691:     if (clock_gettime(CLOCK_MONOTONIC_RAW, end) == -1)
	.loc 1 691 9 is_stmt 0 view .LVU796
	movl	$4, %edi	#,
.LVL235:
	.loc 1 691 9 view .LVU797
	call	clock_gettime@PLT	#
.LVL236:
# sub_64_aligned.c:691:     if (clock_gettime(CLOCK_MONOTONIC_RAW, end) == -1)
	.loc 1 691 8 view .LVU798
	cmpl	$-1, %eax	#, tmp87
	je	.L167	#,
# sub_64_aligned.c:696: }
	.loc 1 696 1 view .LVU799
	addq	$8, %rsp	#,
	.cfi_remember_state
	.cfi_def_cfa_offset 8
	ret	
.L167:
	.cfi_restore_state
	.loc 1 693 9 is_stmt 1 view .LVU800
	leaq	.LC19(%rip), %rdi	#, tmp85
	call	perror@PLT	#
.LVL237:
	.loc 1 694 9 view .LVU801
	movl	$1, %edi	#,
	call	exit@PLT	#
.LVL238:
	.cfi_endproc
.LFE5793:
	.size	stop_timespec, .-stop_timespec
	.p2align 4
	.globl	calculate_time
	.type	calculate_time, @function
calculate_time:
.LVL239:
.LFB5794:
	.loc 1 699 1 view -0
	.cfi_startproc
	.loc 1 699 1 is_stmt 0 view .LVU803
	endbr64	
	.loc 1 701 5 is_stmt 1 view .LVU804
# sub_64_aligned.c:701:     long long seconds = end.tv_sec - start.tv_sec;
	.loc 1 701 15 is_stmt 0 view .LVU805
	subq	%rdi, %rdx	# tmp105, seconds
.LVL240:
	.loc 1 702 5 is_stmt 1 view .LVU806
	.loc 1 705 5 view .LVU807
# sub_64_aligned.c:705:     if (nanoseconds < 0)
	.loc 1 705 8 is_stmt 0 view .LVU808
	subq	%rsi, %rcx	# tmp106, nanoseconds
.LVL241:
	.loc 1 705 8 view .LVU809
	jns	.L169	#,
	.loc 1 707 9 is_stmt 1 view .LVU810
# sub_64_aligned.c:707:         seconds--;
	.loc 1 707 16 is_stmt 0 view .LVU811
	subq	$1, %rdx	#, seconds
.LVL242:
	.loc 1 708 9 is_stmt 1 view .LVU812
# sub_64_aligned.c:708:         nanoseconds += 1000000000; // 1 second in nanoseconds
	.loc 1 708 21 is_stmt 0 view .LVU813
	addq	$1000000000, %rcx	#, nanoseconds
.LVL243:
.L169:
	.loc 1 712 5 is_stmt 1 view .LVU814
# sub_64_aligned.c:712:     return (seconds * 1000000000LL) + nanoseconds;
	.loc 1 712 21 is_stmt 0 view .LVU815
	imulq	$1000000000, %rdx, %rdx	#, seconds, tmp97
.LVL244:
# sub_64_aligned.c:712:     return (seconds * 1000000000LL) + nanoseconds;
	.loc 1 712 37 view .LVU816
	pxor	%xmm0, %xmm0	# tmp96
	addq	%rcx, %rdx	# nanoseconds, tmp98
	cvtsi2sdq	%rdx, %xmm0	# tmp98, tmp96
# sub_64_aligned.c:713: }
	.loc 1 713 1 view .LVU817
	ret	
	.cfi_endproc
.LFE5794:
	.size	calculate_time, .-calculate_time
	.p2align 4
	.globl	check_result
	.type	check_result, @function
check_result:
.LVL245:
.LFB5795:
	.loc 1 716 1 is_stmt 1 view -0
	.cfi_startproc
	.loc 1 716 1 is_stmt 0 view .LVU819
	endbr64	
	.loc 1 718 5 is_stmt 1 view .LVU820
# sub_64_aligned.c:716: {
	.loc 1 716 1 is_stmt 0 view .LVU821
	pushq	%r13	#
	.cfi_def_cfa_offset 16
	.cfi_offset 13, -16
	pushq	%r12	#
	.cfi_def_cfa_offset 24
	.cfi_offset 12, -24
	movl	%edx, %r12d	# tmp128, result_size
	pushq	%rbp	#
	.cfi_def_cfa_offset 32
	.cfi_offset 6, -32
	movq	%rsi, %rbp	# tmp127, result_gmp
	pushq	%rbx	#
	.cfi_def_cfa_offset 40
	.cfi_offset 3, -40
	movq	%rdi, %rbx	# tmp126, result
	subq	$8, %rsp	#,
	.cfi_def_cfa_offset 48
# sub_64_aligned.c:718:     if (strlen(result) != strlen(result_gmp))
	.loc 1 718 9 view .LVU822
	call	strlen@PLT	#
.LVL246:
# sub_64_aligned.c:718:     if (strlen(result) != strlen(result_gmp))
	.loc 1 718 27 view .LVU823
	movq	%rbp, %rdi	# result_gmp,
# sub_64_aligned.c:718:     if (strlen(result) != strlen(result_gmp))
	.loc 1 718 9 view .LVU824
	movq	%rax, %r13	# tmp129, tmp93
# sub_64_aligned.c:718:     if (strlen(result) != strlen(result_gmp))
	.loc 1 718 27 view .LVU825
	call	strlen@PLT	#
.LVL247:
	movq	%rax, %r8	#, tmp130
# sub_64_aligned.c:723:         return false;
	.loc 1 723 16 view .LVU826
	xorl	%eax, %eax	# <retval>
# sub_64_aligned.c:718:     if (strlen(result) != strlen(result_gmp))
	.loc 1 718 8 view .LVU827
	cmpq	%r8, %r13	# tmp130, tmp93
	jne	.L170	#,
.LVL248:
.LBB373:
	.loc 1 725 23 is_stmt 1 view .LVU828
	testl	%r12d, %r12d	# result_size
	jle	.L174	#,
	movslq	%r12d, %rdx	# result_size, _20
	xorl	%r9d, %r9d	# ivtmp.237
	andl	$7, %r12d	#, tmp103
.LVL249:
	.loc 1 725 23 is_stmt 0 view .LVU829
	je	.L172	#,
	cmpq	$1, %r12	#, tmp103
	je	.L198	#,
	cmpq	$2, %r12	#, tmp103
	je	.L199	#,
	cmpq	$3, %r12	#, tmp103
	je	.L200	#,
	cmpq	$4, %r12	#, tmp103
	je	.L201	#,
	cmpq	$5, %r12	#, tmp103
	je	.L202	#,
	cmpq	$6, %r12	#, tmp103
	je	.L203	#,
	.loc 1 727 9 is_stmt 1 view .LVU830
# sub_64_aligned.c:727:         if (result[i] != result_gmp[i])
	.loc 1 727 12 is_stmt 0 view .LVU831
	movzbl	0(%rbp), %eax	# MEM[(char *)result_gmp_12(D) + ivtmp.237_16 * 1], tmp134
	cmpb	%al, (%rbx)	# tmp134, MEM[(char *)result_11(D) + ivtmp.237_16 * 1]
	jne	.L175	#,
	.loc 1 725 39 is_stmt 1 view .LVU832
.LVL250:
	.loc 1 725 23 view .LVU833
	.loc 1 725 23 is_stmt 0 view .LVU834
	movl	$1, %r9d	#, ivtmp.237
.L203:
	.loc 1 727 9 is_stmt 1 view .LVU835
# sub_64_aligned.c:727:         if (result[i] != result_gmp[i])
	.loc 1 727 12 is_stmt 0 view .LVU836
	movzbl	0(%rbp,%r9), %edi	# MEM[(char *)result_gmp_12(D) + ivtmp.237_16 * 1], tmp135
	cmpb	%dil, (%rbx,%r9)	# tmp135, MEM[(char *)result_11(D) + ivtmp.237_16 * 1]
	jne	.L175	#,
	.loc 1 725 39 is_stmt 1 view .LVU837
	.loc 1 725 23 view .LVU838
.LVL251:
	.loc 1 725 23 is_stmt 0 view .LVU839
	addq	$1, %r9	#, ivtmp.237
.LVL252:
.L202:
	.loc 1 727 9 is_stmt 1 view .LVU840
# sub_64_aligned.c:727:         if (result[i] != result_gmp[i])
	.loc 1 727 12 is_stmt 0 view .LVU841
	movzbl	0(%rbp,%r9), %ecx	# MEM[(char *)result_gmp_12(D) + ivtmp.237_16 * 1], tmp136
	cmpb	%cl, (%rbx,%r9)	# tmp136, MEM[(char *)result_11(D) + ivtmp.237_16 * 1]
	jne	.L175	#,
	.loc 1 725 39 is_stmt 1 view .LVU842
	.loc 1 725 23 view .LVU843
.LVL253:
	.loc 1 725 23 is_stmt 0 view .LVU844
	addq	$1, %r9	#, ivtmp.237
.LVL254:
.L201:
	.loc 1 727 9 is_stmt 1 view .LVU845
# sub_64_aligned.c:727:         if (result[i] != result_gmp[i])
	.loc 1 727 12 is_stmt 0 view .LVU846
	movzbl	0(%rbp,%r9), %esi	# MEM[(char *)result_gmp_12(D) + ivtmp.237_16 * 1], tmp137
	cmpb	%sil, (%rbx,%r9)	# tmp137, MEM[(char *)result_11(D) + ivtmp.237_16 * 1]
	jne	.L175	#,
	.loc 1 725 39 is_stmt 1 view .LVU847
	.loc 1 725 23 view .LVU848
.LVL255:
	.loc 1 725 23 is_stmt 0 view .LVU849
	addq	$1, %r9	#, ivtmp.237
.LVL256:
.L200:
	.loc 1 727 9 is_stmt 1 view .LVU850
# sub_64_aligned.c:727:         if (result[i] != result_gmp[i])
	.loc 1 727 12 is_stmt 0 view .LVU851
	movzbl	0(%rbp,%r9), %r10d	# MEM[(char *)result_gmp_12(D) + ivtmp.237_16 * 1], tmp138
	cmpb	%r10b, (%rbx,%r9)	# tmp138, MEM[(char *)result_11(D) + ivtmp.237_16 * 1]
	jne	.L175	#,
	.loc 1 725 39 is_stmt 1 view .LVU852
	.loc 1 725 23 view .LVU853
.LVL257:
	.loc 1 725 23 is_stmt 0 view .LVU854
	addq	$1, %r9	#, ivtmp.237
.LVL258:
.L199:
	.loc 1 727 9 is_stmt 1 view .LVU855
# sub_64_aligned.c:727:         if (result[i] != result_gmp[i])
	.loc 1 727 12 is_stmt 0 view .LVU856
	movzbl	0(%rbp,%r9), %r11d	# MEM[(char *)result_gmp_12(D) + ivtmp.237_16 * 1], tmp139
	cmpb	%r11b, (%rbx,%r9)	# tmp139, MEM[(char *)result_11(D) + ivtmp.237_16 * 1]
	jne	.L175	#,
	.loc 1 725 39 is_stmt 1 view .LVU857
	.loc 1 725 23 view .LVU858
.LVL259:
	.loc 1 725 23 is_stmt 0 view .LVU859
	addq	$1, %r9	#, ivtmp.237
.LVL260:
.L198:
	.loc 1 727 9 is_stmt 1 view .LVU860
# sub_64_aligned.c:727:         if (result[i] != result_gmp[i])
	.loc 1 727 12 is_stmt 0 view .LVU861
	movzbl	0(%rbp,%r9), %r12d	# MEM[(char *)result_gmp_12(D) + ivtmp.237_16 * 1], tmp140
	cmpb	%r12b, (%rbx,%r9)	# tmp140, MEM[(char *)result_11(D) + ivtmp.237_16 * 1]
	jne	.L175	#,
	.loc 1 725 39 is_stmt 1 view .LVU862
	.loc 1 725 23 view .LVU863
.LVL261:
	.loc 1 725 23 is_stmt 0 view .LVU864
	addq	$1, %r9	#, ivtmp.237
.LVL262:
	.loc 1 725 23 view .LVU865
	cmpq	%rdx, %r9	# _20, ivtmp.237
	je	.L174	#,
.LVL263:
.L172:
	.loc 1 727 9 is_stmt 1 view .LVU866
# sub_64_aligned.c:727:         if (result[i] != result_gmp[i])
	.loc 1 727 12 is_stmt 0 view .LVU867
	movzbl	0(%rbp,%r9), %r13d	# MEM[(char *)result_gmp_12(D) + ivtmp.237_16 * 1], tmp132
	cmpb	%r13b, (%rbx,%r9)	# tmp132, MEM[(char *)result_11(D) + ivtmp.237_16 * 1]
	jne	.L175	#,
	.loc 1 725 39 is_stmt 1 discriminator 2 view .LVU868
	.loc 1 725 23 discriminator 2 view .LVU869
	.loc 1 727 9 discriminator 2 view .LVU870
# sub_64_aligned.c:727:         if (result[i] != result_gmp[i])
	.loc 1 727 12 is_stmt 0 discriminator 2 view .LVU871
	movzbl	1(%rbp,%r9), %r8d	# MEM[(char *)result_gmp_12(D) + ivtmp.237_16 * 1], tmp133
	cmpb	%r8b, 1(%rbx,%r9)	# tmp133, MEM[(char *)result_11(D) + ivtmp.237_16 * 1]
	jne	.L175	#,
	.loc 1 725 39 is_stmt 1 view .LVU872
	.loc 1 725 23 view .LVU873
	.loc 1 727 9 view .LVU874
# sub_64_aligned.c:727:         if (result[i] != result_gmp[i])
	.loc 1 727 12 is_stmt 0 view .LVU875
	movzbl	2(%rbp,%r9), %eax	# MEM[(char *)result_gmp_12(D) + ivtmp.237_16 * 1], tmp141
	cmpb	%al, 2(%rbx,%r9)	# tmp141, MEM[(char *)result_11(D) + ivtmp.237_16 * 1]
	jne	.L175	#,
	.loc 1 725 39 is_stmt 1 view .LVU876
	.loc 1 725 23 view .LVU877
	.loc 1 727 9 view .LVU878
# sub_64_aligned.c:727:         if (result[i] != result_gmp[i])
	.loc 1 727 12 is_stmt 0 view .LVU879
	movzbl	3(%rbp,%r9), %edi	# MEM[(char *)result_gmp_12(D) + ivtmp.237_16 * 1], tmp142
	cmpb	%dil, 3(%rbx,%r9)	# tmp142, MEM[(char *)result_11(D) + ivtmp.237_16 * 1]
	jne	.L175	#,
	.loc 1 725 39 is_stmt 1 view .LVU880
	.loc 1 725 23 view .LVU881
	.loc 1 727 9 view .LVU882
# sub_64_aligned.c:727:         if (result[i] != result_gmp[i])
	.loc 1 727 12 is_stmt 0 view .LVU883
	movzbl	4(%rbp,%r9), %ecx	# MEM[(char *)result_gmp_12(D) + ivtmp.237_16 * 1], tmp143
	cmpb	%cl, 4(%rbx,%r9)	# tmp143, MEM[(char *)result_11(D) + ivtmp.237_16 * 1]
	jne	.L175	#,
	.loc 1 725 39 is_stmt 1 view .LVU884
	.loc 1 725 23 view .LVU885
	.loc 1 727 9 view .LVU886
# sub_64_aligned.c:727:         if (result[i] != result_gmp[i])
	.loc 1 727 12 is_stmt 0 view .LVU887
	movzbl	5(%rbp,%r9), %esi	# MEM[(char *)result_gmp_12(D) + ivtmp.237_16 * 1], tmp144
	cmpb	%sil, 5(%rbx,%r9)	# tmp144, MEM[(char *)result_11(D) + ivtmp.237_16 * 1]
	jne	.L175	#,
	.loc 1 725 39 is_stmt 1 view .LVU888
	.loc 1 725 23 view .LVU889
	.loc 1 727 9 view .LVU890
# sub_64_aligned.c:727:         if (result[i] != result_gmp[i])
	.loc 1 727 12 is_stmt 0 view .LVU891
	movzbl	6(%rbp,%r9), %r10d	# MEM[(char *)result_gmp_12(D) + ivtmp.237_16 * 1], tmp145
	cmpb	%r10b, 6(%rbx,%r9)	# tmp145, MEM[(char *)result_11(D) + ivtmp.237_16 * 1]
	jne	.L175	#,
	.loc 1 725 39 is_stmt 1 view .LVU892
	.loc 1 725 23 view .LVU893
	.loc 1 727 9 view .LVU894
# sub_64_aligned.c:727:         if (result[i] != result_gmp[i])
	.loc 1 727 12 is_stmt 0 view .LVU895
	movzbl	7(%rbp,%r9), %r11d	# MEM[(char *)result_gmp_12(D) + ivtmp.237_16 * 1], tmp146
	cmpb	%r11b, 7(%rbx,%r9)	# tmp146, MEM[(char *)result_11(D) + ivtmp.237_16 * 1]
	jne	.L175	#,
	.loc 1 725 39 is_stmt 1 view .LVU896
	.loc 1 725 23 view .LVU897
	addq	$8, %r9	#, ivtmp.237
	cmpq	%rdx, %r9	# _20, ivtmp.237
	jne	.L172	#,
.LVL264:
.L174:
	.loc 1 725 23 is_stmt 0 view .LVU898
.LBE373:
# sub_64_aligned.c:736:     return true;
	.loc 1 736 12 view .LVU899
	movl	$1, %eax	#, <retval>
.L170:
# sub_64_aligned.c:737: }
	.loc 1 737 1 view .LVU900
	addq	$8, %rsp	#,
	.cfi_remember_state
	.cfi_def_cfa_offset 40
	popq	%rbx	#
	.cfi_def_cfa_offset 32
.LVL265:
	.loc 1 737 1 view .LVU901
	popq	%rbp	#
	.cfi_def_cfa_offset 24
.LVL266:
	.loc 1 737 1 view .LVU902
	popq	%r12	#
	.cfi_def_cfa_offset 16
	popq	%r13	#
	.cfi_def_cfa_offset 8
	ret	
.LVL267:
	.p2align 4,,10
	.p2align 3
.L175:
	.cfi_restore_state
	.loc 1 737 1 view .LVU903
	addq	$8, %rsp	#,
	.cfi_def_cfa_offset 40
# sub_64_aligned.c:723:         return false;
	.loc 1 723 16 view .LVU904
	xorl	%eax, %eax	# <retval>
# sub_64_aligned.c:737: }
	.loc 1 737 1 view .LVU905
	popq	%rbx	#
	.cfi_def_cfa_offset 32
.LVL268:
	.loc 1 737 1 view .LVU906
	popq	%rbp	#
	.cfi_def_cfa_offset 24
.LVL269:
	.loc 1 737 1 view .LVU907
	popq	%r12	#
	.cfi_def_cfa_offset 16
	popq	%r13	#
	.cfi_def_cfa_offset 8
	ret	
	.cfi_endproc
.LFE5795:
	.size	check_result, .-check_result
	.section	.rodata.str1.8
	.align 8
.LC20:
	.string	"Memory allocation failed for a or b\n"
	.text
	.p2align 4
	.globl	generate_no_borrow_propagation
	.type	generate_no_borrow_propagation, @function
generate_no_borrow_propagation:
.LVL270:
.LFB5796:
	.loc 1 745 1 is_stmt 1 view -0
	.cfi_startproc
	.loc 1 745 1 is_stmt 0 view .LVU909
	endbr64	
	pushq	%r15	#
	.cfi_def_cfa_offset 16
	.cfi_offset 15, -16
	movq	%rdi, %r15	# tmp277, a
	pushq	%r14	#
	.cfi_def_cfa_offset 24
	.cfi_offset 14, -24
	movq	%rsi, %r14	# tmp278, b
	pushq	%r13	#
	.cfi_def_cfa_offset 32
	.cfi_offset 13, -32
	pushq	%r12	#
	.cfi_def_cfa_offset 40
	.cfi_offset 12, -40
	movslq	%edx, %r12	# tmp279,
	pushq	%rbp	#
	.cfi_def_cfa_offset 48
	.cfi_offset 6, -48
	pushq	%rbx	#
	.cfi_def_cfa_offset 56
	.cfi_offset 3, -56
	movq	%r12, %rbx	#,
# sub_64_aligned.c:747:     *a = (uint64_t *)_mm_malloc(n * sizeof(uint64_t), 64);
	.loc 1 747 22 view .LVU910
	salq	$3, %r12	#, _2
.LBB382:
.LBB383:
# /usr/lib/gcc/x86_64-linux-gnu/11/include/mm_malloc.h:45:   if (posix_memalign (&__ptr, __alignment, __size) == 0)
	.loc 5 45 7 view .LVU911
	movq	%r12, %rdx	# _2,
.LVL271:
	.loc 5 45 7 view .LVU912
.LBE383:
.LBE382:
# sub_64_aligned.c:745: {
	.loc 1 745 1 view .LVU913
	subq	$88, %rsp	#,
	.cfi_def_cfa_offset 144
# sub_64_aligned.c:745: {
	.loc 1 745 1 view .LVU914
	movq	%rsi, 40(%rsp)	# b, %sfp
.LBB386:
.LBB384:
# /usr/lib/gcc/x86_64-linux-gnu/11/include/mm_malloc.h:45:   if (posix_memalign (&__ptr, __alignment, __size) == 0)
	.loc 5 45 7 view .LVU915
	leaq	64(%rsp), %rdi	#, tmp213
.LVL272:
	.loc 5 45 7 view .LVU916
	movl	$64, %esi	#,
.LVL273:
	.loc 5 45 7 view .LVU917
.LBE384:
.LBE386:
# sub_64_aligned.c:745: {
	.loc 1 745 1 view .LVU918
	movq	%fs:40, %rax	# MEM[(<address-space-1> long unsigned int *)40B], tmp288
	movq	%rax, 72(%rsp)	# tmp288, D.39620
	xorl	%eax, %eax	# tmp288
	.loc 1 747 5 is_stmt 1 view .LVU919
.LVL274:
.LBB387:
.LBI382:
	.loc 5 38 1 view .LVU920
.LBB385:
	.loc 5 40 3 view .LVU921
	.loc 5 41 3 view .LVU922
	.loc 5 43 3 view .LVU923
	.loc 5 45 3 view .LVU924
# /usr/lib/gcc/x86_64-linux-gnu/11/include/mm_malloc.h:45:   if (posix_memalign (&__ptr, __alignment, __size) == 0)
	.loc 5 45 7 is_stmt 0 view .LVU925
	call	posix_memalign@PLT	#
.LVL275:
	.loc 5 45 7 view .LVU926
.LBE385:
.LBE387:
.LBB388:
.LBB389:
	leaq	56(%rsp), %rdi	#, tmp214
	movq	%r12, %rdx	# _2,
	movl	$64, %esi	#,
	testl	%eax, %eax	# tmp280
	movl	$0, %eax	#, tmp276
	cmove	64(%rsp), %rax	# D.39595,, _82
.LVL276:
	.loc 5 45 7 view .LVU927
.LBE389:
.LBE388:
# sub_64_aligned.c:747:     *a = (uint64_t *)_mm_malloc(n * sizeof(uint64_t), 64);
	.loc 1 747 8 view .LVU928
	movq	%rax, (%r15)	# _82, *a_44(D)
	.loc 1 748 5 is_stmt 1 view .LVU929
.LVL277:
.LBB391:
.LBI388:
	.loc 5 38 1 view .LVU930
.LBB390:
	.loc 5 40 3 view .LVU931
	.loc 5 41 3 view .LVU932
	.loc 5 43 3 view .LVU933
	.loc 5 45 3 view .LVU934
# /usr/lib/gcc/x86_64-linux-gnu/11/include/mm_malloc.h:45:   if (posix_memalign (&__ptr, __alignment, __size) == 0)
	.loc 5 45 7 is_stmt 0 view .LVU935
	call	posix_memalign@PLT	#
.LVL278:
	testl	%eax, %eax	# tmp281
	je	.L270	#,
	.loc 5 48 5 is_stmt 1 view .LVU936
.LVL279:
	.loc 5 48 5 is_stmt 0 view .LVU937
.LBE390:
.LBE391:
# sub_64_aligned.c:748:     *b = (uint64_t *)_mm_malloc(n * sizeof(uint64_t), 64);
	.loc 1 748 8 view .LVU938
	movq	40(%rsp), %rdx	# %sfp, b
	movq	$0, (%rdx)	#, *b_47(D)
	.loc 1 750 5 is_stmt 1 view .LVU939
.L228:
	.loc 1 752 9 view .LVU940
	leaq	.LC20(%rip), %rdi	#, tmp219
	call	perror@PLT	#
.LVL280:
	.loc 1 753 9 view .LVU941
	movl	$1, %edi	#,
	call	exit@PLT	#
.LVL281:
	.p2align 4,,10
	.p2align 3
.L270:
	.loc 1 753 9 is_stmt 0 view .LVU942
	movq	56(%rsp), %rcx	# D.39589, _70
.LVL282:
# sub_64_aligned.c:748:     *b = (uint64_t *)_mm_malloc(n * sizeof(uint64_t), 64);
	.loc 1 748 8 view .LVU943
	movq	%rcx, (%r14)	# _70, *b_47(D)
	.loc 1 750 5 is_stmt 1 view .LVU944
# sub_64_aligned.c:750:     if (*a == NULL || *b == NULL)
	.loc 1 750 20 is_stmt 0 view .LVU945
	cmpq	$0, (%r15)	#, *a_44(D)
	je	.L228	#,
	testq	%rcx, %rcx	# _70
	je	.L228	#,
	.loc 1 757 5 is_stmt 1 view .LVU946
# sub_64_aligned.c:757:     int seed = generate_seed();
	.loc 1 757 16 is_stmt 0 view .LVU947
	xorl	%eax, %eax	#
	call	generate_seed	#
.LVL283:
	.loc 1 758 5 is_stmt 1 view .LVU948
	movl	%eax, %edi	# tmp282, _6
	call	srand@PLT	#
.LVL284:
	.loc 1 762 5 view .LVU949
	.loc 1 763 5 view .LVU950
	.loc 1 764 5 view .LVU951
.LBB392:
	.loc 1 764 10 view .LVU952
	.loc 1 764 27 view .LVU953
	subl	$1, %ebx	#, n
.LVL285:
	.loc 1 764 27 is_stmt 0 view .LVU954
	movl	%ebx, %r14d	# n, _9
.LVL286:
	.loc 1 764 27 view .LVU955
	js	.L215	#,
.LVL287:
	.p2align 4,,10
	.p2align 3
.L220:
.LBB393:
	.loc 1 767 9 is_stmt 1 view .LVU956
# sub_64_aligned.c:767:         int group_size = (i >= 8) ? 9 : (i + 1);
	.loc 1 767 39 is_stmt 0 view .LVU957
	movl	$8, %ebp	#, tmp287
	movl	%r14d, 16(%rsp)	# _9, %sfp
	cmpl	%ebp, %r14d	# tmp287, _9
	cmovle	%r14d, %ebp	# _9,, tmp287
# sub_64_aligned.c:767:         int group_size = (i >= 8) ? 9 : (i + 1);
	.loc 1 767 13 view .LVU958
	leal	1(%rbp), %esi	#, _91
# sub_64_aligned.c:767:         int group_size = (i >= 8) ? 9 : (i + 1);
	.loc 1 767 39 view .LVU959
	movl	%ebp, 20(%rsp)	# _8, %sfp
	addl	$2, %ebp	#, tmp233
# sub_64_aligned.c:768:         int start_index = i - group_size + 1;
	.loc 1 768 29 view .LVU960
	subl	%esi, %r14d	# _91, _9
.LVL288:
# sub_64_aligned.c:767:         int group_size = (i >= 8) ? 9 : (i + 1);
	.loc 1 767 13 view .LVU961
	movl	%esi, 12(%rsp)	# _91, %sfp
.LVL289:
	.loc 1 768 9 is_stmt 1 view .LVU962
	movslq	%ebp, %rbp	# tmp233, tmp234
# sub_64_aligned.c:772:         uint64_t start_value = rand() % 10;
	.loc 1 772 32 is_stmt 0 view .LVU963
	call	rand@PLT	#
.LVL290:
# sub_64_aligned.c:768:         int start_index = i - group_size + 1;
	.loc 1 768 13 view .LVU964
	leal	1(%r14), %ebx	#, start_index
.LVL291:
	.loc 1 772 9 is_stmt 1 view .LVU965
# sub_64_aligned.c:772:         uint64_t start_value = rand() % 10;
	.loc 1 772 39 is_stmt 0 view .LVU966
	movslq	%eax, %r8	# _10, _10
	movl	%eax, %r10d	# _10, tmp226
	movslq	%ebx, %r12	# start_index, start_index
# sub_64_aligned.c:772:         uint64_t start_value = rand() % 10;
	.loc 1 772 32 view .LVU967
	movl	%eax, %edi	# tmp283, _10
# sub_64_aligned.c:772:         uint64_t start_value = rand() % 10;
	.loc 1 772 39 view .LVU968
	imulq	$1717986919, %r8, %r9	#, _10, tmp223
	sarl	$31, %r10d	#, tmp226
	movq	%r12, 24(%rsp)	# start_index, %sfp
	movslq	%r14d, %rax	# _9, _9
	leaq	0(,%r12,8), %r12	#, ivtmp.260
	addq	%rax, %rbp	# _9, tmp236
	movq	%r12, 32(%rsp)	# ivtmp.260, %sfp
	salq	$3, %rbp	#, _129
	sarq	$34, %r9	#, tmp225
	subl	%r10d, %r9d	# tmp226, tmp221
	leal	(%r9,%r9,4), %r11d	#, tmp229
	addl	%r11d, %r11d	# tmp230
	subl	%r11d, %edi	# tmp230, tmp231
# sub_64_aligned.c:772:         uint64_t start_value = rand() % 10;
	.loc 1 772 18 view .LVU969
	movslq	%edi, %r13	# tmp231, start_value
.LVL292:
	.loc 1 773 9 is_stmt 1 view .LVU970
.LBB394:
	.loc 1 773 14 view .LVU971
	.loc 1 773 27 view .LVU972
	.p2align 4,,10
	.p2align 3
.L222:
	.loc 1 775 13 view .LVU973
# sub_64_aligned.c:775:             (*a)[start_index + j] = start_value;
	.loc 1 775 35 is_stmt 0 view .LVU974
	movq	(%r15), %rdx	# *a_44(D), *a_44(D)
	movq	%r13, (%rdx,%r12)	# start_value, *_16
	.loc 1 777 13 is_stmt 1 view .LVU975
# sub_64_aligned.c:777:             if (rand() % 2 == 0 && start_value > 0)
	.loc 1 777 17 is_stmt 0 view .LVU976
	call	rand@PLT	#
.LVL293:
# sub_64_aligned.c:777:             if (rand() % 2 == 0 && start_value > 0)
	.loc 1 777 16 view .LVU977
	testb	$1, %al	#, tmp284
	jne	.L221	#,
# sub_64_aligned.c:779:                 start_value--;
	.loc 1 779 28 discriminator 1 view .LVU978
	cmpq	$1, %r13	#, start_value
	adcq	$-1, %r13	#, start_value
.LVL294:
.L221:
	.loc 1 773 42 is_stmt 1 discriminator 2 view .LVU979
	.loc 1 773 27 discriminator 2 view .LVU980
	addq	$8, %r12	#, ivtmp.260
	.loc 1 773 27 is_stmt 0 discriminator 2 view .LVU981
	cmpq	%rbp, %r12	# _129, ivtmp.260
	jne	.L222	#,
.LBE394:
.LBB395:
# sub_64_aligned.c:786:             (*b)[start_index + j] = (*a)[start_index + group_size - 1 - j];
	.loc 1 786 67 view .LVU982
	movl	12(%rsp), %r11d	# %sfp, _91
	movslq	20(%rsp), %rdi	# %sfp,
# sub_64_aligned.c:786:             (*b)[start_index + j] = (*a)[start_index + group_size - 1 - j];
	.loc 1 786 14 view .LVU983
	movq	40(%rsp), %rcx	# %sfp, b
	movslq	16(%rsp), %r12	# %sfp, _114
	.loc 1 786 14 view .LVU984
	movl	%r11d, %edx	# _91, _89
# sub_64_aligned.c:786:             (*b)[start_index + j] = (*a)[start_index + group_size - 1 - j];
	.loc 1 786 38 view .LVU985
	movq	(%r15), %rsi	# *a_44(D), _20
	movq	%rdi, %rbp	#,
# sub_64_aligned.c:786:             (*b)[start_index + j] = (*a)[start_index + group_size - 1 - j];
	.loc 1 786 67 view .LVU986
	leal	-1(%rbx,%r11), %eax	#, _112
	movq	%rdx, %r10	# _89, tmp244
# sub_64_aligned.c:786:             (*b)[start_index + j] = (*a)[start_index + group_size - 1 - j];
	.loc 1 786 14 view .LVU987
	movq	(%rcx), %r13	# *b_47(D), _27
.LVL295:
	.loc 1 786 14 view .LVU988
	leaq	8(,%r12,8), %r9	#, _110
	subq	%rdi, %r12	# _8, _106
	negq	%r10	# tmp244
	addq	%r12, %rdx	# _106, tmp248
	leaq	(%rsi,%r9), %rdi	#, tmp253
	leaq	(%r9,%r10,8), %rcx	#, tmp246
	leaq	0(%r13,%r12,8), %r8	#, _99
	addq	%rsi, %rcx	# _20, tmp247
	leaq	0(%r13,%rdx,8), %r12	#, tmp250
	cmpq	%r12, %rcx	# tmp250, tmp247
	setnb	%dl	#, tmp252
	cmpq	%rdi, %r8	# tmp253, _99
	setnb	%r10b	#, tmp255
	orb	%r10b, %dl	# tmp255, tmp289
	je	.L223	#,
	cmpl	$2, %ebp	#, _8
	jbe	.L223	#,
	leaq	-16(%rsi,%r9), %r9	#, vectp.251
	.loc 1 786 13 is_stmt 1 view .LVU989
	shrl	%r11d	# bnd.247
# sub_64_aligned.c:786:             (*b)[start_index + j] = (*a)[start_index + group_size - 1 - j];
	.loc 1 786 41 is_stmt 0 view .LVU990
	movdqu	(%r9), %xmm0	# MEM <vector(2) long unsigned int> [(uint64_t *)vectp.251_149], vect__32.253
	shufpd	$1, %xmm0, %xmm0	#, tmp319, vect__32.253
# sub_64_aligned.c:786:             (*b)[start_index + j] = (*a)[start_index + group_size - 1 - j];
	.loc 1 786 35 view .LVU991
	movups	%xmm0, (%r8)	# vect__32.253, MEM <vector(2) long unsigned int> [(uint64_t *)_99]
	.loc 1 784 42 is_stmt 1 view .LVU992
	.loc 1 784 27 view .LVU993
	cmpl	$1, %r11d	#, bnd.247
	je	.L224	#,
	.loc 1 786 13 view .LVU994
# sub_64_aligned.c:786:             (*b)[start_index + j] = (*a)[start_index + group_size - 1 - j];
	.loc 1 786 41 is_stmt 0 view .LVU995
	movdqu	-16(%r9), %xmm3	# MEM <vector(2) long unsigned int> [(uint64_t *)vectp.251_149 + -16B], vect__32.253
	shufpd	$1, %xmm3, %xmm3	#, tmp321, vect__32.253
# sub_64_aligned.c:786:             (*b)[start_index + j] = (*a)[start_index + group_size - 1 - j];
	.loc 1 786 35 view .LVU996
	movups	%xmm3, 16(%r8)	# vect__32.253, MEM <vector(2) long unsigned int> [(uint64_t *)_99 + 16B]
	.loc 1 784 42 is_stmt 1 view .LVU997
	.loc 1 784 27 view .LVU998
	cmpl	$2, %r11d	#, bnd.247
	je	.L224	#,
	.loc 1 786 13 view .LVU999
# sub_64_aligned.c:786:             (*b)[start_index + j] = (*a)[start_index + group_size - 1 - j];
	.loc 1 786 41 is_stmt 0 view .LVU1000
	movdqu	-32(%r9), %xmm4	# MEM <vector(2) long unsigned int> [(uint64_t *)vectp.251_149 + -32B], vect__32.253
	shufpd	$1, %xmm4, %xmm4	#, tmp323, vect__32.253
# sub_64_aligned.c:786:             (*b)[start_index + j] = (*a)[start_index + group_size - 1 - j];
	.loc 1 786 35 view .LVU1001
	movups	%xmm4, 32(%r8)	# vect__32.253, MEM <vector(2) long unsigned int> [(uint64_t *)_99 + 32B]
	.loc 1 784 42 is_stmt 1 view .LVU1002
	.loc 1 784 27 view .LVU1003
	cmpl	$4, %r11d	#, bnd.247
	jne	.L224	#,
	.loc 1 786 13 discriminator 3 view .LVU1004
# sub_64_aligned.c:786:             (*b)[start_index + j] = (*a)[start_index + group_size - 1 - j];
	.loc 1 786 41 is_stmt 0 discriminator 3 view .LVU1005
	movdqu	-48(%r9), %xmm6	# MEM <vector(2) long unsigned int> [(uint64_t *)vectp.251_149 + -48B], MEM <vector(2) long unsigned int> [(uint64_t *)vectp.251_149 + -48B]
	shufpd	$1, %xmm6, %xmm6	#, MEM <vector(2) long unsigned int> [(uint64_t *)vectp.251_149 + -48B], vect__32.253
# sub_64_aligned.c:786:             (*b)[start_index + j] = (*a)[start_index + group_size - 1 - j];
	.loc 1 786 35 discriminator 3 view .LVU1006
	movups	%xmm6, 48(%r8)	# vect__32.253, MEM <vector(2) long unsigned int> [(uint64_t *)_99 + 48B]
	.loc 1 784 42 is_stmt 1 discriminator 3 view .LVU1007
	.loc 1 784 27 discriminator 3 view .LVU1008
.L224:
	movl	12(%rsp), %ebp	# %sfp, _91
	movl	%ebp, %r8d	# _91, niters_vector_mult_vf.248
	andl	$-2, %r8d	#, niters_vector_mult_vf.248
	andl	$1, %ebp	#, _91
	je	.L226	#,
.LVL296:
	.loc 1 786 13 view .LVU1009
# sub_64_aligned.c:786:             (*b)[start_index + j] = (*a)[start_index + group_size - 1 - j];
	.loc 1 786 71 is_stmt 0 view .LVU1010
	subl	%r8d, %eax	# niters_vector_mult_vf.248, tmp268
# sub_64_aligned.c:786:             (*b)[start_index + j] = (*a)[start_index + group_size - 1 - j];
	.loc 1 786 30 view .LVU1011
	addl	%r8d, %ebx	# niters_vector_mult_vf.248, tmp270
.LVL297:
# sub_64_aligned.c:786:             (*b)[start_index + j] = (*a)[start_index + group_size - 1 - j];
	.loc 1 786 71 view .LVU1012
	cltq
# sub_64_aligned.c:786:             (*b)[start_index + j] = (*a)[start_index + group_size - 1 - j];
	.loc 1 786 30 view .LVU1013
	movslq	%ebx, %rbx	# tmp270, tmp271
# sub_64_aligned.c:786:             (*b)[start_index + j] = (*a)[start_index + group_size - 1 - j];
	.loc 1 786 41 view .LVU1014
	movq	(%rsi,%rax,8), %rsi	# *_136, _141
# sub_64_aligned.c:786:             (*b)[start_index + j] = (*a)[start_index + group_size - 1 - j];
	.loc 1 786 35 view .LVU1015
	movq	%rsi, 0(%r13,%rbx,8)	# _141, *_140
	.loc 1 784 42 is_stmt 1 view .LVU1016
.LVL298:
	.loc 1 784 27 view .LVU1017
.L226:
	.loc 1 784 27 is_stmt 0 view .LVU1018
.LBE395:
.LBE393:
	.loc 1 764 27 is_stmt 1 discriminator 1 view .LVU1019
	testl	%r14d, %r14d	# _9
	jns	.L220	#,
.LVL299:
.L215:
	.loc 1 764 27 is_stmt 0 discriminator 1 view .LVU1020
.LBE392:
# sub_64_aligned.c:791: }
	.loc 1 791 1 view .LVU1021
	movq	72(%rsp), %rax	# D.39620, tmp290
	subq	%fs:40, %rax	# MEM[(<address-space-1> long unsigned int *)40B], tmp290
	jne	.L271	#,
	addq	$88, %rsp	#,
	.cfi_remember_state
	.cfi_def_cfa_offset 56
	popq	%rbx	#
	.cfi_def_cfa_offset 48
	popq	%rbp	#
	.cfi_def_cfa_offset 40
	popq	%r12	#
	.cfi_def_cfa_offset 32
	popq	%r13	#
	.cfi_def_cfa_offset 24
	popq	%r14	#
	.cfi_def_cfa_offset 16
.LVL300:
	.loc 1 791 1 view .LVU1022
	popq	%r15	#
	.cfi_def_cfa_offset 8
.LVL301:
	.loc 1 791 1 view .LVU1023
	ret	
.LVL302:
	.p2align 4,,10
	.p2align 3
.L223:
	.cfi_restore_state
.LBB398:
.LBB397:
.LBB396:
	.loc 1 786 13 is_stmt 1 view .LVU1024
# sub_64_aligned.c:786:             (*b)[start_index + j] = (*a)[start_index + group_size - 1 - j];
	.loc 1 786 71 is_stmt 0 view .LVU1025
	cltq
# sub_64_aligned.c:786:             (*b)[start_index + j] = (*a)[start_index + group_size - 1 - j];
	.loc 1 786 35 view .LVU1026
	movq	24(%rsp), %r12	# %sfp, start_index
# sub_64_aligned.c:784:         for (int j = 0; j < group_size; j++)
	.loc 1 784 27 view .LVU1027
	movl	16(%rsp), %edx	# %sfp, i
# sub_64_aligned.c:786:             (*b)[start_index + j] = (*a)[start_index + group_size - 1 - j];
	.loc 1 786 41 view .LVU1028
	leaq	0(,%rax,8), %rcx	#, _26
	movq	(%rsi,%rax,8), %rax	# *_28, _57
# sub_64_aligned.c:786:             (*b)[start_index + j] = (*a)[start_index + group_size - 1 - j];
	.loc 1 786 35 view .LVU1029
	movq	%rax, 0(%r13,%r12,8)	# _57, *_32
	.loc 1 784 42 is_stmt 1 view .LVU1030
.LVL303:
	.loc 1 784 27 view .LVU1031
	testl	%edx, %edx	# i
	je	.L226	#,
	.loc 1 786 13 view .LVU1032
# sub_64_aligned.c:786:             (*b)[start_index + j] = (*a)[start_index + group_size - 1 - j];
	.loc 1 786 41 is_stmt 0 view .LVU1033
	movq	-8(%rsi,%rcx), %rdi	# *_167, _172
# sub_64_aligned.c:786:             (*b)[start_index + j] = (*a)[start_index + group_size - 1 - j];
	.loc 1 786 35 view .LVU1034
	movq	32(%rsp), %r10	# %sfp, ivtmp.260
	movq	%rdi, 8(%r13,%r10)	# _172, *_171
	.loc 1 784 42 is_stmt 1 view .LVU1035
.LVL304:
	.loc 1 784 27 view .LVU1036
	cmpl	$1, %edx	#, i
	je	.L226	#,
	.loc 1 786 13 view .LVU1037
# sub_64_aligned.c:786:             (*b)[start_index + j] = (*a)[start_index + group_size - 1 - j];
	.loc 1 786 41 is_stmt 0 view .LVU1038
	movq	-16(%rsi,%rcx), %r11	# *_180, _185
# sub_64_aligned.c:786:             (*b)[start_index + j] = (*a)[start_index + group_size - 1 - j];
	.loc 1 786 35 view .LVU1039
	movq	%r11, 16(%r13,%r10)	# _185, *_184
	.loc 1 784 42 is_stmt 1 view .LVU1040
.LVL305:
	.loc 1 784 27 view .LVU1041
	cmpl	$2, %edx	#, i
	je	.L226	#,
	.loc 1 786 13 view .LVU1042
# sub_64_aligned.c:786:             (*b)[start_index + j] = (*a)[start_index + group_size - 1 - j];
	.loc 1 786 41 is_stmt 0 view .LVU1043
	movq	-24(%rsi,%rcx), %r9	# *_193, _198
# sub_64_aligned.c:786:             (*b)[start_index + j] = (*a)[start_index + group_size - 1 - j];
	.loc 1 786 35 view .LVU1044
	movq	%r9, 24(%r13,%r10)	# _198, *_197
	.loc 1 784 42 is_stmt 1 view .LVU1045
.LVL306:
	.loc 1 784 27 view .LVU1046
	cmpl	$3, %edx	#, i
	je	.L226	#,
	.loc 1 786 13 view .LVU1047
# sub_64_aligned.c:786:             (*b)[start_index + j] = (*a)[start_index + group_size - 1 - j];
	.loc 1 786 41 is_stmt 0 view .LVU1048
	movq	-32(%rsi,%rcx), %rbp	# *_206, _211
# sub_64_aligned.c:786:             (*b)[start_index + j] = (*a)[start_index + group_size - 1 - j];
	.loc 1 786 35 view .LVU1049
	movq	%rbp, 32(%r13,%r10)	# _211, *_210
	.loc 1 784 42 is_stmt 1 view .LVU1050
.LVL307:
	.loc 1 784 27 view .LVU1051
	cmpl	$4, %edx	#, i
	je	.L226	#,
	.loc 1 786 13 view .LVU1052
# sub_64_aligned.c:786:             (*b)[start_index + j] = (*a)[start_index + group_size - 1 - j];
	.loc 1 786 41 is_stmt 0 view .LVU1053
	movq	-40(%rsi,%rcx), %r8	# *_219, _224
# sub_64_aligned.c:786:             (*b)[start_index + j] = (*a)[start_index + group_size - 1 - j];
	.loc 1 786 35 view .LVU1054
	movq	%r8, 40(%r13,%r10)	# _224, *_223
	.loc 1 784 42 is_stmt 1 view .LVU1055
.LVL308:
	.loc 1 784 27 view .LVU1056
	cmpl	$5, %edx	#, i
	je	.L226	#,
	.loc 1 786 13 view .LVU1057
# sub_64_aligned.c:786:             (*b)[start_index + j] = (*a)[start_index + group_size - 1 - j];
	.loc 1 786 41 is_stmt 0 view .LVU1058
	movq	-48(%rsi,%rcx), %rbx	# *_232, _237
.LVL309:
# sub_64_aligned.c:786:             (*b)[start_index + j] = (*a)[start_index + group_size - 1 - j];
	.loc 1 786 35 view .LVU1059
	movq	%rbx, 48(%r13,%r10)	# _237, *_236
	.loc 1 784 42 is_stmt 1 view .LVU1060
.LVL310:
	.loc 1 784 27 view .LVU1061
	cmpl	$6, %edx	#, i
	je	.L226	#,
	.loc 1 786 13 view .LVU1062
# sub_64_aligned.c:786:             (*b)[start_index + j] = (*a)[start_index + group_size - 1 - j];
	.loc 1 786 41 is_stmt 0 view .LVU1063
	movq	-56(%rsi,%rcx), %rax	# *_245, _250
# sub_64_aligned.c:786:             (*b)[start_index + j] = (*a)[start_index + group_size - 1 - j];
	.loc 1 786 35 view .LVU1064
	movq	%rax, 56(%r13,%r10)	# _250, *_249
	.loc 1 784 42 is_stmt 1 view .LVU1065
.LVL311:
	.loc 1 784 27 view .LVU1066
	cmpl	$7, %edx	#, i
	jle	.L226	#,
	.loc 1 786 13 view .LVU1067
# sub_64_aligned.c:786:             (*b)[start_index + j] = (*a)[start_index + group_size - 1 - j];
	.loc 1 786 41 is_stmt 0 view .LVU1068
	movq	-64(%rsi,%rcx), %rsi	# *_21, _124
# sub_64_aligned.c:786:             (*b)[start_index + j] = (*a)[start_index + group_size - 1 - j];
	.loc 1 786 35 view .LVU1069
	movq	%rsi, 64(%r13,%r10)	# _124, *_123
	.loc 1 784 42 is_stmt 1 view .LVU1070
.LVL312:
	.loc 1 784 27 view .LVU1071
	jmp	.L226	#
.LVL313:
.L271:
	.loc 1 784 27 is_stmt 0 view .LVU1072
.LBE396:
.LBE397:
.LBE398:
# sub_64_aligned.c:791: }
	.loc 1 791 1 view .LVU1073
	call	__stack_chk_fail@PLT	#
.LVL314:
	.cfi_endproc
.LFE5796:
	.size	generate_no_borrow_propagation, .-generate_no_borrow_propagation
	.section	.rodata.str1.1
.LC21:
	.string	"Time, RDTSC\n"
	.text
	.p2align 4
	.globl	open_time_file
	.type	open_time_file, @function
open_time_file:
.LVL315:
.LFB5797:
	.loc 1 794 1 is_stmt 1 view -0
	.cfi_startproc
	.loc 1 794 1 is_stmt 0 view .LVU1075
	endbr64	
	.loc 1 795 5 is_stmt 1 view .LVU1076
# sub_64_aligned.c:794: {
	.loc 1 794 1 is_stmt 0 view .LVU1077
	pushq	%rbx	#
	.cfi_def_cfa_offset 16
	.cfi_offset 3, -16
# sub_64_aligned.c:794: {
	.loc 1 794 1 view .LVU1078
	movq	%rsi, %rbx	# tmp90, file
# sub_64_aligned.c:795:     *file = fopen(filename, "w");
	.loc 1 795 13 view .LVU1079
	leaq	.LC13(%rip), %rsi	#, tmp85
.LVL316:
	.loc 1 795 13 view .LVU1080
	call	fopen@PLT	#
.LVL317:
# sub_64_aligned.c:795:     *file = fopen(filename, "w");
	.loc 1 795 11 view .LVU1081
	movq	%rax, (%rbx)	# tmp86, *file_5(D)
	.loc 1 797 5 is_stmt 1 view .LVU1082
# sub_64_aligned.c:797:     if (*file == NULL)
	.loc 1 797 8 is_stmt 0 view .LVU1083
	testq	%rax, %rax	# tmp86
	je	.L275	#,
	movq	%rax, %rcx	# tmp91, tmp86
	.loc 1 805 5 is_stmt 1 view .LVU1084
.LVL318:
.LBB399:
.LBI399:
	.loc 6 103 1 view .LVU1085
.LBB400:
	.loc 6 105 3 view .LVU1086
# /usr/include/x86_64-linux-gnu/bits/stdio2.h:105:   return __fprintf_chk (__stream, __USE_FORTIFY_LEVEL - 1, __fmt,
	.loc 6 105 10 is_stmt 0 view .LVU1087
	movl	$12, %edx	#,
	movl	$1, %esi	#,
.LBE400:
.LBE399:
# sub_64_aligned.c:806: }
	.loc 1 806 1 view .LVU1088
	popq	%rbx	#
	.cfi_remember_state
	.cfi_def_cfa_offset 8
.LVL319:
.LBB402:
.LBB401:
# /usr/include/x86_64-linux-gnu/bits/stdio2.h:105:   return __fprintf_chk (__stream, __USE_FORTIFY_LEVEL - 1, __fmt,
	.loc 6 105 10 view .LVU1089
	leaq	.LC21(%rip), %rdi	#, tmp88
	jmp	fwrite@PLT	#
.LVL320:
.L275:
	.cfi_restore_state
	.loc 6 105 10 view .LVU1090
.LBE401:
.LBE402:
	.loc 1 799 9 is_stmt 1 view .LVU1091
	leaq	.LC0(%rip), %rdi	#, tmp87
	call	perror@PLT	#
.LVL321:
	.loc 1 800 9 view .LVU1092
	movl	$1, %edi	#,
	call	exit@PLT	#
.LVL322:
	.cfi_endproc
.LFE5797:
	.size	open_time_file, .-open_time_file
	.section	.rodata.str1.1
.LC22:
	.string	"%lf, %llu\n"
	.text
	.p2align 4
	.globl	write_time
	.type	write_time, @function
write_time:
.LVL323:
.LFB5798:
	.loc 1 809 1 view -0
	.cfi_startproc
	.loc 1 809 1 is_stmt 0 view .LVU1094
	endbr64	
	.loc 1 810 5 is_stmt 1 view .LVU1095
.LVL324:
.LBB403:
.LBI403:
	.loc 6 103 1 view .LVU1096
.LBB404:
	.loc 6 105 3 view .LVU1097
.LBE404:
.LBE403:
# sub_64_aligned.c:809: {
	.loc 1 809 1 is_stmt 0 view .LVU1098
	movq	%rsi, %rcx	# tmp88, rdtsc
.LBB406:
.LBB405:
# /usr/include/x86_64-linux-gnu/bits/stdio2.h:105:   return __fprintf_chk (__stream, __USE_FORTIFY_LEVEL - 1, __fmt,
	.loc 6 105 10 view .LVU1099
	leaq	.LC22(%rip), %rdx	#, tmp85
	movl	$1, %esi	#,
.LVL325:
	.loc 6 105 10 view .LVU1100
	movl	$1, %eax	#,
	jmp	__fprintf_chk@PLT	#
.LVL326:
	.loc 6 105 10 view .LVU1101
.LBE405:
.LBE406:
	.cfi_endproc
.LFE5798:
	.size	write_time, .-write_time
	.section	.rodata.str1.8
	.align 8
.LC23:
	.string	"Memory allocation failed for str\n"
	.text
	.p2align 4
	.globl	convert_digits_to_string
	.type	convert_digits_to_string, @function
convert_digits_to_string:
.LVL327:
.LFB5799:
	.loc 1 815 1 is_stmt 1 view -0
	.cfi_startproc
	.loc 1 815 1 is_stmt 0 view .LVU1103
	endbr64	
	pushq	%rbp	#
	.cfi_def_cfa_offset 16
	.cfi_offset 6, -16
	movq	%rdi, %rbp	# tmp401, digits
	.loc 1 816 5 is_stmt 1 view .LVU1104
# sub_64_aligned.c:815: {
	.loc 1 815 1 is_stmt 0 view .LVU1105
	pushq	%rbx	#
	.cfi_def_cfa_offset 24
	.cfi_offset 3, -24
	movslq	%esi, %rbx	# tmp402,
# sub_64_aligned.c:816:     char *str = (char *)calloc(n + 1, sizeof(char));
	.loc 1 816 25 view .LVU1106
	movl	$1, %esi	#,
.LVL328:
# sub_64_aligned.c:816:     char *str = (char *)calloc(n + 1, sizeof(char));
	.loc 1 816 34 view .LVU1107
	leal	1(%rbx), %edi	#, tmp254
.LVL329:
# sub_64_aligned.c:816:     char *str = (char *)calloc(n + 1, sizeof(char));
	.loc 1 816 25 view .LVU1108
	movslq	%edi, %rdi	# tmp254, tmp255
# sub_64_aligned.c:815: {
	.loc 1 815 1 view .LVU1109
	subq	$8, %rsp	#,
	.cfi_def_cfa_offset 32
# sub_64_aligned.c:816:     char *str = (char *)calloc(n + 1, sizeof(char));
	.loc 1 816 25 view .LVU1110
	call	calloc@PLT	#
.LVL330:
	.loc 1 817 5 is_stmt 1 view .LVU1111
# sub_64_aligned.c:817:     if (str == NULL)
	.loc 1 817 8 is_stmt 0 view .LVU1112
	testq	%rax, %rax	# <retval>
	je	.L278	#,
	movq	%rax, %r8	# tmp403, <retval>
.LVL331:
.LBB412:
	.loc 1 822 23 is_stmt 1 view .LVU1113
	testl	%ebx, %ebx	# n
	jle	.L280	#,
	leal	-1(%rbx), %eax	#, tmp258
.LVL332:
	.loc 1 822 23 is_stmt 0 view .LVU1114
	cmpl	$14, %eax	#, tmp258
	jbe	.L284	#,
	movl	%ebx, %edx	# n, bnd.272
	leaq	128(%rbp), %r9	#, tmp263
	movq	%rbp, %r11	# digits, ivtmp.295
	movq	%r8, %rcx	# <retval>, ivtmp.298
	shrl	$4, %edx	#, bnd.272
	movdqa	.LC24(%rip), %xmm1	#, tmp334
	movdqa	.LC25(%rip), %xmm2	#, tmp335
	leal	-1(%rdx), %esi	#, tmp261
	salq	$7, %rsi	#, tmp262
	addq	%r9, %rsi	# tmp263, _238
	movq	%rsi, %r10	# _238, tmp337
	subq	%rbp, %r10	# digits, tmp337
	andl	$128, %r10d	#, tmp337
	je	.L282	#,
.LVL333:
	.loc 1 824 9 is_stmt 1 view .LVU1115
# sub_64_aligned.c:824:         str[i] = digits[i] + '0';
	.loc 1 824 28 is_stmt 0 view .LVU1116
	movdqu	0(%rbp), %xmm0	# MEM <vector(2) long unsigned int> [(uint64_t *)_128], vect__7.287
	movdqu	16(%rbp), %xmm7	# MEM <vector(2) long unsigned int> [(uint64_t *)_128 + 16B], tmp445
	movq	%r9, %r11	# tmp263, ivtmp.295
	leaq	16(%r8), %rcx	#, ivtmp.298
	movdqu	32(%rbp), %xmm3	# MEM <vector(2) long unsigned int> [(uint64_t *)_128 + 32B], vect__7.287
	movdqu	48(%rbp), %xmm4	# MEM <vector(2) long unsigned int> [(uint64_t *)_128 + 48B], tmp447
	movdqu	64(%rbp), %xmm8	# MEM <vector(2) long unsigned int> [(uint64_t *)_128 + 64B], vect__7.287
	movdqu	80(%rbp), %xmm9	# MEM <vector(2) long unsigned int> [(uint64_t *)_128 + 80B], tmp451
	shufps	$136, %xmm7, %xmm0	#, tmp445, vect__7.287
	movdqa	%xmm0, %xmm5	# vect__7.287, tmp381
	movdqu	96(%rbp), %xmm10	# MEM <vector(2) long unsigned int> [(uint64_t *)_128 + 96B], vect__7.287
	movdqu	112(%rbp), %xmm11	# MEM <vector(2) long unsigned int> [(uint64_t *)_128 + 112B], tmp453
	shufps	$136, %xmm4, %xmm3	#, tmp447, vect__7.287
	punpcklwd	%xmm3, %xmm0	# vect__7.287, vect__7.286
	shufps	$136, %xmm9, %xmm8	#, tmp451, vect__7.287
	movdqa	%xmm8, %xmm12	# vect__7.287, tmp392
	punpckhwd	%xmm3, %xmm5	# vect__7.287, tmp381
	movdqa	%xmm0, %xmm6	# vect__7.286, tmp383
	shufps	$136, %xmm11, %xmm10	#, tmp453, vect__7.287
	punpcklwd	%xmm10, %xmm8	# vect__7.287, vect__7.286
	punpckhwd	%xmm10, %xmm12	# vect__7.287, tmp392
	punpckhwd	%xmm5, %xmm6	# tmp381, tmp383
	movdqa	%xmm8, %xmm13	# vect__7.286, tmp394
	punpcklwd	%xmm5, %xmm0	# tmp381, vect__7.286
	punpcklwd	%xmm12, %xmm8	# tmp392, vect__7.286
	punpckhwd	%xmm12, %xmm13	# tmp392, tmp394
	punpcklwd	%xmm6, %xmm0	# tmp383, vect__7.286
	punpcklwd	%xmm13, %xmm8	# tmp394, vect__7.286
	pand	%xmm1, %xmm0	# tmp334, tmp397
	pand	%xmm1, %xmm8	# tmp334, tmp398
	packuswb	%xmm8, %xmm0	# tmp398, vect__7.285
	paddb	%xmm2, %xmm0	# tmp335, vect__8.288
# sub_64_aligned.c:824:         str[i] = digits[i] + '0';
	.loc 1 824 16 view .LVU1117
	movups	%xmm0, (%r8)	# vect__8.288, MEM <vector(16) char> [(char *)_224]
	.loc 1 822 29 is_stmt 1 view .LVU1118
	.loc 1 822 23 view .LVU1119
	cmpq	%rsi, %r9	# _238, ivtmp.295
	je	.L291	#,
	.p2align 4,,10
	.p2align 3
.L282:
	.loc 1 824 9 discriminator 3 view .LVU1120
# sub_64_aligned.c:824:         str[i] = digits[i] + '0';
	.loc 1 824 28 is_stmt 0 discriminator 3 view .LVU1121
	movdqu	16(%r11), %xmm15	# MEM <vector(2) long unsigned int> [(uint64_t *)_128 + 16B], tmp408
	movdqu	48(%r11), %xmm7	# MEM <vector(2) long unsigned int> [(uint64_t *)_128 + 48B], tmp410
	addq	$32, %rcx	#, ivtmp.298
	addq	$256, %r11	#, ivtmp.295
	movdqu	-176(%r11), %xmm5	# MEM <vector(2) long unsigned int> [(uint64_t *)_128 + 80B], tmp414
	movdqu	-128(%r11), %xmm12	# MEM <vector(2) long unsigned int> [(uint64_t *)_128], vect__7.287
	movdqu	-144(%r11), %xmm9	# MEM <vector(2) long unsigned int> [(uint64_t *)_128 + 112B], tmp416
	movdqu	-112(%r11), %xmm13	# MEM <vector(2) long unsigned int> [(uint64_t *)_128 + 16B], tmp420
	movdqu	-256(%r11), %xmm14	# MEM <vector(2) long unsigned int> [(uint64_t *)_128], vect__7.287
	movdqu	-224(%r11), %xmm0	# MEM <vector(2) long unsigned int> [(uint64_t *)_128 + 32B], vect__7.287
	movdqu	-192(%r11), %xmm8	# MEM <vector(2) long unsigned int> [(uint64_t *)_128 + 64B], vect__7.287
	shufps	$136, %xmm13, %xmm12	#, tmp420, vect__7.287
	movdqu	-160(%r11), %xmm6	# MEM <vector(2) long unsigned int> [(uint64_t *)_128 + 96B], vect__7.287
	shufps	$136, %xmm7, %xmm0	#, tmp410, vect__7.287
	shufps	$136, %xmm15, %xmm14	#, tmp408, vect__7.287
	movdqa	%xmm14, %xmm4	# vect__7.287, tmp271
	punpcklwd	%xmm0, %xmm14	# vect__7.287, vect__7.286
	shufps	$136, %xmm9, %xmm6	#, tmp416, vect__7.287
	shufps	$136, %xmm5, %xmm8	#, tmp414, vect__7.287
	movdqa	%xmm8, %xmm10	# vect__7.287, tmp280
	punpcklwd	%xmm6, %xmm8	# vect__7.287, vect__7.286
	punpckhwd	%xmm0, %xmm4	# vect__7.287, tmp271
	punpckhwd	%xmm6, %xmm10	# vect__7.287, tmp280
	movdqa	%xmm14, %xmm3	# vect__7.286, tmp272
	movdqu	-80(%r11), %xmm15	# MEM <vector(2) long unsigned int> [(uint64_t *)_128 + 48B], tmp422
	movdqa	%xmm8, %xmm11	# vect__7.286, tmp281
	punpckhwd	%xmm4, %xmm3	# tmp271, tmp272
	punpcklwd	%xmm4, %xmm14	# tmp271, vect__7.286
# sub_64_aligned.c:824:         str[i] = digits[i] + '0';
	.loc 1 824 24 discriminator 3 view .LVU1122
	movdqu	-16(%r11), %xmm5	# MEM <vector(2) long unsigned int> [(uint64_t *)_128 + 112B], vect__6.284
# sub_64_aligned.c:824:         str[i] = digits[i] + '0';
	.loc 1 824 28 discriminator 3 view .LVU1123
	punpckhwd	%xmm10, %xmm11	# tmp280, tmp281
	punpcklwd	%xmm10, %xmm8	# tmp280, vect__7.286
	punpcklwd	%xmm3, %xmm14	# tmp272, vect__7.286
	movdqu	-48(%r11), %xmm4	# MEM <vector(2) long unsigned int> [(uint64_t *)_128 + 80B], tmp426
	punpcklwd	%xmm11, %xmm8	# tmp281, vect__7.286
	pand	%xmm1, %xmm14	# tmp334, tmp283
	movdqu	-64(%r11), %xmm3	# MEM <vector(2) long unsigned int> [(uint64_t *)_128 + 64B], vect__7.287
	movdqa	%xmm12, %xmm0	# vect__7.287, tmp355
	pand	%xmm1, %xmm8	# tmp334, tmp284
	packuswb	%xmm8, %xmm14	# tmp284, vect__7.285
# sub_64_aligned.c:824:         str[i] = digits[i] + '0';
	.loc 1 824 24 discriminator 3 view .LVU1124
	movdqu	-32(%r11), %xmm8	# MEM <vector(2) long unsigned int> [(uint64_t *)_128 + 96B], vect__6.283
# sub_64_aligned.c:824:         str[i] = digits[i] + '0';
	.loc 1 824 28 discriminator 3 view .LVU1125
	shufps	$136, %xmm4, %xmm3	#, tmp426, vect__7.287
	movdqa	%xmm3, %xmm6	# vect__7.287, tmp366
	paddb	%xmm2, %xmm14	# tmp335, vect__8.288
# sub_64_aligned.c:824:         str[i] = digits[i] + '0';
	.loc 1 824 16 discriminator 3 view .LVU1126
	movups	%xmm14, -32(%rcx)	# vect__8.288, MEM <vector(16) char> [(char *)_224]
	.loc 1 822 29 is_stmt 1 discriminator 3 view .LVU1127
	.loc 1 822 23 discriminator 3 view .LVU1128
	.loc 1 824 9 discriminator 3 view .LVU1129
# sub_64_aligned.c:824:         str[i] = digits[i] + '0';
	.loc 1 824 28 is_stmt 0 discriminator 3 view .LVU1130
	movdqu	-96(%r11), %xmm14	# MEM <vector(2) long unsigned int> [(uint64_t *)_128 + 32B], vect__7.287
	shufps	$136, %xmm5, %xmm8	#, vect__6.284, vect__7.287
	punpcklwd	%xmm8, %xmm3	# vect__7.287, vect__7.286
	punpckhwd	%xmm8, %xmm6	# vect__7.287, tmp366
	movdqa	%xmm3, %xmm9	# vect__7.286, tmp368
	shufps	$136, %xmm15, %xmm14	#, tmp422, vect__7.287
	punpcklwd	%xmm14, %xmm12	# vect__7.287, vect__7.286
	punpckhwd	%xmm14, %xmm0	# vect__7.287, tmp355
	punpckhwd	%xmm6, %xmm9	# tmp366, tmp368
	movdqa	%xmm12, %xmm7	# vect__7.286, tmp357
	punpcklwd	%xmm6, %xmm3	# tmp366, vect__7.286
	punpcklwd	%xmm0, %xmm12	# tmp355, vect__7.286
	punpckhwd	%xmm0, %xmm7	# tmp355, tmp357
	punpcklwd	%xmm9, %xmm3	# tmp368, vect__7.286
	punpcklwd	%xmm7, %xmm12	# tmp357, vect__7.286
	pand	%xmm1, %xmm3	# tmp334, tmp372
	pand	%xmm1, %xmm12	# tmp334, tmp371
	packuswb	%xmm3, %xmm12	# tmp372, vect__7.285
	paddb	%xmm2, %xmm12	# tmp335, vect__8.288
# sub_64_aligned.c:824:         str[i] = digits[i] + '0';
	.loc 1 824 16 discriminator 3 view .LVU1131
	movups	%xmm12, -16(%rcx)	# vect__8.288, MEM <vector(16) char> [(char *)_224]
	.loc 1 822 29 is_stmt 1 discriminator 3 view .LVU1132
	.loc 1 822 23 discriminator 3 view .LVU1133
	cmpq	%rsi, %r11	# _238, ivtmp.295
	jne	.L282	#,
.L291:
	movl	%ebx, %eax	# n, tmp.274
	andl	$-16, %eax	#, tmp.274
	testb	$15, %bl	#, n
	je	.L280	#,
.L281:
.LVL334:
	.loc 1 824 9 view .LVU1134
# sub_64_aligned.c:824:         str[i] = digits[i] + '0';
	.loc 1 824 24 is_stmt 0 view .LVU1135
	movslq	%eax, %r9	# tmp.274, _4
# sub_64_aligned.c:822:     for (int i = 0; i < n; i++)
	.loc 1 822 29 view .LVU1136
	leal	1(%rax), %r10d	#, i
# sub_64_aligned.c:824:         str[i] = digits[i] + '0';
	.loc 1 824 28 view .LVU1137
	movzbl	0(%rbp,%r9,8), %edi	# *_6, tmp430
# sub_64_aligned.c:824:         str[i] = digits[i] + '0';
	.loc 1 824 24 view .LVU1138
	leaq	0(,%r9,8), %rdx	#, _5
# sub_64_aligned.c:824:         str[i] = digits[i] + '0';
	.loc 1 824 28 view .LVU1139
	leal	48(%rdi), %esi	#, tmp289
	movb	%sil, (%r8,%r9)	# tmp289, *_11
	.loc 1 822 29 is_stmt 1 view .LVU1140
.LVL335:
	.loc 1 822 23 view .LVU1141
	cmpl	%r10d, %ebx	# i, n
	jle	.L280	#,
	.loc 1 824 9 view .LVU1142
# sub_64_aligned.c:824:         str[i] = digits[i] + '0';
	.loc 1 824 28 is_stmt 0 view .LVU1143
	movzbl	8(%rbp,%rdx), %ecx	# *_84, tmp431
# sub_64_aligned.c:824:         str[i] = digits[i] + '0';
	.loc 1 824 24 view .LVU1144
	movslq	%r10d, %r11	# i, i
# sub_64_aligned.c:822:     for (int i = 0; i < n; i++)
	.loc 1 822 29 view .LVU1145
	leal	2(%rax), %edi	#, i
# sub_64_aligned.c:824:         str[i] = digits[i] + '0';
	.loc 1 824 28 view .LVU1146
	leal	48(%rcx), %r9d	#, tmp292
	movb	%r9b, (%r8,%r11)	# tmp292, *_88
	.loc 1 822 29 is_stmt 1 view .LVU1147
.LVL336:
	.loc 1 822 23 view .LVU1148
	cmpl	%edi, %ebx	# i, n
	jle	.L280	#,
	.loc 1 824 9 view .LVU1149
# sub_64_aligned.c:824:         str[i] = digits[i] + '0';
	.loc 1 824 28 is_stmt 0 view .LVU1150
	movzbl	16(%rbp,%rdx), %esi	# *_96, tmp432
# sub_64_aligned.c:824:         str[i] = digits[i] + '0';
	.loc 1 824 24 view .LVU1151
	movslq	%edi, %r10	# i, i
# sub_64_aligned.c:822:     for (int i = 0; i < n; i++)
	.loc 1 822 29 view .LVU1152
	leal	3(%rax), %ecx	#, i
# sub_64_aligned.c:824:         str[i] = digits[i] + '0';
	.loc 1 824 28 view .LVU1153
	leal	48(%rsi), %r11d	#, tmp295
	movb	%r11b, (%r8,%r10)	# tmp295, *_100
	.loc 1 822 29 is_stmt 1 view .LVU1154
.LVL337:
	.loc 1 822 23 view .LVU1155
	cmpl	%ecx, %ebx	# i, n
	jle	.L280	#,
	.loc 1 824 9 view .LVU1156
# sub_64_aligned.c:824:         str[i] = digits[i] + '0';
	.loc 1 824 28 is_stmt 0 view .LVU1157
	movzbl	24(%rbp,%rdx), %edi	# *_108, tmp433
# sub_64_aligned.c:824:         str[i] = digits[i] + '0';
	.loc 1 824 24 view .LVU1158
	movslq	%ecx, %r9	# i, i
# sub_64_aligned.c:822:     for (int i = 0; i < n; i++)
	.loc 1 822 29 view .LVU1159
	leal	4(%rax), %esi	#, i
# sub_64_aligned.c:824:         str[i] = digits[i] + '0';
	.loc 1 824 28 view .LVU1160
	leal	48(%rdi), %r10d	#, tmp298
	movb	%r10b, (%r8,%r9)	# tmp298, *_112
	.loc 1 822 29 is_stmt 1 view .LVU1161
.LVL338:
	.loc 1 822 23 view .LVU1162
	cmpl	%esi, %ebx	# i, n
	jle	.L280	#,
	.loc 1 824 9 view .LVU1163
# sub_64_aligned.c:824:         str[i] = digits[i] + '0';
	.loc 1 824 28 is_stmt 0 view .LVU1164
	movzbl	32(%rbp,%rdx), %ecx	# *_120, tmp434
# sub_64_aligned.c:824:         str[i] = digits[i] + '0';
	.loc 1 824 24 view .LVU1165
	movslq	%esi, %r11	# i, i
# sub_64_aligned.c:822:     for (int i = 0; i < n; i++)
	.loc 1 822 29 view .LVU1166
	leal	5(%rax), %edi	#, i
# sub_64_aligned.c:824:         str[i] = digits[i] + '0';
	.loc 1 824 28 view .LVU1167
	leal	48(%rcx), %r9d	#, tmp301
	movb	%r9b, (%r8,%r11)	# tmp301, *_124
	.loc 1 822 29 is_stmt 1 view .LVU1168
.LVL339:
	.loc 1 822 23 view .LVU1169
	cmpl	%edi, %ebx	# i, n
	jle	.L280	#,
	.loc 1 824 9 view .LVU1170
# sub_64_aligned.c:824:         str[i] = digits[i] + '0';
	.loc 1 824 28 is_stmt 0 view .LVU1171
	movzbl	40(%rbp,%rdx), %esi	# *_132, tmp435
# sub_64_aligned.c:824:         str[i] = digits[i] + '0';
	.loc 1 824 24 view .LVU1172
	movslq	%edi, %r10	# i, i
# sub_64_aligned.c:822:     for (int i = 0; i < n; i++)
	.loc 1 822 29 view .LVU1173
	leal	6(%rax), %ecx	#, i
# sub_64_aligned.c:824:         str[i] = digits[i] + '0';
	.loc 1 824 28 view .LVU1174
	leal	48(%rsi), %r11d	#, tmp304
	movb	%r11b, (%r8,%r10)	# tmp304, *_136
	.loc 1 822 29 is_stmt 1 view .LVU1175
.LVL340:
	.loc 1 822 23 view .LVU1176
	cmpl	%ecx, %ebx	# i, n
	jle	.L280	#,
	.loc 1 824 9 view .LVU1177
# sub_64_aligned.c:824:         str[i] = digits[i] + '0';
	.loc 1 824 28 is_stmt 0 view .LVU1178
	movzbl	48(%rbp,%rdx), %edi	# *_144, tmp436
# sub_64_aligned.c:824:         str[i] = digits[i] + '0';
	.loc 1 824 24 view .LVU1179
	movslq	%ecx, %r9	# i, i
# sub_64_aligned.c:822:     for (int i = 0; i < n; i++)
	.loc 1 822 29 view .LVU1180
	leal	7(%rax), %esi	#, i
# sub_64_aligned.c:824:         str[i] = digits[i] + '0';
	.loc 1 824 28 view .LVU1181
	leal	48(%rdi), %r10d	#, tmp307
	movb	%r10b, (%r8,%r9)	# tmp307, *_148
	.loc 1 822 29 is_stmt 1 view .LVU1182
.LVL341:
	.loc 1 822 23 view .LVU1183
	cmpl	%esi, %ebx	# i, n
	jle	.L280	#,
	.loc 1 824 9 view .LVU1184
# sub_64_aligned.c:824:         str[i] = digits[i] + '0';
	.loc 1 824 28 is_stmt 0 view .LVU1185
	movzbl	56(%rbp,%rdx), %ecx	# *_156, tmp437
# sub_64_aligned.c:824:         str[i] = digits[i] + '0';
	.loc 1 824 24 view .LVU1186
	movslq	%esi, %r11	# i, i
# sub_64_aligned.c:822:     for (int i = 0; i < n; i++)
	.loc 1 822 29 view .LVU1187
	leal	8(%rax), %edi	#, i
# sub_64_aligned.c:824:         str[i] = digits[i] + '0';
	.loc 1 824 28 view .LVU1188
	leal	48(%rcx), %r9d	#, tmp310
	movb	%r9b, (%r8,%r11)	# tmp310, *_160
	.loc 1 822 29 is_stmt 1 view .LVU1189
.LVL342:
	.loc 1 822 23 view .LVU1190
	cmpl	%edi, %ebx	# i, n
	jle	.L280	#,
	.loc 1 824 9 view .LVU1191
# sub_64_aligned.c:824:         str[i] = digits[i] + '0';
	.loc 1 824 28 is_stmt 0 view .LVU1192
	movzbl	64(%rbp,%rdx), %esi	# *_168, tmp438
# sub_64_aligned.c:824:         str[i] = digits[i] + '0';
	.loc 1 824 24 view .LVU1193
	movslq	%edi, %r10	# i, i
# sub_64_aligned.c:822:     for (int i = 0; i < n; i++)
	.loc 1 822 29 view .LVU1194
	leal	9(%rax), %ecx	#, i
# sub_64_aligned.c:824:         str[i] = digits[i] + '0';
	.loc 1 824 28 view .LVU1195
	leal	48(%rsi), %r11d	#, tmp313
	movb	%r11b, (%r8,%r10)	# tmp313, *_172
	.loc 1 822 29 is_stmt 1 view .LVU1196
.LVL343:
	.loc 1 822 23 view .LVU1197
	cmpl	%ecx, %ebx	# i, n
	jle	.L280	#,
	.loc 1 824 9 view .LVU1198
# sub_64_aligned.c:824:         str[i] = digits[i] + '0';
	.loc 1 824 28 is_stmt 0 view .LVU1199
	movzbl	72(%rbp,%rdx), %edi	# *_180, tmp439
# sub_64_aligned.c:824:         str[i] = digits[i] + '0';
	.loc 1 824 24 view .LVU1200
	movslq	%ecx, %r9	# i, i
# sub_64_aligned.c:822:     for (int i = 0; i < n; i++)
	.loc 1 822 29 view .LVU1201
	leal	10(%rax), %esi	#, i
# sub_64_aligned.c:824:         str[i] = digits[i] + '0';
	.loc 1 824 28 view .LVU1202
	leal	48(%rdi), %r10d	#, tmp316
	movb	%r10b, (%r8,%r9)	# tmp316, *_184
	.loc 1 822 29 is_stmt 1 view .LVU1203
.LVL344:
	.loc 1 822 23 view .LVU1204
	cmpl	%esi, %ebx	# i, n
	jle	.L280	#,
	.loc 1 824 9 view .LVU1205
# sub_64_aligned.c:824:         str[i] = digits[i] + '0';
	.loc 1 824 28 is_stmt 0 view .LVU1206
	movzbl	80(%rbp,%rdx), %ecx	# *_192, tmp440
# sub_64_aligned.c:824:         str[i] = digits[i] + '0';
	.loc 1 824 24 view .LVU1207
	movslq	%esi, %r11	# i, i
# sub_64_aligned.c:822:     for (int i = 0; i < n; i++)
	.loc 1 822 29 view .LVU1208
	leal	11(%rax), %edi	#, i
# sub_64_aligned.c:824:         str[i] = digits[i] + '0';
	.loc 1 824 28 view .LVU1209
	leal	48(%rcx), %r9d	#, tmp319
	movb	%r9b, (%r8,%r11)	# tmp319, *_196
	.loc 1 822 29 is_stmt 1 view .LVU1210
.LVL345:
	.loc 1 822 23 view .LVU1211
	cmpl	%edi, %ebx	# i, n
	jle	.L280	#,
	.loc 1 824 9 view .LVU1212
# sub_64_aligned.c:824:         str[i] = digits[i] + '0';
	.loc 1 824 28 is_stmt 0 view .LVU1213
	movzbl	88(%rbp,%rdx), %esi	# *_204, tmp441
# sub_64_aligned.c:824:         str[i] = digits[i] + '0';
	.loc 1 824 24 view .LVU1214
	movslq	%edi, %r10	# i, i
# sub_64_aligned.c:822:     for (int i = 0; i < n; i++)
	.loc 1 822 29 view .LVU1215
	leal	12(%rax), %ecx	#, i
# sub_64_aligned.c:824:         str[i] = digits[i] + '0';
	.loc 1 824 28 view .LVU1216
	leal	48(%rsi), %r11d	#, tmp322
	movb	%r11b, (%r8,%r10)	# tmp322, *_208
	.loc 1 822 29 is_stmt 1 view .LVU1217
.LVL346:
	.loc 1 822 23 view .LVU1218
	cmpl	%ecx, %ebx	# i, n
	jle	.L280	#,
	.loc 1 824 9 view .LVU1219
# sub_64_aligned.c:824:         str[i] = digits[i] + '0';
	.loc 1 824 28 is_stmt 0 view .LVU1220
	movzbl	96(%rbp,%rdx), %edi	# *_216, tmp442
# sub_64_aligned.c:824:         str[i] = digits[i] + '0';
	.loc 1 824 24 view .LVU1221
	movslq	%ecx, %r9	# i, i
# sub_64_aligned.c:822:     for (int i = 0; i < n; i++)
	.loc 1 822 29 view .LVU1222
	leal	13(%rax), %r10d	#, i
# sub_64_aligned.c:824:         str[i] = digits[i] + '0';
	.loc 1 824 28 view .LVU1223
	addl	$48, %edi	#, tmp325
	movb	%dil, (%r8,%r9)	# tmp325, *_220
	.loc 1 822 29 is_stmt 1 view .LVU1224
.LVL347:
	.loc 1 822 23 view .LVU1225
	cmpl	%r10d, %ebx	# i, n
	jle	.L280	#,
	.loc 1 824 9 view .LVU1226
# sub_64_aligned.c:824:         str[i] = digits[i] + '0';
	.loc 1 824 28 is_stmt 0 view .LVU1227
	movzbl	104(%rbp,%rdx), %esi	# *_228, tmp443
# sub_64_aligned.c:824:         str[i] = digits[i] + '0';
	.loc 1 824 24 view .LVU1228
	movslq	%r10d, %r11	# i, i
# sub_64_aligned.c:822:     for (int i = 0; i < n; i++)
	.loc 1 822 29 view .LVU1229
	addl	$14, %eax	#, i
# sub_64_aligned.c:824:         str[i] = digits[i] + '0';
	.loc 1 824 28 view .LVU1230
	leal	48(%rsi), %ecx	#, tmp328
	movb	%cl, (%r8,%r11)	# tmp328, *_232
	.loc 1 822 29 is_stmt 1 view .LVU1231
.LVL348:
	.loc 1 822 23 view .LVU1232
	cmpl	%eax, %ebx	# i, n
	jle	.L280	#,
	.loc 1 824 9 view .LVU1233
# sub_64_aligned.c:824:         str[i] = digits[i] + '0';
	.loc 1 824 28 is_stmt 0 view .LVU1234
	movq	112(%rbp,%rdx), %rbp	# *_34, *_34
.LVL349:
# sub_64_aligned.c:824:         str[i] = digits[i] + '0';
	.loc 1 824 24 view .LVU1235
	cltq
# sub_64_aligned.c:824:         str[i] = digits[i] + '0';
	.loc 1 824 28 view .LVU1236
	addl	$48, %ebp	#, tmp331
	movb	%bpl, (%r8,%rax)	# tmp331, *_30
	.loc 1 822 29 is_stmt 1 view .LVU1237
	.loc 1 822 23 view .LVU1238
.L280:
	.loc 1 822 23 is_stmt 0 view .LVU1239
.LBE412:
	.loc 1 826 5 is_stmt 1 view .LVU1240
# sub_64_aligned.c:826:     str[n] = '\0';
	.loc 1 826 12 is_stmt 0 view .LVU1241
	movb	$0, (%r8,%rbx)	#, *_13
	.loc 1 827 5 is_stmt 1 view .LVU1242
# sub_64_aligned.c:828: }
	.loc 1 828 1 is_stmt 0 view .LVU1243
	addq	$8, %rsp	#,
	.cfi_remember_state
	.cfi_def_cfa_offset 24
	movq	%r8, %rax	# <retval>,
	popq	%rbx	#
	.cfi_def_cfa_offset 16
.LVL350:
	.loc 1 828 1 view .LVU1244
	popq	%rbp	#
	.cfi_def_cfa_offset 8
	ret	
.LVL351:
.L284:
	.cfi_restore_state
.LBB413:
# sub_64_aligned.c:822:     for (int i = 0; i < n; i++)
	.loc 1 822 14 view .LVU1245
	xorl	%eax, %eax	# tmp.274
	jmp	.L281	#
.LVL352:
.L278:
	.loc 1 822 14 view .LVU1246
.LBE413:
.LBB414:
.LBI414:
	.loc 1 814 7 is_stmt 1 view .LVU1247
.LBB415:
	.loc 1 819 9 view .LVU1248
	leaq	.LC23(%rip), %rdi	#, tmp257
	call	perror@PLT	#
.LVL353:
	.loc 1 820 9 view .LVU1249
	xorl	%edi, %edi	#
	call	exit@PLT	#
.LVL354:
.LBE415:
.LBE414:
	.cfi_endproc
.LFE5799:
	.size	convert_digits_to_string, .-convert_digits_to_string
	.section	.rodata.str1.8
	.align 8
.LC26:
	.string	"experiments/sub_limb_avx_%d_%d.csv"
	.section	.rodata.str1.1
.LC27:
	.string	"experiments/GMP_%d_%d.csv"
.LC28:
	.string	"experiments/my_time_%d_%d.csv"
	.section	.rodata.str1.8
	.align 8
.LC29:
	.string	"experiments/gmp_time_%d_%d.csv"
	.section	.rodata.str1.1
.LC30:
	.string	"Number of bits = %d\n"
.LC31:
	.string	"Number of digits = %d\n"
.LC32:
	.string	"Running tests"
.LC33:
	.string	"Test 1: No Borrow-Propagation"
	.section	.rodata.str1.8
	.align 8
.LC34:
	.string	"Running test 1, with %d iterations\n"
	.section	.rodata.str1.1
.LC35:
	.string	"Error in rdtsc\n"
	.section	.rodata.str1.8
	.align 8
.LC36:
	.string	"Test 1 failed, at iteration %d\n"
	.section	.rodata.str1.1
.LC37:
	.string	"Test 1 iteration %d passed\n"
.LC38:
	.string	"Test 1 completed"
	.section	.rodata.str1.8
	.align 8
.LC39:
	.string	"rdtsc for test 1 = %llu, rdtsc for test 1 gmp = %llu\n"
	.section	.rodata.str1.1
.LC40:
	.string	"RDTSC Speedup: %f\n"
	.text
	.p2align 4
	.globl	run_tests
	.type	run_tests, @function
run_tests:
.LFB5800:
	.loc 1 841 1 view -0
	.cfi_startproc
	endbr64	
	leaq	8(%rsp), %r10	#,
	.cfi_def_cfa 10, 0
	andq	$-64, %rsp	#,
	pushq	-8(%r10)	#
	pushq	%rbp	#
	movq	%rsp, %rbp	#,
	.cfi_escape 0x10,0x6,0x2,0x76,0
	pushq	%r15	#
	pushq	%r14	#
	.cfi_escape 0x10,0xf,0x2,0x76,0x78
	.cfi_escape 0x10,0xe,0x2,0x76,0x70
.LBB540:
.LBB541:
# sub_64_aligned.c:604:     FILE *file = fopen(filename, "w");
	.loc 1 604 18 is_stmt 0 view .LVU1251
	leaq	.LC13(%rip), %r14	#, tmp1037
.LBE541:
.LBE540:
# sub_64_aligned.c:841: {
	.loc 1 841 1 view .LVU1252
	pushq	%r13	#
	pushq	%r12	#
	pushq	%r10	#
	.cfi_escape 0xf,0x3,0x76,0x58,0x6
	.cfi_escape 0x10,0xd,0x2,0x76,0x68
	.cfi_escape 0x10,0xc,0x2,0x76,0x60
	pushq	%rbx	#
	.cfi_escape 0x10,0x3,0x2,0x76,0x50
.LBB553:
.LBB554:
# /usr/include/x86_64-linux-gnu/bits/stdio2.h:71:   return __builtin___snprintf_chk (__s, __n, __USE_FORTIFY_LEVEL - 1,
	.loc 6 71 10 view .LVU1253
	leaq	-1088(%rbp), %rbx	#, _252
.LBE554:
.LBE553:
# sub_64_aligned.c:841: {
	.loc 1 841 1 view .LVU1254
	subq	$1472, %rsp	#,
# sub_64_aligned.c:841: {
	.loc 1 841 1 view .LVU1255
	movq	%fs:40, %rax	# MEM[(<address-space-1> long unsigned int *)40B], tmp1541
	movq	%rax, -56(%rbp)	# tmp1541, D.39990
	xorl	%eax, %eax	# tmp1541
	.loc 1 842 5 is_stmt 1 view .LVU1256
	call	initialize_perf	#
.LVL355:
	.loc 1 843 5 view .LVU1257
	.loc 1 844 5 view .LVU1258
	.loc 1 845 5 view .LVU1259
	.loc 1 846 5 view .LVU1260
	.loc 1 848 5 view .LVU1261
.LBB556:
.LBI553:
	.loc 6 68 1 view .LVU1262
.LBB555:
	.loc 6 71 3 view .LVU1263
# /usr/include/x86_64-linux-gnu/bits/stdio2.h:71:   return __builtin___snprintf_chk (__s, __n, __USE_FORTIFY_LEVEL - 1,
	.loc 6 71 10 is_stmt 0 view .LVU1264
	movl	CORE_NO(%rip), %eax	# CORE_NO, CORE_NO
	subq	$8, %rsp	#,
	movl	NUM_BITS(%rip), %r9d	# NUM_BITS,
	leaq	.LC26(%rip), %r8	#,
	movl	$256, %ecx	#,
	movl	$1, %edx	#,
	movq	%rbx, %rdi	# _252,
	pushq	%rax	# CORE_NO
	movl	$256, %esi	#,
	xorl	%eax, %eax	#
	movq	%rbx, -1448(%rbp)	# _252, %sfp
	call	__snprintf_chk@PLT	#
.LVL356:
	.loc 6 71 10 view .LVU1265
.LBE555:
.LBE556:
	.loc 1 849 5 is_stmt 1 view .LVU1266
.LBB557:
.LBI557:
	.loc 6 68 1 view .LVU1267
.LBB558:
	.loc 6 71 3 view .LVU1268
# /usr/include/x86_64-linux-gnu/bits/stdio2.h:71:   return __builtin___snprintf_chk (__s, __n, __USE_FORTIFY_LEVEL - 1,
	.loc 6 71 10 is_stmt 0 view .LVU1269
	movl	CORE_NO(%rip), %ecx	# CORE_NO, CORE_NO
	xorl	%eax, %eax	#
	leaq	-832(%rbp), %rdx	#, tmp1043
.LVL357:
	.loc 6 71 10 view .LVU1270
	movl	NUM_BITS(%rip), %r9d	# NUM_BITS,
	movq	%rdx, %rdi	# tmp1043, tmp1043
	movq	%rdx, -1360(%rbp)	# tmp1043, %sfp
	leaq	.LC27(%rip), %r8	#,
	movl	%ecx, (%rsp)	# CORE_NO,
	movl	$1, %edx	#,
.LVL358:
	.loc 6 71 10 view .LVU1271
	movl	$256, %ecx	#,
	movl	$256, %esi	#,
	call	__snprintf_chk@PLT	#
.LVL359:
	.loc 6 71 10 view .LVU1272
.LBE558:
.LBE557:
	.loc 1 850 5 is_stmt 1 view .LVU1273
.LBB559:
.LBI559:
	.loc 6 68 1 view .LVU1274
.LBB560:
	.loc 6 71 3 view .LVU1275
# /usr/include/x86_64-linux-gnu/bits/stdio2.h:71:   return __builtin___snprintf_chk (__s, __n, __USE_FORTIFY_LEVEL - 1,
	.loc 6 71 10 is_stmt 0 view .LVU1276
	movl	CORE_NO(%rip), %r8d	# CORE_NO, CORE_NO
	movl	$256, %ecx	#,
	xorl	%eax, %eax	#
	leaq	-576(%rbp), %rsi	#, tmp1035
.LVL360:
	.loc 6 71 10 view .LVU1277
	movl	NUM_BITS(%rip), %r9d	# NUM_BITS,
	movl	$1, %edx	#,
	movl	%r8d, (%rsp)	# CORE_NO,
	movq	%rsi, %rdi	# tmp1035, tmp1035
	leaq	.LC28(%rip), %r8	#,
	movq	%rsi, -1352(%rbp)	# tmp1035, %sfp
	movl	$256, %esi	#,
.LVL361:
	.loc 6 71 10 view .LVU1278
	call	__snprintf_chk@PLT	#
.LVL362:
	.loc 6 71 10 view .LVU1279
.LBE560:
.LBE559:
	.loc 1 851 5 is_stmt 1 view .LVU1280
.LBB561:
.LBI561:
	.loc 6 68 1 view .LVU1281
.LBB562:
	.loc 6 71 3 view .LVU1282
# /usr/include/x86_64-linux-gnu/bits/stdio2.h:71:   return __builtin___snprintf_chk (__s, __n, __USE_FORTIFY_LEVEL - 1,
	.loc 6 71 10 is_stmt 0 view .LVU1283
	leaq	-320(%rbp), %r9	#, tmp1048
.LVL363:
	.loc 6 71 10 view .LVU1284
	movl	$256, %ecx	#,
	xorl	%eax, %eax	#
	movl	CORE_NO(%rip), %r11d	# CORE_NO, CORE_NO
	movq	%r9, %rdi	# tmp1048, tmp1048
	movq	%r9, -1368(%rbp)	# tmp1048, %sfp
	movl	$1, %edx	#,
	movl	NUM_BITS(%rip), %r9d	# NUM_BITS,
.LVL364:
	.loc 6 71 10 view .LVU1285
	leaq	.LC29(%rip), %r8	#,
	movl	$256, %esi	#,
	movl	%r11d, (%rsp)	# CORE_NO,
	call	__snprintf_chk@PLT	#
.LVL365:
	.loc 6 71 10 view .LVU1286
.LBE562:
.LBE561:
	.loc 1 852 5 is_stmt 1 view .LVU1287
.LBB563:
.LBI540:
	.loc 1 602 7 view .LVU1288
.LBB551:
	.loc 1 604 5 view .LVU1289
# sub_64_aligned.c:604:     FILE *file = fopen(filename, "w");
	.loc 1 604 18 is_stmt 0 view .LVU1290
	movq	%r14, %rsi	# tmp1037,
	movq	%rbx, %rdi	# _252,
	call	fopen@PLT	#
.LVL366:
# sub_64_aligned.c:606:     if (file == NULL)
	.loc 1 606 8 view .LVU1291
	popq	%rdx	#
	popq	%rcx	#
# sub_64_aligned.c:604:     FILE *file = fopen(filename, "w");
	.loc 1 604 18 view .LVU1292
	movq	%rax, -1408(%rbp)	# file, %sfp
.LVL367:
	.loc 1 606 5 is_stmt 1 view .LVU1293
# sub_64_aligned.c:606:     if (file == NULL)
	.loc 1 606 8 is_stmt 0 view .LVU1294
	testq	%rax, %rax	# file
	je	.L296	#,
	leaq	event_names(%rip), %rdi	#, ivtmp.524
	movq	-1408(%rbp), %rbx	# %sfp, file
.LVL368:
	.loc 1 606 8 view .LVU1295
	leaq	.LC14(%rip), %r13	#, tmp1038
	movq	%rdi, -1376(%rbp)	# ivtmp.524, %sfp
	leaq	48(%rdi), %r12	#, _1025
	movq	%rdi, %r15	# ivtmp.524, ivtmp.531
.LVL369:
	.p2align 4,,10
	.p2align 3
.L295:
.LBB542:
	.loc 1 615 9 is_stmt 1 view .LVU1296
.LBB543:
.LBI543:
	.loc 6 103 1 view .LVU1297
.LBB544:
	.loc 6 105 3 view .LVU1298
# /usr/include/x86_64-linux-gnu/bits/stdio2.h:105:   return __fprintf_chk (__stream, __USE_FORTIFY_LEVEL - 1, __fmt,
	.loc 6 105 10 is_stmt 0 view .LVU1299
	movq	(%r15), %rcx	# MEM[(const char * *)_1023],
	movq	%r13, %rdx	# tmp1038,
	movl	$1, %esi	#,
	movq	%rbx, %rdi	# file,
	xorl	%eax, %eax	#
.LBE544:
.LBE543:
# sub_64_aligned.c:613:     for (int j = 0; j < MAX_EVENTS; j++)
	.loc 1 613 23 view .LVU1300
	addq	$8, %r15	#, ivtmp.531
.LVL370:
.LBB546:
.LBB545:
# /usr/include/x86_64-linux-gnu/bits/stdio2.h:105:   return __fprintf_chk (__stream, __USE_FORTIFY_LEVEL - 1, __fmt,
	.loc 6 105 10 view .LVU1301
	call	__fprintf_chk@PLT	#
.LVL371:
	.loc 6 105 10 view .LVU1302
.LBE545:
.LBE546:
	.loc 1 613 38 is_stmt 1 view .LVU1303
	.loc 1 613 23 view .LVU1304
	cmpq	%r12, %r15	# _1025, ivtmp.531
	jne	.L295	#,
.LBE542:
.LBB547:
.LBB548:
# /usr/include/x86_64-linux-gnu/bits/stdio2.h:105:   return __fprintf_chk (__stream, __USE_FORTIFY_LEVEL - 1, __fmt,
	.loc 6 105 10 is_stmt 0 view .LVU1305
	movq	-1408(%rbp), %rsi	# %sfp,
	movl	$10, %edi	#,
	movq	-1376(%rbp), %rbx	# %sfp, ivtmp.524
.LVL372:
	.loc 6 105 10 view .LVU1306
.LBE548:
.LBE547:
	.loc 1 617 5 is_stmt 1 view .LVU1307
.LBB550:
.LBI547:
	.loc 6 103 1 view .LVU1308
.LBB549:
	.loc 6 105 3 view .LVU1309
# /usr/include/x86_64-linux-gnu/bits/stdio2.h:105:   return __fprintf_chk (__stream, __USE_FORTIFY_LEVEL - 1, __fmt,
	.loc 6 105 10 is_stmt 0 view .LVU1310
	call	fputc@PLT	#
.LVL373:
	.loc 6 105 10 view .LVU1311
.LBE549:
.LBE550:
	.loc 1 618 5 is_stmt 1 view .LVU1312
	.loc 1 618 5 is_stmt 0 view .LVU1313
.LBE551:
.LBE563:
	.loc 1 853 5 is_stmt 1 view .LVU1314
.LBB564:
.LBI564:
	.loc 1 602 7 view .LVU1315
.LBB565:
	.loc 1 604 5 view .LVU1316
# sub_64_aligned.c:604:     FILE *file = fopen(filename, "w");
	.loc 1 604 18 is_stmt 0 view .LVU1317
	movq	-1360(%rbp), %rdi	# %sfp,
	movq	%r14, %rsi	# tmp1037,
	call	fopen@PLT	#
.LVL374:
	movq	%rax, -1432(%rbp)	# file, %sfp
.LVL375:
	.loc 1 606 5 is_stmt 1 view .LVU1318
# sub_64_aligned.c:606:     if (file == NULL)
	.loc 1 606 8 is_stmt 0 view .LVU1319
	testq	%rax, %rax	# file
	je	.L296	#,
	movq	%rax, %r15	# file, file
.LVL376:
	.p2align 4,,10
	.p2align 3
.L297:
.LBB566:
	.loc 1 615 9 is_stmt 1 view .LVU1320
.LBB567:
.LBI567:
	.loc 6 103 1 view .LVU1321
.LBB568:
	.loc 6 105 3 view .LVU1322
# /usr/include/x86_64-linux-gnu/bits/stdio2.h:105:   return __fprintf_chk (__stream, __USE_FORTIFY_LEVEL - 1, __fmt,
	.loc 6 105 10 is_stmt 0 view .LVU1323
	movq	(%rbx), %rcx	# MEM[(const char * *)_1017],
	movq	%r13, %rdx	# tmp1038,
	movl	$1, %esi	#,
	movq	%r15, %rdi	# file,
	xorl	%eax, %eax	#
.LBE568:
.LBE567:
# sub_64_aligned.c:613:     for (int j = 0; j < MAX_EVENTS; j++)
	.loc 1 613 23 view .LVU1324
	addq	$8, %rbx	#, ivtmp.524
.LVL377:
.LBB570:
.LBB569:
# /usr/include/x86_64-linux-gnu/bits/stdio2.h:105:   return __fprintf_chk (__stream, __USE_FORTIFY_LEVEL - 1, __fmt,
	.loc 6 105 10 view .LVU1325
	call	__fprintf_chk@PLT	#
.LVL378:
	.loc 6 105 10 view .LVU1326
.LBE569:
.LBE570:
	.loc 1 613 38 is_stmt 1 view .LVU1327
	.loc 1 613 23 view .LVU1328
	cmpq	%r12, %rbx	# _1025, ivtmp.524
	jne	.L297	#,
.LBE566:
	.loc 1 617 5 view .LVU1329
.LVL379:
.LBB571:
.LBI571:
	.loc 6 103 1 view .LVU1330
.LBB572:
	.loc 6 105 3 view .LVU1331
# /usr/include/x86_64-linux-gnu/bits/stdio2.h:105:   return __fprintf_chk (__stream, __USE_FORTIFY_LEVEL - 1, __fmt,
	.loc 6 105 10 is_stmt 0 view .LVU1332
	movq	-1432(%rbp), %rsi	# %sfp,
	movl	$10, %edi	#,
.LBE572:
.LBE571:
.LBE565:
.LBE564:
# sub_64_aligned.c:861:     mpz_init(sample_num);
	.loc 1 861 5 view .LVU1333
	leaq	-1232(%rbp), %r12	#, tmp684
# sub_64_aligned.c:864:     gmp_randinit_default(state);
	.loc 1 864 5 view .LVU1334
	leaq	-1168(%rbp), %r13	#, tmp685
.LBB576:
.LBB575:
.LBB574:
.LBB573:
# /usr/include/x86_64-linux-gnu/bits/stdio2.h:105:   return __fprintf_chk (__stream, __USE_FORTIFY_LEVEL - 1, __fmt,
	.loc 6 105 10 view .LVU1335
	call	fputc@PLT	#
.LVL380:
	.loc 6 105 10 view .LVU1336
.LBE573:
.LBE574:
	.loc 1 618 5 is_stmt 1 view .LVU1337
	.loc 1 618 5 is_stmt 0 view .LVU1338
.LBE575:
.LBE576:
	.loc 1 854 5 is_stmt 1 view .LVU1339
# sub_64_aligned.c:854:     FILE *time_file = fopen(time_filename, "w");
	.loc 1 854 23 is_stmt 0 view .LVU1340
	movq	-1352(%rbp), %rdi	# %sfp,
	movq	%r14, %rsi	# tmp1037,
	call	fopen@PLT	#
.LVL381:
	.loc 1 855 5 is_stmt 1 view .LVU1341
# sub_64_aligned.c:855:     FILE *time_file_gmp = fopen(time_filename_gmp, "w");
	.loc 1 855 27 is_stmt 0 view .LVU1342
	movq	-1368(%rbp), %rdi	# %sfp,
	movq	%r14, %rsi	# tmp1037,
	call	fopen@PLT	#
.LVL382:
	.loc 1 857 5 is_stmt 1 view .LVU1343
	.loc 1 860 5 view .LVU1344
	.loc 1 861 5 view .LVU1345
	movq	%r12, %rdi	# tmp684,
	call	__gmpz_init@PLT	#
.LVL383:
	.loc 1 862 5 view .LVU1346
	.loc 1 863 5 view .LVU1347
# sub_64_aligned.c:863:     unsigned long seed = generate_seed();
	.loc 1 863 26 is_stmt 0 view .LVU1348
	xorl	%eax, %eax	#
	call	generate_seed	#
.LVL384:
# sub_64_aligned.c:864:     gmp_randinit_default(state);
	.loc 1 864 5 view .LVU1349
	movq	%r13, %rdi	# tmp685,
# sub_64_aligned.c:863:     unsigned long seed = generate_seed();
	.loc 1 863 26 view .LVU1350
	movq	%rax, %r14	# tmp1527, seed
.LVL385:
	.loc 1 864 5 is_stmt 1 view .LVU1351
	call	__gmp_randinit_default@PLT	#
.LVL386:
	.loc 1 865 5 view .LVU1352
	movq	%r14, %rsi	# seed,
	movq	%r13, %rdi	# tmp685,
	call	__gmp_randseed_ui@PLT	#
.LVL387:
	.loc 1 866 5 view .LVU1353
	movslq	NUM_BITS(%rip), %rdx	# NUM_BITS, NUM_BITS
	movq	%r13, %rsi	# tmp685,
	movq	%r12, %rdi	# tmp684,
	call	__gmpz_urandomb@PLT	#
.LVL388:
	.loc 1 867 5 view .LVU1354
# sub_64_aligned.c:867:     char *sample_num_str = mpz_get_str(NULL, 10, sample_num);
	.loc 1 867 28 is_stmt 0 view .LVU1355
	movq	%r12, %rdx	# tmp684,
	movl	$10, %esi	#,
	xorl	%edi, %edi	#
	call	__gmpz_get_str@PLT	#
.LVL389:
	movq	%rax, %rdi	# tmp1528, sample_num_str
.LVL390:
	.loc 1 868 5 is_stmt 1 view .LVU1356
# sub_64_aligned.c:868:     int n = strlen(sample_num_str);
	.loc 1 868 13 is_stmt 0 view .LVU1357
	call	strlen@PLT	#
.LVL391:
.LBB577:
.LBB578:
# /usr/include/x86_64-linux-gnu/bits/stdio2.h:112:   return __printf_chk (__USE_FORTIFY_LEVEL - 1, __fmt, __va_arg_pack ());
	.loc 6 112 10 view .LVU1358
	movl	NUM_BITS(%rip), %edx	# NUM_BITS,
	movl	$1, %edi	#,
	leaq	.LC30(%rip), %rsi	#, tmp696
.LBE578:
.LBE577:
# sub_64_aligned.c:868:     int n = strlen(sample_num_str);
	.loc 1 868 9 view .LVU1359
	movl	%eax, -1360(%rbp)	# n.28_22, %sfp
	movl	%eax, %ebx	# tmp693, n.28_22
	movl	%eax, -1344(%rbp)	# tmp693, n
	.loc 1 870 5 is_stmt 1 view .LVU1360
	.loc 1 872 5 view .LVU1361
	.loc 1 874 5 view .LVU1362
.LVL392:
.LBB580:
.LBI577:
	.loc 6 110 1 view .LVU1363
.LBB579:
	.loc 6 112 3 view .LVU1364
# /usr/include/x86_64-linux-gnu/bits/stdio2.h:112:   return __printf_chk (__USE_FORTIFY_LEVEL - 1, __fmt, __va_arg_pack ());
	.loc 6 112 10 is_stmt 0 view .LVU1365
	xorl	%eax, %eax	#
	call	__printf_chk@PLT	#
.LVL393:
	.loc 6 112 10 view .LVU1366
.LBE579:
.LBE580:
	.loc 1 875 5 is_stmt 1 view .LVU1367
.LBB581:
.LBI581:
	.loc 6 110 1 view .LVU1368
.LBB582:
	.loc 6 112 3 view .LVU1369
# /usr/include/x86_64-linux-gnu/bits/stdio2.h:112:   return __printf_chk (__USE_FORTIFY_LEVEL - 1, __fmt, __va_arg_pack ());
	.loc 6 112 10 is_stmt 0 view .LVU1370
	movl	%ebx, %edx	# n.28_22,
	leaq	.LC31(%rip), %rsi	#, tmp697
	xorl	%eax, %eax	#
	movl	$1, %edi	#,
	call	__printf_chk@PLT	#
.LVL394:
	.loc 6 112 10 view .LVU1371
.LBE582:
.LBE581:
	.loc 1 877 5 is_stmt 1 view .LVU1372
.LBB583:
.LBI583:
	.loc 6 110 1 view .LVU1373
.LBB584:
	.loc 6 112 3 view .LVU1374
# /usr/include/x86_64-linux-gnu/bits/stdio2.h:112:   return __printf_chk (__USE_FORTIFY_LEVEL - 1, __fmt, __va_arg_pack ());
	.loc 6 112 10 is_stmt 0 view .LVU1375
	leaq	.LC32(%rip), %rdi	#, tmp698
	call	puts@PLT	#
.LVL395:
	.loc 6 112 10 view .LVU1376
.LBE584:
.LBE583:
	.loc 1 879 5 is_stmt 1 view .LVU1377
.LBB585:
.LBI585:
	.loc 4 57 1 view .LVU1378
.LBB586:
	.loc 4 59 3 view .LVU1379
# /usr/include/x86_64-linux-gnu/bits/string_fortified.h:59:   return __builtin___memset_chk (__dest, __ch, __len,
	.loc 4 59 10 is_stmt 0 view .LVU1380
	movq	sub_space(%rip), %rdi	# sub_space,
	movl	$1073741824, %edx	#,
	xorl	%esi, %esi	#
	call	memset@PLT	#
.LVL396:
	.loc 4 59 10 view .LVU1381
.LBE586:
.LBE585:
	.loc 1 880 5 is_stmt 1 view .LVU1382
.LBB587:
.LBB588:
# /usr/include/x86_64-linux-gnu/bits/string_fortified.h:59:   return __builtin___memset_chk (__dest, __ch, __len,
	.loc 4 59 10 is_stmt 0 view .LVU1383
	movq	borrow_space(%rip), %rdi	# borrow_space,
	movl	$1073741824, %edx	#,
	xorl	%esi, %esi	#
.LBE588:
.LBE587:
# sub_64_aligned.c:880:     sub_space_ptr = 0;
	.loc 1 880 19 view .LVU1384
	movl	$0, sub_space_ptr(%rip)	#, sub_space_ptr
	.loc 1 882 5 is_stmt 1 view .LVU1385
.LVL397:
.LBB590:
.LBI587:
	.loc 4 57 1 view .LVU1386
.LBB589:
	.loc 4 59 3 view .LVU1387
# /usr/include/x86_64-linux-gnu/bits/string_fortified.h:59:   return __builtin___memset_chk (__dest, __ch, __len,
	.loc 4 59 10 is_stmt 0 view .LVU1388
	call	memset@PLT	#
.LVL398:
	.loc 4 59 10 view .LVU1389
.LBE589:
.LBE590:
	.loc 1 883 5 is_stmt 1 view .LVU1390
.LBB591:
.LBB592:
# /usr/include/x86_64-linux-gnu/bits/stdio2.h:112:   return __printf_chk (__USE_FORTIFY_LEVEL - 1, __fmt, __va_arg_pack ());
	.loc 6 112 10 is_stmt 0 view .LVU1391
	leaq	.LC33(%rip), %rdi	#, tmp709
.LBE592:
.LBE591:
# sub_64_aligned.c:883:     borrow_space_ptr = 0;
	.loc 1 883 22 view .LVU1392
	movl	$0, borrow_space_ptr(%rip)	#, borrow_space_ptr
	.loc 1 885 5 is_stmt 1 view .LVU1393
.LVL399:
.LBB594:
.LBI591:
	.loc 6 110 1 view .LVU1394
.LBB593:
	.loc 6 112 3 view .LVU1395
# /usr/include/x86_64-linux-gnu/bits/stdio2.h:112:   return __printf_chk (__USE_FORTIFY_LEVEL - 1, __fmt, __va_arg_pack ());
	.loc 6 112 10 is_stmt 0 view .LVU1396
	call	puts@PLT	#
.LVL400:
	.loc 6 112 10 view .LVU1397
.LBE593:
.LBE594:
	.loc 1 886 5 is_stmt 1 view .LVU1398
	.loc 1 887 5 view .LVU1399
	.loc 1 889 5 view .LVU1400
	.loc 1 890 5 view .LVU1401
	.loc 1 891 5 view .LVU1402
	.loc 1 892 5 view .LVU1403
	.loc 1 893 5 view .LVU1404
	.loc 1 895 5 view .LVU1405
	.loc 1 896 5 view .LVU1406
.LBB595:
.LBI595:
	.loc 6 110 1 view .LVU1407
.LBB596:
	.loc 6 112 3 view .LVU1408
# /usr/include/x86_64-linux-gnu/bits/stdio2.h:112:   return __printf_chk (__USE_FORTIFY_LEVEL - 1, __fmt, __va_arg_pack ());
	.loc 6 112 10 is_stmt 0 view .LVU1409
	movl	$100000, %edx	#,
	leaq	.LC34(%rip), %rsi	#, tmp710
	xorl	%eax, %eax	#
	movl	$1, %edi	#,
	call	__printf_chk@PLT	#
.LVL401:
	.loc 6 112 10 view .LVU1410
.LBE596:
.LBE595:
	.loc 1 897 5 is_stmt 1 view .LVU1411
.LBB597:
	.loc 1 897 10 view .LVU1412
	.loc 1 897 23 view .LVU1413
	leaq	-1264(%rbp), %r10	#, tmp1036
	leaq	-1328(%rbp), %rax	#, tmp1049
# sub_64_aligned.c:897:     for (int i = 0; i < ITERATIONS; i++)
	.loc 1 897 14 is_stmt 0 view .LVU1414
	movl	$0, -1376(%rbp)	#, %sfp
.LBE597:
# sub_64_aligned.c:895:     unsigned long long test1_rdtsc = 0, test1_rdtsc_gmp = 0;
	.loc 1 895 41 view .LVU1415
	movq	$0, -1480(%rbp)	#, %sfp
# sub_64_aligned.c:895:     unsigned long long test1_rdtsc = 0, test1_rdtsc_gmp = 0;
	.loc 1 895 24 view .LVU1416
	movq	$0, -1472(%rbp)	#, %sfp
	movq	%r10, -1416(%rbp)	# tmp1036, %sfp
	movq	%rax, -1424(%rbp)	# tmp1049, %sfp
.LVL402:
	.p2align 4,,10
	.p2align 3
.L346:
.LBB740:
.LBB598:
	.loc 1 900 9 is_stmt 1 view .LVU1417
	.loc 1 905 9 view .LVU1418
	movl	-1360(%rbp), %r15d	# %sfp, n.28_22
	movq	-1416(%rbp), %rsi	# %sfp,
	movq	-1424(%rbp), %rdi	# %sfp,
	movl	%r15d, %edx	# n.28_22,
	call	generate_no_borrow_propagation	#
.LVL403:
	.loc 1 921 9 view .LVU1419
.LBB599:
.LBB600:
# sub_64_aligned.c:816:     char *str = (char *)calloc(n + 1, sizeof(char));
	.loc 1 816 34 is_stmt 0 view .LVU1420
	leal	1(%r15), %edx	#, tmp713
# sub_64_aligned.c:816:     char *str = (char *)calloc(n + 1, sizeof(char));
	.loc 1 816 25 view .LVU1421
	movl	$1, %esi	#,
.LBE600:
.LBE599:
# sub_64_aligned.c:921:         char *a1_str_test1 = convert_digits_to_string(a1_test1, n);
	.loc 1 921 30 view .LVU1422
	movq	-1328(%rbp), %rbx	# a1_test1, a1_test1.25_19
.LVL404:
.LBB609:
.LBI599:
	.loc 1 814 7 is_stmt 1 view .LVU1423
.LBB606:
	.loc 1 816 5 view .LVU1424
# sub_64_aligned.c:816:     char *str = (char *)calloc(n + 1, sizeof(char));
	.loc 1 816 25 is_stmt 0 view .LVU1425
	movslq	%edx, %r12	# tmp713, _275
	movq	%r12, %rdi	# _275,
	call	calloc@PLT	#
.LVL405:
	movq	%rax, -1368(%rbp)	# str, %sfp
.LVL406:
	.loc 1 817 5 is_stmt 1 view .LVU1426
# sub_64_aligned.c:817:     if (str == NULL)
	.loc 1 817 8 is_stmt 0 view .LVU1427
	testq	%rax, %rax	# str
	je	.L298	#,
.LVL407:
.LBB601:
	.loc 1 822 23 is_stmt 1 view .LVU1428
.LBE601:
# sub_64_aligned.c:826:     str[n] = '\0';
	.loc 1 826 8 is_stmt 0 view .LVU1429
	movslq	%r15d, %r13	# n.28_22, _439
	leaq	(%rax,%r13), %rsi	#, _440
.LBB602:
# sub_64_aligned.c:822:     for (int i = 0; i < n; i++)
	.loc 1 822 23 view .LVU1430
	testl	%r15d, %r15d	# n.28_22
	jle	.L786	#,
	movl	-1360(%rbp), %ecx	# %sfp, n.28_22
	leaq	0(,%r13,8), %r14	#, _637
	leaq	(%rbx,%r14), %r11	#, tmp718
	leal	-1(%rcx), %r9d	#, tmp716
	cmpl	$14, %r9d	#, tmp716
	seta	%r15b	#, _634
	cmpq	%r11, %rax	# tmp718, str
	setnb	%dil	#, tmp720
	cmpq	%rsi, %rbx	# _440, a1_test1.25_19
	setnb	%r10b	#, tmp723
	orb	%r10b, %dil	# tmp723, tmp1542
	je	.L301	#,
	testb	%r15b, %r15b	# _634
	je	.L301	#,
	shrl	$4, %ecx	#, bnd.363
	leaq	128(%rbx), %r9	#, tmp729
	movq	%rbx, %rdi	# a1_test1.25_19, ivtmp.505
	movq	%rax, %rdx	# str, ivtmp.508
	subl	$1, %ecx	#, tmp727
	salq	$7, %rcx	#, tmp728
	addq	%r9, %rcx	# tmp729, _1013
	movq	%rcx, %r8	# _1013, tmp1106
	subq	%rbx, %r8	# a1_test1.25_19, tmp1106
	andl	$128, %r8d	#, tmp1106
	je	.L302	#,
.LVL408:
	.loc 1 824 9 is_stmt 1 view .LVU1431
# sub_64_aligned.c:824:         str[i] = digits[i] + '0';
	.loc 1 824 28 is_stmt 0 view .LVU1432
	movdqu	(%rbx), %xmm0	# MEM <vector(2) long unsigned int> [(uint64_t *)_999], vect__282.378
	movdqu	16(%rbx), %xmm4	# MEM <vector(2) long unsigned int> [(uint64_t *)_999 + 16B], tmp2011
	movq	%r9, %rdi	# tmp729, ivtmp.505
	movdqu	32(%rbx), %xmm1	# MEM <vector(2) long unsigned int> [(uint64_t *)_999 + 32B], vect__282.378
	movdqu	48(%rbx), %xmm5	# MEM <vector(2) long unsigned int> [(uint64_t *)_999 + 48B], tmp2013
	movdqu	64(%rbx), %xmm8	# MEM <vector(2) long unsigned int> [(uint64_t *)_999 + 64B], vect__282.378
	movdqu	80(%rbx), %xmm6	# MEM <vector(2) long unsigned int> [(uint64_t *)_999 + 80B], tmp2017
	shufps	$136, %xmm4, %xmm0	#, tmp2011, vect__282.378
	movdqa	%xmm0, %xmm2	# vect__282.378, tmp1505
	movdqu	96(%rbx), %xmm9	# MEM <vector(2) long unsigned int> [(uint64_t *)_999 + 96B], vect__282.378
	movdqu	112(%rbx), %xmm7	# MEM <vector(2) long unsigned int> [(uint64_t *)_999 + 112B], tmp2019
	shufps	$136, %xmm5, %xmm1	#, tmp2013, vect__282.378
	punpcklwd	%xmm1, %xmm0	# vect__282.378, vect__282.377
	shufps	$136, %xmm6, %xmm8	#, tmp2017, vect__282.378
	movdqa	%xmm8, %xmm10	# vect__282.378, tmp1516
	punpckhwd	%xmm1, %xmm2	# vect__282.378, tmp1505
	movdqa	%xmm0, %xmm3	# vect__282.377, tmp1507
	shufps	$136, %xmm7, %xmm9	#, tmp2019, vect__282.378
	punpcklwd	%xmm9, %xmm8	# vect__282.378, vect__282.377
	punpckhwd	%xmm9, %xmm10	# vect__282.378, tmp1516
	punpckhwd	%xmm2, %xmm3	# tmp1505, tmp1507
	movdqa	%xmm8, %xmm11	# vect__282.377, tmp1518
	punpcklwd	%xmm2, %xmm0	# tmp1505, vect__282.377
	punpcklwd	%xmm10, %xmm8	# tmp1516, vect__282.377
# sub_64_aligned.c:824:         str[i] = digits[i] + '0';
	.loc 1 824 16 view .LVU1433
	movq	-1368(%rbp), %rdx	# %sfp, str
# sub_64_aligned.c:824:         str[i] = digits[i] + '0';
	.loc 1 824 28 view .LVU1434
	punpckhwd	%xmm10, %xmm11	# tmp1516, tmp1518
	punpcklwd	%xmm3, %xmm0	# tmp1507, vect__282.377
	pand	.LC24(%rip), %xmm0	#, tmp1521
	punpcklwd	%xmm11, %xmm8	# tmp1518, vect__282.377
	addq	$16, %rdx	#, ivtmp.508
	pand	.LC24(%rip), %xmm8	#, tmp1522
	packuswb	%xmm8, %xmm0	# tmp1522, vect__282.376
	paddb	.LC25(%rip), %xmm0	#, vect__283.379
# sub_64_aligned.c:824:         str[i] = digits[i] + '0';
	.loc 1 824 16 view .LVU1435
	movups	%xmm0, -16(%rdx)	# vect__283.379, MEM <vector(16) char> [(char *)_1007]
	.loc 1 822 29 is_stmt 1 view .LVU1436
	.loc 1 822 23 view .LVU1437
	cmpq	%rcx, %r9	# _1013, ivtmp.505
	je	.L744	#,
	.p2align 4,,10
	.p2align 3
.L302:
	.loc 1 824 9 view .LVU1438
# sub_64_aligned.c:824:         str[i] = digits[i] + '0';
	.loc 1 824 28 is_stmt 0 view .LVU1439
	movdqu	16(%rdi), %xmm13	# MEM <vector(2) long unsigned int> [(uint64_t *)_999 + 16B], tmp1678
	movdqu	48(%rdi), %xmm15	# MEM <vector(2) long unsigned int> [(uint64_t *)_999 + 48B], tmp1680
	addq	$32, %rdx	#, ivtmp.508
	addq	$256, %rdi	#, ivtmp.505
	movdqu	-176(%rdi), %xmm5	# MEM <vector(2) long unsigned int> [(uint64_t *)_999 + 80B], tmp1684
	movdqu	-192(%rdi), %xmm1	# MEM <vector(2) long unsigned int> [(uint64_t *)_999 + 64B], vect__282.378
	movdqu	-160(%rdi), %xmm2	# MEM <vector(2) long unsigned int> [(uint64_t *)_999 + 96B], vect__282.378
	movdqu	-144(%rdi), %xmm3	# MEM <vector(2) long unsigned int> [(uint64_t *)_999 + 112B], tmp1686
	movdqu	-256(%rdi), %xmm12	# MEM <vector(2) long unsigned int> [(uint64_t *)_999], vect__282.378
	shufps	$136, %xmm5, %xmm1	#, tmp1684, vect__282.378
	movdqa	%xmm1, %xmm8	# vect__282.378, tmp746
	movdqu	-224(%rdi), %xmm14	# MEM <vector(2) long unsigned int> [(uint64_t *)_999 + 32B], vect__282.378
	shufps	$136, %xmm3, %xmm2	#, tmp1686, vect__282.378
	punpcklwd	%xmm2, %xmm1	# vect__282.378, vect__282.377
	punpckhwd	%xmm2, %xmm8	# vect__282.378, tmp746
	shufps	$136, %xmm15, %xmm14	#, tmp1680, vect__282.378
	shufps	$136, %xmm13, %xmm12	#, tmp1678, vect__282.378
	movdqa	%xmm12, %xmm0	# vect__282.378, tmp737
	punpcklwd	%xmm14, %xmm12	# vect__282.378, vect__282.377
	punpckhwd	%xmm14, %xmm0	# vect__282.378, tmp737
	movdqa	%xmm12, %xmm4	# vect__282.377, tmp738
	movdqa	%xmm1, %xmm6	# vect__282.377, tmp747
	punpckhwd	%xmm0, %xmm4	# tmp737, tmp738
	punpcklwd	%xmm0, %xmm12	# tmp737, vect__282.377
	punpckhwd	%xmm8, %xmm6	# tmp746, tmp747
	punpcklwd	%xmm8, %xmm1	# tmp746, vect__282.377
	punpcklwd	%xmm4, %xmm12	# tmp738, vect__282.377
	pand	.LC24(%rip), %xmm12	#, tmp749
	punpcklwd	%xmm6, %xmm1	# tmp747, vect__282.377
	pand	.LC24(%rip), %xmm1	#, tmp750
	packuswb	%xmm1, %xmm12	# tmp750, vect__282.376
	paddb	.LC25(%rip), %xmm12	#, vect__283.379
# sub_64_aligned.c:824:         str[i] = digits[i] + '0';
	.loc 1 824 16 view .LVU1440
	movups	%xmm12, -32(%rdx)	# vect__283.379, MEM <vector(16) char> [(char *)_1007]
	.loc 1 822 29 is_stmt 1 view .LVU1441
	.loc 1 822 23 view .LVU1442
	.loc 1 824 9 view .LVU1443
# sub_64_aligned.c:824:         str[i] = digits[i] + '0';
	.loc 1 824 28 is_stmt 0 view .LVU1444
	movdqu	-128(%rdi), %xmm9	# MEM <vector(2) long unsigned int> [(uint64_t *)_999], vect__282.378
	movdqu	-112(%rdi), %xmm7	# MEM <vector(2) long unsigned int> [(uint64_t *)_999 + 16B], tmp1690
	movdqu	-96(%rdi), %xmm10	# MEM <vector(2) long unsigned int> [(uint64_t *)_999 + 32B], vect__282.378
	movdqu	-80(%rdi), %xmm11	# MEM <vector(2) long unsigned int> [(uint64_t *)_999 + 48B], tmp1692
	movdqu	-64(%rdi), %xmm14	# MEM <vector(2) long unsigned int> [(uint64_t *)_999 + 64B], vect__282.378
	movdqu	-48(%rdi), %xmm15	# MEM <vector(2) long unsigned int> [(uint64_t *)_999 + 80B], tmp1696
	shufps	$136, %xmm7, %xmm9	#, tmp1690, vect__282.378
	movdqa	%xmm9, %xmm12	# vect__282.378, tmp1124
# sub_64_aligned.c:824:         str[i] = digits[i] + '0';
	.loc 1 824 24 view .LVU1445
	movdqu	-32(%rdi), %xmm0	# MEM <vector(2) long unsigned int> [(uint64_t *)_999 + 96B], vect__281.374
	movdqu	-16(%rdi), %xmm4	# MEM <vector(2) long unsigned int> [(uint64_t *)_999 + 112B], vect__281.375
# sub_64_aligned.c:824:         str[i] = digits[i] + '0';
	.loc 1 824 28 view .LVU1446
	shufps	$136, %xmm11, %xmm10	#, tmp1692, vect__282.378
	punpcklwd	%xmm10, %xmm9	# vect__282.378, vect__282.377
	shufps	$136, %xmm15, %xmm14	#, tmp1696, vect__282.378
	movdqa	%xmm14, %xmm1	# vect__282.378, tmp1135
	punpckhwd	%xmm10, %xmm12	# vect__282.378, tmp1124
	movdqa	%xmm9, %xmm13	# vect__282.377, tmp1126
	shufps	$136, %xmm4, %xmm0	#, vect__281.375, vect__282.378
	punpcklwd	%xmm0, %xmm14	# vect__282.378, vect__282.377
	punpckhwd	%xmm0, %xmm1	# vect__282.378, tmp1135
	punpckhwd	%xmm12, %xmm13	# tmp1124, tmp1126
	movdqa	%xmm14, %xmm5	# vect__282.377, tmp1137
	punpcklwd	%xmm12, %xmm9	# tmp1124, vect__282.377
	punpcklwd	%xmm1, %xmm14	# tmp1135, vect__282.377
	punpckhwd	%xmm1, %xmm5	# tmp1135, tmp1137
	punpcklwd	%xmm13, %xmm9	# tmp1126, vect__282.377
	pand	.LC24(%rip), %xmm9	#, tmp1140
	punpcklwd	%xmm5, %xmm14	# tmp1137, vect__282.377
	pand	.LC24(%rip), %xmm14	#, tmp1141
	packuswb	%xmm14, %xmm9	# tmp1141, vect__282.376
	paddb	.LC25(%rip), %xmm9	#, vect__283.379
# sub_64_aligned.c:824:         str[i] = digits[i] + '0';
	.loc 1 824 16 view .LVU1447
	movups	%xmm9, -16(%rdx)	# vect__283.379, MEM <vector(16) char> [(char *)_1007]
	.loc 1 822 29 is_stmt 1 view .LVU1448
	.loc 1 822 23 view .LVU1449
	cmpq	%rcx, %rdi	# _1013, ivtmp.505
	jne	.L302	#,
.L744:
	movl	-1360(%rbp), %r11d	# %sfp, n.28_22
	movl	%r11d, %eax	# n.28_22, niters_vector_mult_vf.364
.LVL409:
	.loc 1 822 23 is_stmt 0 view .LVU1450
	andl	$-16, %eax	#, niters_vector_mult_vf.364
	testb	$15, %r11b	#, n.28_22
	je	.L305	#,
.LVL410:
	.loc 1 824 9 is_stmt 1 view .LVU1451
# sub_64_aligned.c:824:         str[i] = digits[i] + '0';
	.loc 1 824 24 is_stmt 0 view .LVU1452
	movl	%eax, %ecx	# niters_vector_mult_vf.364, _817
# sub_64_aligned.c:824:         str[i] = digits[i] + '0';
	.loc 1 824 28 view .LVU1453
	movq	-1368(%rbp), %r10	# %sfp, str
# sub_64_aligned.c:822:     for (int i = 0; i < n; i++)
	.loc 1 822 29 view .LVU1454
	leal	1(%rax), %edx	#, i
# sub_64_aligned.c:824:         str[i] = digits[i] + '0';
	.loc 1 824 28 view .LVU1455
	movzbl	(%rbx,%rcx,8), %r8d	# *_819, tmp1701
# sub_64_aligned.c:824:         str[i] = digits[i] + '0';
	.loc 1 824 24 view .LVU1456
	leaq	0(,%rcx,8), %r9	#, _818
# sub_64_aligned.c:824:         str[i] = digits[i] + '0';
	.loc 1 824 28 view .LVU1457
	addl	$48, %r8d	#, tmp755
	movb	%r8b, (%r10,%rcx)	# tmp755, *_823
	.loc 1 822 29 is_stmt 1 view .LVU1458
.LVL411:
	.loc 1 822 23 view .LVU1459
	cmpl	%edx, %r11d	# i, n.28_22
	jle	.L305	#,
	.loc 1 824 9 view .LVU1460
# sub_64_aligned.c:824:         str[i] = digits[i] + '0';
	.loc 1 824 28 is_stmt 0 view .LVU1461
	movzbl	8(%rbx,%r9), %edi	# *_831, tmp1704
# sub_64_aligned.c:824:         str[i] = digits[i] + '0';
	.loc 1 824 24 view .LVU1462
	movslq	%edx, %rcx	# i, i
# sub_64_aligned.c:822:     for (int i = 0; i < n; i++)
	.loc 1 822 29 view .LVU1463
	leal	2(%rax), %r8d	#, i
# sub_64_aligned.c:824:         str[i] = digits[i] + '0';
	.loc 1 824 28 view .LVU1464
	addl	$48, %edi	#, tmp758
	movb	%dil, (%r10,%rcx)	# tmp758, *_835
	.loc 1 822 29 is_stmt 1 view .LVU1465
.LVL412:
	.loc 1 822 23 view .LVU1466
	cmpl	%r8d, %r11d	# i, n.28_22
	jle	.L305	#,
	.loc 1 824 9 view .LVU1467
# sub_64_aligned.c:824:         str[i] = digits[i] + '0';
	.loc 1 824 28 is_stmt 0 view .LVU1468
	movzbl	16(%rbx,%r9), %ecx	# *_843, tmp1707
# sub_64_aligned.c:824:         str[i] = digits[i] + '0';
	.loc 1 824 24 view .LVU1469
	movslq	%r8d, %rdx	# i, i
# sub_64_aligned.c:822:     for (int i = 0; i < n; i++)
	.loc 1 822 29 view .LVU1470
	leal	3(%rax), %edi	#, i
# sub_64_aligned.c:824:         str[i] = digits[i] + '0';
	.loc 1 824 28 view .LVU1471
	addl	$48, %ecx	#, tmp761
	movb	%cl, (%r10,%rdx)	# tmp761, *_847
	.loc 1 822 29 is_stmt 1 view .LVU1472
.LVL413:
	.loc 1 822 23 view .LVU1473
	cmpl	%edi, %r11d	# i, n.28_22
	jle	.L305	#,
	.loc 1 824 9 view .LVU1474
# sub_64_aligned.c:824:         str[i] = digits[i] + '0';
	.loc 1 824 28 is_stmt 0 view .LVU1475
	movzbl	24(%rbx,%r9), %edx	# *_855, tmp1710
# sub_64_aligned.c:824:         str[i] = digits[i] + '0';
	.loc 1 824 24 view .LVU1476
	movslq	%edi, %r8	# i, i
# sub_64_aligned.c:822:     for (int i = 0; i < n; i++)
	.loc 1 822 29 view .LVU1477
	leal	4(%rax), %ecx	#, i
# sub_64_aligned.c:824:         str[i] = digits[i] + '0';
	.loc 1 824 28 view .LVU1478
	addl	$48, %edx	#, tmp764
	movb	%dl, (%r10,%r8)	# tmp764, *_859
	.loc 1 822 29 is_stmt 1 view .LVU1479
.LVL414:
	.loc 1 822 23 view .LVU1480
	cmpl	%ecx, %r11d	# i, n.28_22
	jle	.L305	#,
	.loc 1 824 9 view .LVU1481
# sub_64_aligned.c:824:         str[i] = digits[i] + '0';
	.loc 1 824 28 is_stmt 0 view .LVU1482
	movzbl	32(%rbx,%r9), %edi	# *_867, tmp1713
# sub_64_aligned.c:824:         str[i] = digits[i] + '0';
	.loc 1 824 24 view .LVU1483
	movslq	%ecx, %r8	# i, i
# sub_64_aligned.c:822:     for (int i = 0; i < n; i++)
	.loc 1 822 29 view .LVU1484
	leal	5(%rax), %edx	#, i
# sub_64_aligned.c:824:         str[i] = digits[i] + '0';
	.loc 1 824 28 view .LVU1485
	addl	$48, %edi	#, tmp767
	movb	%dil, (%r10,%r8)	# tmp767, *_871
	.loc 1 822 29 is_stmt 1 view .LVU1486
.LVL415:
	.loc 1 822 23 view .LVU1487
	cmpl	%edx, %r11d	# i, n.28_22
	jle	.L305	#,
	.loc 1 824 9 view .LVU1488
# sub_64_aligned.c:824:         str[i] = digits[i] + '0';
	.loc 1 824 28 is_stmt 0 view .LVU1489
	movzbl	40(%rbx,%r9), %r8d	# *_879, tmp1716
# sub_64_aligned.c:824:         str[i] = digits[i] + '0';
	.loc 1 824 24 view .LVU1490
	movslq	%edx, %rcx	# i, i
# sub_64_aligned.c:822:     for (int i = 0; i < n; i++)
	.loc 1 822 29 view .LVU1491
	leal	6(%rax), %edi	#, i
# sub_64_aligned.c:824:         str[i] = digits[i] + '0';
	.loc 1 824 28 view .LVU1492
	addl	$48, %r8d	#, tmp770
	movb	%r8b, (%r10,%rcx)	# tmp770, *_883
	.loc 1 822 29 is_stmt 1 view .LVU1493
.LVL416:
	.loc 1 822 23 view .LVU1494
	cmpl	%edi, %r11d	# i, n.28_22
	jle	.L305	#,
	.loc 1 824 9 view .LVU1495
# sub_64_aligned.c:824:         str[i] = digits[i] + '0';
	.loc 1 824 28 is_stmt 0 view .LVU1496
	movzbl	48(%rbx,%r9), %ecx	# *_891, tmp1719
# sub_64_aligned.c:824:         str[i] = digits[i] + '0';
	.loc 1 824 24 view .LVU1497
	movslq	%edi, %rdx	# i, i
# sub_64_aligned.c:822:     for (int i = 0; i < n; i++)
	.loc 1 822 29 view .LVU1498
	leal	7(%rax), %r8d	#, i
# sub_64_aligned.c:824:         str[i] = digits[i] + '0';
	.loc 1 824 28 view .LVU1499
	addl	$48, %ecx	#, tmp773
	movb	%cl, (%r10,%rdx)	# tmp773, *_895
	.loc 1 822 29 is_stmt 1 view .LVU1500
.LVL417:
	.loc 1 822 23 view .LVU1501
	cmpl	%r8d, %r11d	# i, n.28_22
	jle	.L305	#,
	.loc 1 824 9 view .LVU1502
# sub_64_aligned.c:824:         str[i] = digits[i] + '0';
	.loc 1 824 28 is_stmt 0 view .LVU1503
	movzbl	56(%rbx,%r9), %edi	# *_903, tmp1722
# sub_64_aligned.c:824:         str[i] = digits[i] + '0';
	.loc 1 824 24 view .LVU1504
	movslq	%r8d, %rdx	# i, i
# sub_64_aligned.c:822:     for (int i = 0; i < n; i++)
	.loc 1 822 29 view .LVU1505
	leal	8(%rax), %ecx	#, i
# sub_64_aligned.c:824:         str[i] = digits[i] + '0';
	.loc 1 824 28 view .LVU1506
	addl	$48, %edi	#, tmp776
	movb	%dil, (%r10,%rdx)	# tmp776, *_907
	.loc 1 822 29 is_stmt 1 view .LVU1507
.LVL418:
	.loc 1 822 23 view .LVU1508
	cmpl	%ecx, %r11d	# i, n.28_22
	jle	.L305	#,
	.loc 1 824 9 view .LVU1509
# sub_64_aligned.c:824:         str[i] = digits[i] + '0';
	.loc 1 824 28 is_stmt 0 view .LVU1510
	movzbl	64(%rbx,%r9), %edx	# *_915, tmp1725
# sub_64_aligned.c:824:         str[i] = digits[i] + '0';
	.loc 1 824 24 view .LVU1511
	movslq	%ecx, %r8	# i, i
# sub_64_aligned.c:822:     for (int i = 0; i < n; i++)
	.loc 1 822 29 view .LVU1512
	leal	9(%rax), %edi	#, i
# sub_64_aligned.c:824:         str[i] = digits[i] + '0';
	.loc 1 824 28 view .LVU1513
	addl	$48, %edx	#, tmp779
	movb	%dl, (%r10,%r8)	# tmp779, *_919
	.loc 1 822 29 is_stmt 1 view .LVU1514
.LVL419:
	.loc 1 822 23 view .LVU1515
	cmpl	%edi, %r11d	# i, n.28_22
	jle	.L305	#,
	.loc 1 824 9 view .LVU1516
# sub_64_aligned.c:824:         str[i] = digits[i] + '0';
	.loc 1 824 28 is_stmt 0 view .LVU1517
	movzbl	72(%rbx,%r9), %r8d	# *_927, tmp1728
# sub_64_aligned.c:824:         str[i] = digits[i] + '0';
	.loc 1 824 24 view .LVU1518
	movslq	%edi, %rcx	# i, i
# sub_64_aligned.c:822:     for (int i = 0; i < n; i++)
	.loc 1 822 29 view .LVU1519
	leal	10(%rax), %edx	#, i
# sub_64_aligned.c:824:         str[i] = digits[i] + '0';
	.loc 1 824 28 view .LVU1520
	addl	$48, %r8d	#, tmp782
	movb	%r8b, (%r10,%rcx)	# tmp782, *_931
	.loc 1 822 29 is_stmt 1 view .LVU1521
.LVL420:
	.loc 1 822 23 view .LVU1522
	cmpl	%edx, %r11d	# i, n.28_22
	jle	.L305	#,
	.loc 1 824 9 view .LVU1523
# sub_64_aligned.c:824:         str[i] = digits[i] + '0';
	.loc 1 824 28 is_stmt 0 view .LVU1524
	movzbl	80(%rbx,%r9), %edi	# *_939, tmp1731
# sub_64_aligned.c:824:         str[i] = digits[i] + '0';
	.loc 1 824 24 view .LVU1525
	movslq	%edx, %rcx	# i, i
# sub_64_aligned.c:822:     for (int i = 0; i < n; i++)
	.loc 1 822 29 view .LVU1526
	leal	11(%rax), %r8d	#, i
# sub_64_aligned.c:824:         str[i] = digits[i] + '0';
	.loc 1 824 28 view .LVU1527
	addl	$48, %edi	#, tmp785
	movb	%dil, (%r10,%rcx)	# tmp785, *_943
	.loc 1 822 29 is_stmt 1 view .LVU1528
.LVL421:
	.loc 1 822 23 view .LVU1529
	cmpl	%r8d, %r11d	# i, n.28_22
	jle	.L305	#,
	.loc 1 824 9 view .LVU1530
# sub_64_aligned.c:824:         str[i] = digits[i] + '0';
	.loc 1 824 28 is_stmt 0 view .LVU1531
	movzbl	88(%rbx,%r9), %ecx	# *_951, tmp1734
# sub_64_aligned.c:824:         str[i] = digits[i] + '0';
	.loc 1 824 24 view .LVU1532
	movslq	%r8d, %rdx	# i, i
# sub_64_aligned.c:822:     for (int i = 0; i < n; i++)
	.loc 1 822 29 view .LVU1533
	leal	12(%rax), %edi	#, i
# sub_64_aligned.c:824:         str[i] = digits[i] + '0';
	.loc 1 824 28 view .LVU1534
	addl	$48, %ecx	#, tmp788
	movb	%cl, (%r10,%rdx)	# tmp788, *_955
	.loc 1 822 29 is_stmt 1 view .LVU1535
.LVL422:
	.loc 1 822 23 view .LVU1536
	cmpl	%edi, %r11d	# i, n.28_22
	jle	.L305	#,
	.loc 1 824 9 view .LVU1537
# sub_64_aligned.c:824:         str[i] = digits[i] + '0';
	.loc 1 824 28 is_stmt 0 view .LVU1538
	movzbl	96(%rbx,%r9), %edx	# *_963, tmp1737
# sub_64_aligned.c:824:         str[i] = digits[i] + '0';
	.loc 1 824 24 view .LVU1539
	movslq	%edi, %r8	# i, i
# sub_64_aligned.c:822:     for (int i = 0; i < n; i++)
	.loc 1 822 29 view .LVU1540
	leal	13(%rax), %ecx	#, i
# sub_64_aligned.c:824:         str[i] = digits[i] + '0';
	.loc 1 824 28 view .LVU1541
	addl	$48, %edx	#, tmp791
	movb	%dl, (%r10,%r8)	# tmp791, *_967
	.loc 1 822 29 is_stmt 1 view .LVU1542
.LVL423:
	.loc 1 822 23 view .LVU1543
	cmpl	%ecx, %r11d	# i, n.28_22
	jle	.L305	#,
	.loc 1 824 9 view .LVU1544
# sub_64_aligned.c:824:         str[i] = digits[i] + '0';
	.loc 1 824 28 is_stmt 0 view .LVU1545
	movzbl	104(%rbx,%r9), %edi	# *_975, tmp1740
# sub_64_aligned.c:824:         str[i] = digits[i] + '0';
	.loc 1 824 24 view .LVU1546
	movslq	%ecx, %r8	# i, i
# sub_64_aligned.c:822:     for (int i = 0; i < n; i++)
	.loc 1 822 29 view .LVU1547
	addl	$14, %eax	#, i
# sub_64_aligned.c:824:         str[i] = digits[i] + '0';
	.loc 1 824 28 view .LVU1548
	addl	$48, %edi	#, tmp794
	movb	%dil, (%r10,%r8)	# tmp794, *_979
	.loc 1 822 29 is_stmt 1 view .LVU1549
.LVL424:
	.loc 1 822 23 view .LVU1550
	cmpl	%eax, %r11d	# i, n.28_22
	jle	.L305	#,
	.loc 1 824 9 view .LVU1551
# sub_64_aligned.c:824:         str[i] = digits[i] + '0';
	.loc 1 824 28 is_stmt 0 view .LVU1552
	movq	112(%rbx,%r9), %rbx	# *_665, *_665
.LVL425:
# sub_64_aligned.c:824:         str[i] = digits[i] + '0';
	.loc 1 824 24 view .LVU1553
	cltq
# sub_64_aligned.c:824:         str[i] = digits[i] + '0';
	.loc 1 824 28 view .LVU1554
	addl	$48, %ebx	#, tmp797
	movb	%bl, (%r10,%rax)	# tmp797, *_669
	.loc 1 822 29 is_stmt 1 view .LVU1555
	.loc 1 822 23 view .LVU1556
	.p2align 4,,10
	.p2align 3
.L305:
	.loc 1 822 23 is_stmt 0 view .LVU1557
.LBE602:
	.loc 1 826 5 is_stmt 1 view .LVU1558
# sub_64_aligned.c:826:     str[n] = '\0';
	.loc 1 826 12 is_stmt 0 view .LVU1559
	movb	$0, (%rsi)	#, *_440
	.loc 1 827 5 is_stmt 1 view .LVU1560
.LVL426:
	.loc 1 827 5 is_stmt 0 view .LVU1561
.LBE606:
.LBE609:
	.loc 1 922 9 is_stmt 1 view .LVU1562
.LBB610:
.LBB611:
# sub_64_aligned.c:816:     char *str = (char *)calloc(n + 1, sizeof(char));
	.loc 1 816 25 is_stmt 0 view .LVU1563
	movq	%r12, %rdi	# _275,
	movl	$1, %esi	#,
.LBE611:
.LBE610:
# sub_64_aligned.c:922:         char *b1_str_test1 = convert_digits_to_string(b1_test1, n);
	.loc 1 922 30 view .LVU1564
	movq	-1264(%rbp), %rbx	# b1_test1, b1_test1.27_221
.LVL427:
.LBB618:
.LBI610:
	.loc 1 814 7 is_stmt 1 view .LVU1565
.LBB614:
	.loc 1 816 5 view .LVU1566
# sub_64_aligned.c:816:     char *str = (char *)calloc(n + 1, sizeof(char));
	.loc 1 816 25 is_stmt 0 view .LVU1567
	call	calloc@PLT	#
.LVL428:
	movq	%rax, -1352(%rbp)	# str, %sfp
.LVL429:
	.loc 1 817 5 is_stmt 1 view .LVU1568
# sub_64_aligned.c:817:     if (str == NULL)
	.loc 1 817 8 is_stmt 0 view .LVU1569
	testq	%rax, %rax	# str
	je	.L298	#,
	addq	%rbx, %r14	# b1_test1.27_221, tmp800
	movq	%rax, %r8	# str, str
	cmpq	%r14, %rax	# tmp800, str
	leaq	(%rax,%r13), %r14	#, tmp803
	setnb	%r12b	#, tmp802
	cmpq	%r14, %rbx	# tmp803, b1_test1.27_221
	setnb	%r11b	#, tmp805
	orb	%r11b, %r12b	# tmp805, tmp1543
	je	.L306	#,
	testb	%r15b, %r15b	# _634
	je	.L306	#,
	movl	-1360(%rbp), %r15d	# %sfp, bnd.342
	leaq	128(%rbx), %r10	#, tmp811
	movq	%rbx, %rax	# b1_test1.27_221, ivtmp.490
.LVL430:
	.loc 1 817 8 view .LVU1570
	shrl	$4, %r15d	#, bnd.342
	leal	-1(%r15), %ecx	#, tmp809
	salq	$7, %rcx	#, tmp810
	addq	%r10, %rcx	# tmp811, _986
	movq	%rcx, %rdx	# _986, tmp1094
	subq	%rbx, %rdx	# b1_test1.27_221, tmp1094
	andl	$128, %edx	#, tmp1094
	je	.L307	#,
.LBB612:
	.loc 1 824 9 is_stmt 1 view .LVU1571
# sub_64_aligned.c:824:         str[i] = digits[i] + '0';
	.loc 1 824 28 is_stmt 0 view .LVU1572
	movdqu	(%rbx), %xmm8	# MEM <vector(2) long unsigned int> [(uint64_t *)_20], vect__267.357
	movdqu	16(%rbx), %xmm2	# MEM <vector(2) long unsigned int> [(uint64_t *)_20 + 16B], tmp1983
	movq	%r10, %rax	# tmp811, ivtmp.490
	leaq	16(%r8), %r8	#, ivtmp.493
.LVL431:
	.loc 1 824 28 view .LVU1573
	movdqu	32(%rbx), %xmm3	# MEM <vector(2) long unsigned int> [(uint64_t *)_20 + 32B], vect__267.357
	movdqu	48(%rbx), %xmm6	# MEM <vector(2) long unsigned int> [(uint64_t *)_20 + 48B], tmp1985
	movdqu	64(%rbx), %xmm10	# MEM <vector(2) long unsigned int> [(uint64_t *)_20 + 64B], vect__267.357
	movdqu	80(%rbx), %xmm11	# MEM <vector(2) long unsigned int> [(uint64_t *)_20 + 80B], tmp1989
	shufps	$136, %xmm2, %xmm8	#, tmp1983, vect__267.357
	movdqa	%xmm8, %xmm9	# vect__267.357, tmp1465
	movdqu	96(%rbx), %xmm12	# MEM <vector(2) long unsigned int> [(uint64_t *)_20 + 96B], vect__267.357
	movdqu	112(%rbx), %xmm13	# MEM <vector(2) long unsigned int> [(uint64_t *)_20 + 112B], tmp1991
	shufps	$136, %xmm6, %xmm3	#, tmp1985, vect__267.357
	punpcklwd	%xmm3, %xmm8	# vect__267.357, vect__267.356
	shufps	$136, %xmm11, %xmm10	#, tmp1989, vect__267.357
	movdqa	%xmm10, %xmm14	# vect__267.357, tmp1476
	punpckhwd	%xmm3, %xmm9	# vect__267.357, tmp1465
	movdqa	%xmm8, %xmm7	# vect__267.356, tmp1467
	shufps	$136, %xmm13, %xmm12	#, tmp1991, vect__267.357
	punpcklwd	%xmm12, %xmm10	# vect__267.357, vect__267.356
	punpckhwd	%xmm12, %xmm14	# vect__267.357, tmp1476
	punpckhwd	%xmm9, %xmm7	# tmp1465, tmp1467
	movdqa	%xmm10, %xmm15	# vect__267.356, tmp1478
	punpcklwd	%xmm9, %xmm8	# tmp1465, vect__267.356
	punpcklwd	%xmm14, %xmm10	# tmp1476, vect__267.356
	punpckhwd	%xmm14, %xmm15	# tmp1476, tmp1478
	punpcklwd	%xmm7, %xmm8	# tmp1467, vect__267.356
	pand	.LC24(%rip), %xmm8	#, tmp1481
	punpcklwd	%xmm15, %xmm10	# tmp1478, vect__267.356
	pand	.LC24(%rip), %xmm10	#, tmp1482
	packuswb	%xmm10, %xmm8	# tmp1482, vect__267.355
	paddb	.LC25(%rip), %xmm8	#, vect__268.358
# sub_64_aligned.c:824:         str[i] = digits[i] + '0';
	.loc 1 824 16 view .LVU1574
	movups	%xmm8, -16(%r8)	# vect__268.358, MEM <vector(16) char> [(char *)_313]
	.loc 1 822 29 is_stmt 1 view .LVU1575
	.loc 1 822 23 view .LVU1576
	cmpq	%rcx, %r10	# _986, ivtmp.490
	je	.L743	#,
	.p2align 4,,10
	.p2align 3
.L307:
	.loc 1 824 9 view .LVU1577
# sub_64_aligned.c:824:         str[i] = digits[i] + '0';
	.loc 1 824 28 is_stmt 0 view .LVU1578
	movdqu	16(%rax), %xmm4	# MEM <vector(2) long unsigned int> [(uint64_t *)_20 + 16B], tmp1759
	movdqu	48(%rax), %xmm5	# MEM <vector(2) long unsigned int> [(uint64_t *)_20 + 48B], tmp1761
	addq	$256, %rax	#, ivtmp.490
	addq	$32, %r8	#, ivtmp.493
	movdqu	-176(%rax), %xmm3	# MEM <vector(2) long unsigned int> [(uint64_t *)_20 + 80B], tmp1765
	movdqu	-256(%rax), %xmm0	# MEM <vector(2) long unsigned int> [(uint64_t *)_20], vect__267.357
	movdqu	-224(%rax), %xmm1	# MEM <vector(2) long unsigned int> [(uint64_t *)_20 + 32B], vect__267.357
	movdqu	-160(%rax), %xmm7	# MEM <vector(2) long unsigned int> [(uint64_t *)_20 + 96B], vect__267.357
	movdqu	-192(%rax), %xmm9	# MEM <vector(2) long unsigned int> [(uint64_t *)_20 + 64B], vect__267.357
	movdqu	-144(%rax), %xmm6	# MEM <vector(2) long unsigned int> [(uint64_t *)_20 + 112B], tmp1767
	shufps	$136, %xmm4, %xmm0	#, tmp1759, vect__267.357
	movdqa	%xmm0, %xmm8	# vect__267.357, tmp819
	shufps	$136, %xmm5, %xmm1	#, tmp1761, vect__267.357
	punpcklwd	%xmm1, %xmm0	# vect__267.357, vect__267.356
	punpckhwd	%xmm1, %xmm8	# vect__267.357, tmp819
	shufps	$136, %xmm3, %xmm9	#, tmp1765, vect__267.357
	shufps	$136, %xmm6, %xmm7	#, tmp1767, vect__267.357
	movdqa	%xmm9, %xmm10	# vect__267.357, tmp828
	punpcklwd	%xmm7, %xmm9	# vect__267.357, vect__267.356
	movdqa	%xmm0, %xmm2	# vect__267.356, tmp820
	punpckhwd	%xmm7, %xmm10	# vect__267.357, tmp828
	movdqa	%xmm9, %xmm11	# vect__267.356, tmp829
	punpckhwd	%xmm8, %xmm2	# tmp819, tmp820
	punpcklwd	%xmm8, %xmm0	# tmp819, vect__267.356
	punpckhwd	%xmm10, %xmm11	# tmp828, tmp829
	punpcklwd	%xmm10, %xmm9	# tmp828, vect__267.356
	punpcklwd	%xmm2, %xmm0	# tmp820, vect__267.356
	pand	.LC24(%rip), %xmm0	#, tmp831
	punpcklwd	%xmm11, %xmm9	# tmp829, vect__267.356
	pand	.LC24(%rip), %xmm9	#, tmp832
	packuswb	%xmm9, %xmm0	# tmp832, vect__267.355
	paddb	.LC25(%rip), %xmm0	#, vect__268.358
# sub_64_aligned.c:824:         str[i] = digits[i] + '0';
	.loc 1 824 16 view .LVU1579
	movups	%xmm0, -32(%r8)	# vect__268.358, MEM <vector(16) char> [(char *)_313]
	.loc 1 822 29 is_stmt 1 view .LVU1580
	.loc 1 822 23 view .LVU1581
	.loc 1 824 9 view .LVU1582
# sub_64_aligned.c:824:         str[i] = digits[i] + '0';
	.loc 1 824 28 is_stmt 0 view .LVU1583
	movdqu	-128(%rax), %xmm12	# MEM <vector(2) long unsigned int> [(uint64_t *)_20], vect__267.357
	movdqu	-64(%rax), %xmm1	# MEM <vector(2) long unsigned int> [(uint64_t *)_20 + 64B], vect__267.357
	movdqu	-112(%rax), %xmm13	# MEM <vector(2) long unsigned int> [(uint64_t *)_20 + 16B], tmp1771
	movdqu	-96(%rax), %xmm14	# MEM <vector(2) long unsigned int> [(uint64_t *)_20 + 32B], vect__267.357
	movdqu	-80(%rax), %xmm15	# MEM <vector(2) long unsigned int> [(uint64_t *)_20 + 48B], tmp1773
	movdqu	-48(%rax), %xmm5	# MEM <vector(2) long unsigned int> [(uint64_t *)_20 + 80B], tmp1777
# sub_64_aligned.c:824:         str[i] = digits[i] + '0';
	.loc 1 824 24 view .LVU1584
	movdqu	-32(%rax), %xmm8	# MEM <vector(2) long unsigned int> [(uint64_t *)_20 + 96B], vect__266.353
	movdqu	-16(%rax), %xmm2	# MEM <vector(2) long unsigned int> [(uint64_t *)_20 + 112B], vect__266.354
# sub_64_aligned.c:824:         str[i] = digits[i] + '0';
	.loc 1 824 28 view .LVU1585
	shufps	$136, %xmm13, %xmm12	#, tmp1771, vect__267.357
	movdqa	%xmm12, %xmm0	# vect__267.357, tmp1179
	shufps	$136, %xmm15, %xmm14	#, tmp1773, vect__267.357
	shufps	$136, %xmm5, %xmm1	#, tmp1777, vect__267.357
	punpcklwd	%xmm14, %xmm12	# vect__267.357, vect__267.356
	movdqa	%xmm1, %xmm9	# vect__267.357, tmp1190
	shufps	$136, %xmm2, %xmm8	#, vect__266.354, vect__267.357
	punpcklwd	%xmm8, %xmm1	# vect__267.357, vect__267.356
	punpckhwd	%xmm14, %xmm0	# vect__267.357, tmp1179
	movdqa	%xmm12, %xmm4	# vect__267.356, tmp1181
	punpckhwd	%xmm8, %xmm9	# vect__267.357, tmp1190
	movdqa	%xmm1, %xmm3	# vect__267.356, tmp1192
	punpckhwd	%xmm0, %xmm4	# tmp1179, tmp1181
	punpcklwd	%xmm0, %xmm12	# tmp1179, vect__267.356
	punpckhwd	%xmm9, %xmm3	# tmp1190, tmp1192
	punpcklwd	%xmm9, %xmm1	# tmp1190, vect__267.356
	punpcklwd	%xmm4, %xmm12	# tmp1181, vect__267.356
	punpcklwd	%xmm3, %xmm1	# tmp1192, vect__267.356
	pand	.LC24(%rip), %xmm12	#, tmp1195
	pand	.LC24(%rip), %xmm1	#, tmp1196
	packuswb	%xmm1, %xmm12	# tmp1196, vect__267.355
	paddb	.LC25(%rip), %xmm12	#, vect__268.358
# sub_64_aligned.c:824:         str[i] = digits[i] + '0';
	.loc 1 824 16 view .LVU1586
	movups	%xmm12, -16(%r8)	# vect__268.358, MEM <vector(16) char> [(char *)_313]
	.loc 1 822 29 is_stmt 1 view .LVU1587
	.loc 1 822 23 view .LVU1588
	cmpq	%rcx, %rax	# _986, ivtmp.490
	jne	.L307	#,
.L743:
	movl	-1360(%rbp), %r9d	# %sfp, n.28_22
	movl	%r9d, %eax	# n.28_22, niters_vector_mult_vf.343
	andl	$-16, %eax	#, niters_vector_mult_vf.343
	testb	$15, %r9b	#, n.28_22
	je	.L354	#,
.LVL432:
	.loc 1 824 9 view .LVU1589
# sub_64_aligned.c:824:         str[i] = digits[i] + '0';
	.loc 1 824 24 is_stmt 0 view .LVU1590
	movl	%eax, %edi	# niters_vector_mult_vf.343, _279
# sub_64_aligned.c:824:         str[i] = digits[i] + '0';
	.loc 1 824 28 view .LVU1591
	movq	-1352(%rbp), %r11	# %sfp, str
# sub_64_aligned.c:822:     for (int i = 0; i < n; i++)
	.loc 1 822 29 view .LVU1592
	leal	1(%rax), %r15d	#, i
# sub_64_aligned.c:824:         str[i] = digits[i] + '0';
	.loc 1 824 28 view .LVU1593
	movzbl	(%rbx,%rdi,8), %r14d	# *_281, tmp1782
# sub_64_aligned.c:824:         str[i] = digits[i] + '0';
	.loc 1 824 24 view .LVU1594
	leaq	0(,%rdi,8), %r12	#, _280
# sub_64_aligned.c:824:         str[i] = digits[i] + '0';
	.loc 1 824 28 view .LVU1595
	addl	$48, %r14d	#, tmp837
	movb	%r14b, (%r11,%rdi)	# tmp837, *_285
	.loc 1 822 29 is_stmt 1 view .LVU1596
.LVL433:
	.loc 1 822 23 view .LVU1597
	cmpl	%r15d, %r9d	# i, n.28_22
	jle	.L354	#,
	.loc 1 824 9 view .LVU1598
# sub_64_aligned.c:824:         str[i] = digits[i] + '0';
	.loc 1 824 28 is_stmt 0 view .LVU1599
	movzbl	8(%rbx,%r12), %r10d	# *_267, tmp1785
# sub_64_aligned.c:824:         str[i] = digits[i] + '0';
	.loc 1 824 24 view .LVU1600
	movslq	%r15d, %rcx	# i, i
# sub_64_aligned.c:822:     for (int i = 0; i < n; i++)
	.loc 1 822 29 view .LVU1601
	leal	2(%rax), %edx	#, i
# sub_64_aligned.c:824:         str[i] = digits[i] + '0';
	.loc 1 824 28 view .LVU1602
	addl	$48, %r10d	#, tmp840
	movb	%r10b, (%r11,%rcx)	# tmp840, *_271
	.loc 1 822 29 is_stmt 1 view .LVU1603
.LVL434:
	.loc 1 822 23 view .LVU1604
	cmpl	%r9d, %edx	# n.28_22, i
	jge	.L354	#,
	.loc 1 824 9 view .LVU1605
# sub_64_aligned.c:824:         str[i] = digits[i] + '0';
	.loc 1 824 28 is_stmt 0 view .LVU1606
	movzbl	16(%rbx,%r12), %esi	# *_161, tmp1788
# sub_64_aligned.c:824:         str[i] = digits[i] + '0';
	.loc 1 824 24 view .LVU1607
	movslq	%edx, %r8	# i, i
# sub_64_aligned.c:822:     for (int i = 0; i < n; i++)
	.loc 1 822 29 view .LVU1608
	leal	3(%rax), %edi	#, i
# sub_64_aligned.c:824:         str[i] = digits[i] + '0';
	.loc 1 824 28 view .LVU1609
	addl	$48, %esi	#, tmp843
	movb	%sil, (%r11,%r8)	# tmp843, *_165
	.loc 1 822 29 is_stmt 1 view .LVU1610
.LVL435:
	.loc 1 822 23 view .LVU1611
	cmpl	%r9d, %edi	# n.28_22, i
	jge	.L354	#,
	.loc 1 824 9 view .LVU1612
# sub_64_aligned.c:824:         str[i] = digits[i] + '0';
	.loc 1 824 28 is_stmt 0 view .LVU1613
	movzbl	24(%rbx,%r12), %r15d	# *_172, tmp1791
# sub_64_aligned.c:824:         str[i] = digits[i] + '0';
	.loc 1 824 24 view .LVU1614
	movslq	%edi, %r14	# i, i
# sub_64_aligned.c:822:     for (int i = 0; i < n; i++)
	.loc 1 822 29 view .LVU1615
	leal	4(%rax), %ecx	#, i
# sub_64_aligned.c:824:         str[i] = digits[i] + '0';
	.loc 1 824 28 view .LVU1616
	addl	$48, %r15d	#, tmp846
	movb	%r15b, (%r11,%r14)	# tmp846, *_660
	.loc 1 822 29 is_stmt 1 view .LVU1617
.LVL436:
	.loc 1 822 23 view .LVU1618
	cmpl	%ecx, %r9d	# i, n.28_22
	jle	.L354	#,
	.loc 1 824 9 view .LVU1619
# sub_64_aligned.c:824:         str[i] = digits[i] + '0';
	.loc 1 824 28 is_stmt 0 view .LVU1620
	movzbl	32(%rbx,%r12), %edx	# *_546, tmp1794
# sub_64_aligned.c:824:         str[i] = digits[i] + '0';
	.loc 1 824 24 view .LVU1621
	movslq	%ecx, %r10	# i, i
# sub_64_aligned.c:822:     for (int i = 0; i < n; i++)
	.loc 1 822 29 view .LVU1622
	leal	5(%rax), %r8d	#, i
# sub_64_aligned.c:824:         str[i] = digits[i] + '0';
	.loc 1 824 28 view .LVU1623
	addl	$48, %edx	#, tmp849
	movb	%dl, (%r11,%r10)	# tmp849, *_409
	.loc 1 822 29 is_stmt 1 view .LVU1624
.LVL437:
	.loc 1 822 23 view .LVU1625
	cmpl	%r8d, %r9d	# i, n.28_22
	jle	.L354	#,
	.loc 1 824 9 view .LVU1626
# sub_64_aligned.c:824:         str[i] = digits[i] + '0';
	.loc 1 824 28 is_stmt 0 view .LVU1627
	movzbl	40(%rbx,%r12), %esi	# *_711, tmp1797
# sub_64_aligned.c:824:         str[i] = digits[i] + '0';
	.loc 1 824 24 view .LVU1628
	movslq	%r8d, %rdi	# i, i
# sub_64_aligned.c:822:     for (int i = 0; i < n; i++)
	.loc 1 822 29 view .LVU1629
	leal	6(%rax), %r14d	#, i
# sub_64_aligned.c:824:         str[i] = digits[i] + '0';
	.loc 1 824 28 view .LVU1630
	addl	$48, %esi	#, tmp852
	movb	%sil, (%r11,%rdi)	# tmp852, *_715
	.loc 1 822 29 is_stmt 1 view .LVU1631
.LVL438:
	.loc 1 822 23 view .LVU1632
	cmpl	%r14d, %r9d	# i, n.28_22
	jle	.L354	#,
	.loc 1 824 9 view .LVU1633
# sub_64_aligned.c:824:         str[i] = digits[i] + '0';
	.loc 1 824 28 is_stmt 0 view .LVU1634
	movzbl	48(%rbx,%r12), %ecx	# *_723, tmp1800
# sub_64_aligned.c:824:         str[i] = digits[i] + '0';
	.loc 1 824 24 view .LVU1635
	movslq	%r14d, %r15	# i, i
# sub_64_aligned.c:822:     for (int i = 0; i < n; i++)
	.loc 1 822 29 view .LVU1636
	leal	7(%rax), %r10d	#, i
# sub_64_aligned.c:824:         str[i] = digits[i] + '0';
	.loc 1 824 28 view .LVU1637
	addl	$48, %ecx	#, tmp855
	movb	%cl, (%r11,%r15)	# tmp855, *_727
	.loc 1 822 29 is_stmt 1 view .LVU1638
.LVL439:
	.loc 1 822 23 view .LVU1639
	cmpl	%r10d, %r9d	# i, n.28_22
	jle	.L354	#,
	.loc 1 824 9 view .LVU1640
# sub_64_aligned.c:824:         str[i] = digits[i] + '0';
	.loc 1 824 28 is_stmt 0 view .LVU1641
	movzbl	56(%rbx,%r12), %r8d	# *_735, tmp1803
# sub_64_aligned.c:824:         str[i] = digits[i] + '0';
	.loc 1 824 24 view .LVU1642
	movslq	%r10d, %rdx	# i, i
# sub_64_aligned.c:822:     for (int i = 0; i < n; i++)
	.loc 1 822 29 view .LVU1643
	leal	8(%rax), %edi	#, i
# sub_64_aligned.c:824:         str[i] = digits[i] + '0';
	.loc 1 824 28 view .LVU1644
	addl	$48, %r8d	#, tmp858
	movb	%r8b, (%r11,%rdx)	# tmp858, *_739
	.loc 1 822 29 is_stmt 1 view .LVU1645
.LVL440:
	.loc 1 822 23 view .LVU1646
	cmpl	%edi, %r9d	# i, n.28_22
	jle	.L354	#,
	.loc 1 824 9 view .LVU1647
# sub_64_aligned.c:824:         str[i] = digits[i] + '0';
	.loc 1 824 28 is_stmt 0 view .LVU1648
	movzbl	64(%rbx,%r12), %esi	# *_747, tmp1806
# sub_64_aligned.c:824:         str[i] = digits[i] + '0';
	.loc 1 824 24 view .LVU1649
	movslq	%edi, %r14	# i, i
# sub_64_aligned.c:822:     for (int i = 0; i < n; i++)
	.loc 1 822 29 view .LVU1650
	leal	9(%rax), %r15d	#, i
# sub_64_aligned.c:824:         str[i] = digits[i] + '0';
	.loc 1 824 28 view .LVU1651
	addl	$48, %esi	#, tmp861
	movb	%sil, (%r11,%r14)	# tmp861, *_751
	.loc 1 822 29 is_stmt 1 view .LVU1652
.LVL441:
	.loc 1 822 23 view .LVU1653
	cmpl	%r15d, %r9d	# i, n.28_22
	jle	.L354	#,
	.loc 1 824 9 view .LVU1654
# sub_64_aligned.c:824:         str[i] = digits[i] + '0';
	.loc 1 824 28 is_stmt 0 view .LVU1655
	movzbl	72(%rbx,%r12), %r10d	# *_759, tmp1809
# sub_64_aligned.c:824:         str[i] = digits[i] + '0';
	.loc 1 824 24 view .LVU1656
	movslq	%r15d, %rcx	# i, i
# sub_64_aligned.c:822:     for (int i = 0; i < n; i++)
	.loc 1 822 29 view .LVU1657
	leal	10(%rax), %edx	#, i
# sub_64_aligned.c:824:         str[i] = digits[i] + '0';
	.loc 1 824 28 view .LVU1658
	addl	$48, %r10d	#, tmp864
	movb	%r10b, (%r11,%rcx)	# tmp864, *_763
	.loc 1 822 29 is_stmt 1 view .LVU1659
.LVL442:
	.loc 1 822 23 view .LVU1660
	cmpl	%edx, %r9d	# i, n.28_22
	jle	.L354	#,
	.loc 1 824 9 view .LVU1661
# sub_64_aligned.c:824:         str[i] = digits[i] + '0';
	.loc 1 824 28 is_stmt 0 view .LVU1662
	movzbl	80(%rbx,%r12), %edi	# *_771, tmp1812
# sub_64_aligned.c:824:         str[i] = digits[i] + '0';
	.loc 1 824 24 view .LVU1663
	movslq	%edx, %r8	# i, i
# sub_64_aligned.c:822:     for (int i = 0; i < n; i++)
	.loc 1 822 29 view .LVU1664
	leal	11(%rax), %r14d	#, i
# sub_64_aligned.c:824:         str[i] = digits[i] + '0';
	.loc 1 824 28 view .LVU1665
	addl	$48, %edi	#, tmp867
	movb	%dil, (%r11,%r8)	# tmp867, *_775
	.loc 1 822 29 is_stmt 1 view .LVU1666
.LVL443:
	.loc 1 822 23 view .LVU1667
	cmpl	%r14d, %r9d	# i, n.28_22
	jle	.L354	#,
	.loc 1 824 9 view .LVU1668
# sub_64_aligned.c:824:         str[i] = digits[i] + '0';
	.loc 1 824 28 is_stmt 0 view .LVU1669
	movzbl	88(%rbx,%r12), %esi	# *_783, tmp1815
# sub_64_aligned.c:824:         str[i] = digits[i] + '0';
	.loc 1 824 24 view .LVU1670
	movslq	%r14d, %r15	# i, i
# sub_64_aligned.c:822:     for (int i = 0; i < n; i++)
	.loc 1 822 29 view .LVU1671
	leal	12(%rax), %ecx	#, i
# sub_64_aligned.c:824:         str[i] = digits[i] + '0';
	.loc 1 824 28 view .LVU1672
	addl	$48, %esi	#, tmp870
	movb	%sil, (%r11,%r15)	# tmp870, *_787
	.loc 1 822 29 is_stmt 1 view .LVU1673
.LVL444:
	.loc 1 822 23 view .LVU1674
	cmpl	%ecx, %r9d	# i, n.28_22
	jle	.L354	#,
	.loc 1 824 9 view .LVU1675
# sub_64_aligned.c:824:         str[i] = digits[i] + '0';
	.loc 1 824 28 is_stmt 0 view .LVU1676
	movzbl	96(%rbx,%r12), %edx	# *_795, tmp1818
# sub_64_aligned.c:824:         str[i] = digits[i] + '0';
	.loc 1 824 24 view .LVU1677
	movslq	%ecx, %r10	# i, i
# sub_64_aligned.c:822:     for (int i = 0; i < n; i++)
	.loc 1 822 29 view .LVU1678
	leal	13(%rax), %r8d	#, i
# sub_64_aligned.c:824:         str[i] = digits[i] + '0';
	.loc 1 824 28 view .LVU1679
	addl	$48, %edx	#, tmp873
	movb	%dl, (%r11,%r10)	# tmp873, *_799
	.loc 1 822 29 is_stmt 1 view .LVU1680
.LVL445:
	.loc 1 822 23 view .LVU1681
	cmpl	%r8d, %r9d	# i, n.28_22
	jle	.L354	#,
	.loc 1 824 9 view .LVU1682
# sub_64_aligned.c:824:         str[i] = digits[i] + '0';
	.loc 1 824 28 is_stmt 0 view .LVU1683
	movzbl	104(%rbx,%r12), %r14d	# *_807, tmp1821
# sub_64_aligned.c:824:         str[i] = digits[i] + '0';
	.loc 1 824 24 view .LVU1684
	movslq	%r8d, %rdi	# i, i
# sub_64_aligned.c:822:     for (int i = 0; i < n; i++)
	.loc 1 822 29 view .LVU1685
	addl	$14, %eax	#, i
# sub_64_aligned.c:824:         str[i] = digits[i] + '0';
	.loc 1 824 28 view .LVU1686
	addl	$48, %r14d	#, tmp876
	movb	%r14b, (%r11,%rdi)	# tmp876, *_811
	.loc 1 822 29 is_stmt 1 view .LVU1687
.LVL446:
	.loc 1 822 23 view .LVU1688
	cmpl	%eax, %r9d	# i, n.28_22
	jle	.L354	#,
	.loc 1 824 9 view .LVU1689
# sub_64_aligned.c:824:         str[i] = digits[i] + '0';
	.loc 1 824 28 is_stmt 0 view .LVU1690
	movq	112(%rbx,%r12), %rbx	# *_583, *_583
.LVL447:
# sub_64_aligned.c:824:         str[i] = digits[i] + '0';
	.loc 1 824 24 view .LVU1691
	cltq
# sub_64_aligned.c:824:         str[i] = digits[i] + '0';
	.loc 1 824 28 view .LVU1692
	addl	$48, %ebx	#, tmp879
	movb	%bl, (%r11,%rax)	# tmp879, *_587
	.loc 1 822 29 is_stmt 1 view .LVU1693
	.loc 1 822 23 view .LVU1694
.LVL448:
	.p2align 4,,10
	.p2align 3
.L354:
	.loc 1 822 23 is_stmt 0 view .LVU1695
.LBE612:
	.loc 1 826 5 is_stmt 1 view .LVU1696
# sub_64_aligned.c:826:     str[n] = '\0';
	.loc 1 826 12 is_stmt 0 view .LVU1697
	movq	-1352(%rbp), %rbx	# %sfp, str
.LBE614:
.LBE618:
# sub_64_aligned.c:925:         make_equidistant(&a1_test1, &b1_test1, &n, &n);
	.loc 1 925 9 view .LVU1698
	leaq	-1344(%rbp), %rdx	#, tmp882
	movq	-1416(%rbp), %rsi	# %sfp,
	movq	-1424(%rbp), %rdi	# %sfp,
	movq	%rdx, %rcx	# tmp882,
.LBB619:
.LBB615:
# sub_64_aligned.c:826:     str[n] = '\0';
	.loc 1 826 12 view .LVU1699
	movb	$0, (%rbx,%r13)	#, *_273
	.loc 1 827 5 is_stmt 1 view .LVU1700
.LVL449:
	.loc 1 827 5 is_stmt 0 view .LVU1701
.LBE615:
.LBE619:
	.loc 1 925 9 is_stmt 1 view .LVU1702
	call	make_equidistant	#
.LVL450:
	.loc 1 928 9 view .LVU1703
# sub_64_aligned.c:928:         int n_limb = n;
	.loc 1 928 13 is_stmt 0 view .LVU1704
	movl	-1344(%rbp), %r13d	# n, n.28_22
# sub_64_aligned.c:932:         aligned_uint64_ptr a1_limbs = returnLimbs(a1_test1, &n_limb);
	.loc 1 932 39 view .LVU1705
	movq	-1328(%rbp), %rdi	# a1_test1,
	leaq	-1340(%rbp), %rsi	#, tmp886
# sub_64_aligned.c:928:         int n_limb = n;
	.loc 1 928 13 view .LVU1706
	movl	%r13d, -1360(%rbp)	# n.28_22, %sfp
	movl	%r13d, -1340(%rbp)	# n.28_22, n_limb
	.loc 1 929 9 is_stmt 1 view .LVU1707
# sub_64_aligned.c:929:         int m_limb = n;
	.loc 1 929 13 is_stmt 0 view .LVU1708
	movl	%r13d, -1336(%rbp)	# n.28_22, m_limb
	.loc 1 932 9 is_stmt 1 view .LVU1709
# sub_64_aligned.c:932:         aligned_uint64_ptr a1_limbs = returnLimbs(a1_test1, &n_limb);
	.loc 1 932 39 is_stmt 0 view .LVU1710
	call	returnLimbs	#
.LVL451:
# sub_64_aligned.c:934:         aligned_uint64_ptr b1_limbs = returnLimbs(b1_test1, &m_limb);
	.loc 1 934 39 view .LVU1711
	movq	-1264(%rbp), %rdi	# b1_test1,
	leaq	-1336(%rbp), %rsi	#, tmp888
# sub_64_aligned.c:932:         aligned_uint64_ptr a1_limbs = returnLimbs(a1_test1, &n_limb);
	.loc 1 932 39 view .LVU1712
	movq	%rax, %r12	# tmp1531, a1_limbs
.LVL452:
	.loc 1 934 9 is_stmt 1 view .LVU1713
# sub_64_aligned.c:934:         aligned_uint64_ptr b1_limbs = returnLimbs(b1_test1, &m_limb);
	.loc 1 934 39 is_stmt 0 view .LVU1714
	call	returnLimbs	#
.LVL453:
# sub_64_aligned.c:939:         int sub_size_test1 = n_limb;
	.loc 1 939 13 view .LVU1715
	movl	-1340(%rbp), %r14d	# n_limb, prephitmp_382
# sub_64_aligned.c:934:         aligned_uint64_ptr b1_limbs = returnLimbs(b1_test1, &m_limb);
	.loc 1 934 39 view .LVU1716
	movq	%rax, %r13	# tmp1532, b1_limbs
.LVL454:
	.loc 1 938 9 is_stmt 1 view .LVU1717
	.loc 1 939 9 view .LVU1718
# sub_64_aligned.c:940:         sub_space_ptr += (n_limb + 31) & ~31;
	.loc 1 940 34 is_stmt 0 view .LVU1719
	leal	31(%r14), %r9d	#, tmp890
# sub_64_aligned.c:939:         int sub_size_test1 = n_limb;
	.loc 1 939 13 view .LVU1720
	movl	%r14d, -1332(%rbp)	# prephitmp_382, sub_size_test1
	.loc 1 940 9 is_stmt 1 view .LVU1721
# sub_64_aligned.c:940:         sub_space_ptr += (n_limb + 31) & ~31;
	.loc 1 940 40 is_stmt 0 view .LVU1722
	andl	$-32, %r9d	#, _30
# sub_64_aligned.c:940:         sub_space_ptr += (n_limb + 31) & ~31;
	.loc 1 940 23 view .LVU1723
	addl	%r9d, sub_space_ptr(%rip)	# _30, sub_space_ptr
.LVL455:
	.loc 1 941 9 is_stmt 1 view .LVU1724
# sub_64_aligned.c:941:         borrow_space_ptr += (n_limb + 31) & ~31;
	.loc 1 941 26 is_stmt 0 view .LVU1725
	addl	%r9d, borrow_space_ptr(%rip)	# _30, borrow_space_ptr
	.loc 1 944 9 is_stmt 1 view .LVU1726
.LBB620:
.LBI620:
	.loc 1 72 13 view .LVU1727
.LBB621:
	.loc 1 74 5 view .LVU1728
	.loc 1 75 5 view .LVU1729
#APP
# 75 "sub_64_aligned.c" 1
	CPUID
	RDTSC
	mov %edx, %esi	# cycles_high
	mov %eax, %edi	# cycles_low
	
# 0 "" 2
.LVL456:
	.loc 1 79 5 view .LVU1730
# 79 "sub_64_aligned.c" 1
	RDTSCP
	mov %edx, %esi	# cycles_high1
	mov %eax, %edi	# cycles_low1
	CPUID
	
# 0 "" 2
	.loc 1 79 5 is_stmt 0 view .LVU1731
#NO_APP
.LBE621:
.LBE620:
	.loc 1 954 9 is_stmt 1 view .LVU1732
.LBB623:
.LBI623:
	.loc 1 644 6 view .LVU1733
.LVL457:
.LBB624:
	.loc 1 646 23 view .LVU1734
	leaq	fd(%rip), %r15	#, ivtmp.403
.LBE624:
.LBE623:
.LBB626:
.LBB622:
# sub_64_aligned.c:79:     asm volatile("RDTSCP\n\t"
	.loc 1 79 5 is_stmt 0 view .LVU1735
	movq	%r15, %rbx	# ivtmp.403, ivtmp.481
.LVL458:
	.p2align 4,,10
	.p2align 3
.L311:
	.loc 1 79 5 view .LVU1736
.LBE622:
.LBE626:
.LBB627:
.LBB625:
	.loc 1 648 9 is_stmt 1 view .LVU1737
	movl	(%rbx), %edi	# MEM[(int *)_537],
	xorl	%edx, %edx	#
	movl	$9219, %esi	#,
	xorl	%eax, %eax	#
# sub_64_aligned.c:646:     for (int j = 0; j < MAX_EVENTS; j++)
	.loc 1 646 23 is_stmt 0 view .LVU1738
	addq	$4, %rbx	#, ivtmp.481
.LVL459:
# sub_64_aligned.c:648:         ioctl(fd[j], PERF_EVENT_IOC_RESET, 0);
	.loc 1 648 9 view .LVU1739
	call	ioctl@PLT	#
.LVL460:
	.loc 1 649 9 is_stmt 1 view .LVU1740
	movl	-4(%rbx), %edi	# MEM[(int *)_537],
	xorl	%edx, %edx	#
	movl	$9216, %esi	#,
	xorl	%eax, %eax	#
	call	ioctl@PLT	#
.LVL461:
	.loc 1 646 38 view .LVU1741
	.loc 1 646 23 view .LVU1742
	leaq	24+fd(%rip), %r10	#, tmp1839
	cmpq	%r10, %rbx	# tmp1839, ivtmp.481
	jne	.L311	#,
.LBE625:
.LBE627:
	.loc 1 958 9 view .LVU1743
.LBB628:
.LBI628:
	.loc 1 87 27 view .LVU1744
.LBB629:
	.loc 1 89 5 view .LVU1745
	.loc 1 90 5 view .LVU1746
	.loc 1 91 5 view .LVU1747
#APP
# 91 "sub_64_aligned.c" 1
	CPUID
	RDTSC
	mov %edx, %r8d	# cycles_high
	mov %eax, %esi	# cycles_low
	
# 0 "" 2
.LVL462:
	.loc 1 95 5 view .LVU1748
#NO_APP
.LBE629:
.LBE628:
.LBB633:
.LBB634:
# sub_64_aligned.c:194:     aligned_uint64_ptr result = sub_space + sub_space_ptr;
	.loc 1 194 43 is_stmt 0 view .LVU1749
	movslq	sub_space_ptr(%rip), %rax	# sub_space_ptr, sub_space_ptr
.LBE634:
.LBE633:
.LBB665:
.LBB630:
# sub_64_aligned.c:95:     ticks = (((unsigned long long)cycles_high << 32) | cycles_low);
	.loc 1 95 47 view .LVU1750
	salq	$32, %r8	#, tmp899
.LVL463:
# sub_64_aligned.c:95:     ticks = (((unsigned long long)cycles_high << 32) | cycles_low);
	.loc 1 95 54 view .LVU1751
	movl	%esi, %edi	# cycles_low, cycles_low
.LBE630:
.LBE665:
.LBB666:
.LBB660:
# sub_64_aligned.c:196:     bool is_less = is_less_than(a, b, n);
	.loc 1 196 20 view .LVU1752
	movslq	%r14d, %rdx	# prephitmp_382, _134
# sub_64_aligned.c:194:     aligned_uint64_ptr result = sub_space + sub_space_ptr;
	.loc 1 194 43 view .LVU1753
	movq	sub_space(%rip), %r10	# sub_space, sub_space.42_129
.LBE660:
.LBE666:
.LBB667:
.LBB631:
# sub_64_aligned.c:95:     ticks = (((unsigned long long)cycles_high << 32) | cycles_low);
	.loc 1 95 11 view .LVU1754
	orq	%rdi, %r8	# cycles_low, tmp899
	leaq	-1(%rdx), %r9	#, tmp1084
.LBE631:
.LBE667:
.LBB668:
.LBB661:
.LBB635:
.LBB636:
# sub_64_aligned.c:159:         if (*(a + i) < *(b + i))
	.loc 1 159 12 view .LVU1755
	movq	0(%r13), %rcx	# MEM[(uint64_t *)b1_limbs_83 + ivtmp.470_486 * 8], tmp1841
.LBE636:
.LBE635:
# sub_64_aligned.c:194:     aligned_uint64_ptr result = sub_space + sub_space_ptr;
	.loc 1 194 43 view .LVU1756
	leaq	0(,%rax,8), %r11	#, _132
.LBE661:
.LBE668:
.LBB669:
.LBB632:
# sub_64_aligned.c:95:     ticks = (((unsigned long long)cycles_high << 32) | cycles_low);
	.loc 1 95 11 view .LVU1757
	movq	%r8, -1384(%rbp)	# tmp899, %sfp
.LVL464:
	.loc 1 96 5 is_stmt 1 view .LVU1758
	.loc 1 96 5 is_stmt 0 view .LVU1759
.LBE632:
.LBE669:
	.loc 1 961 9 is_stmt 1 view .LVU1760
.LBB670:
.LBI633:
	.loc 1 189 13 view .LVU1761
.LBB662:
	.loc 1 191 5 view .LVU1762
	.loc 1 192 5 view .LVU1763
	.loc 1 194 5 view .LVU1764
	andl	$7, %r9d	#, tmp1086
# sub_64_aligned.c:194:     aligned_uint64_ptr result = sub_space + sub_space_ptr;
	.loc 1 194 24 is_stmt 0 view .LVU1765
	leaq	(%r10,%r11), %rbx	#, result
.LVL465:
	.loc 1 196 5 is_stmt 1 view .LVU1766
.LBB639:
.LBI635:
	.loc 1 152 13 view .LVU1767
.LBB637:
	.loc 1 154 5 view .LVU1768
	.loc 1 155 5 view .LVU1769
	.loc 1 156 5 view .LVU1770
	.loc 1 157 5 view .LVU1771
	.loc 1 159 9 view .LVU1772
# sub_64_aligned.c:159:         if (*(a + i) < *(b + i))
	.loc 1 159 12 is_stmt 0 view .LVU1773
	cmpq	%rcx, (%r12)	# tmp1841, MEM[(uint64_t *)a1_limbs_81 + ivtmp.470_486 * 8]
	jb	.L357	#,
	.loc 1 163 14 is_stmt 1 view .LVU1774
# sub_64_aligned.c:163:         else if (*(a + i) > *(b + i))
	.loc 1 163 17 is_stmt 0 view .LVU1775
	ja	.L358	#,
	.loc 1 167 9 is_stmt 1 view .LVU1776
.LVL466:
	.loc 1 168 14 view .LVU1777
	movl	$1, %ecx	#, ivtmp.470
	cmpq	$1, %rdx	#, _134
	ja	.L787	#,
.LVL467:
.L742:
	.loc 1 168 14 is_stmt 0 view .LVU1778
.LBE637:
.LBE639:
	.loc 1 197 5 is_stmt 1 view .LVU1779
# sub_64_aligned.c:197:     if (is_less)
	.loc 1 197 8 is_stmt 0 view .LVU1780
	cmpb	$0, -1433(%rbp)	#, %sfp
	movq	%r13, %rax	# b1_limbs, b
	je	.L312	#,
.LVL468:
	.loc 1 197 8 view .LVU1781
	movq	%r12, %rax	# a1_limbs, b
.LVL469:
	.loc 1 197 8 view .LVU1782
	movq	%r13, %r12	# b1_limbs, a
.LVL470:
.L312:
	.loc 1 206 5 is_stmt 1 view .LVU1783
# sub_64_aligned.c:206:     aligned_uint64_ptr borrow_array = borrow_space + borrow_space_ptr;
	.loc 1 206 52 is_stmt 0 view .LVU1784
	movslq	borrow_space_ptr(%rip), %rcx	# borrow_space_ptr, borrow_space_ptr
	movq	borrow_space(%rip), %r13	# borrow_space, borrow_space.44_148
.LVL471:
	.loc 1 206 52 view .LVU1785
	salq	$3, %rcx	#, _151
	movq	%rcx, -1392(%rbp)	# _151, %sfp
# sub_64_aligned.c:206:     aligned_uint64_ptr borrow_array = borrow_space + borrow_space_ptr;
	.loc 1 206 24 view .LVU1786
	addq	%r13, %rcx	# borrow_space.44_148, borrow_array
.LVL472:
	.loc 1 207 5 is_stmt 1 view .LVU1787
	.loc 1 208 5 view .LVU1788
	.loc 1 209 5 view .LVU1789
	.loc 1 210 5 view .LVU1790
	.loc 1 212 5 view .LVU1791
	.loc 1 212 19 view .LVU1792
	testl	%r14d, %r14d	# prephitmp_382
	jle	.L314	#,
	leaq	8(%r10,%r11), %rsi	#, tmp906
	leaq	8(%r12), %r8	#, _468
	cmpq	%rsi, %rcx	# tmp906, borrow_array
	leal	-1(%r14), %esi	#, tmp909
	leaq	8(%rax), %r9	#, _474
	setne	%dil	#, tmp908
	cmpl	$1, %esi	#, tmp909
	seta	%sil	#, tmp911
	andl	%edi, %esi	# tmp908, tmp912
	cmpq	%r8, %rbx	# _468, result
	setne	%dil	#, tmp914
	andl	%esi, %edi	# tmp912, tmp915
	cmpq	%r9, %rbx	# _474, result
	setne	%sil	#, tmp917
	andl	%edi, %esi	# tmp915, tmp918
	cmpq	%r8, %rcx	# _468, borrow_array
	setne	%r8b	#, tmp920
	testb	%r8b, %sil	# tmp920, tmp918
	je	.L315	#,
	cmpq	%r9, %rcx	# _474, borrow_array
	je	.L315	#,
	movl	%r14d, %r9d	# prephitmp_382, bnd.327
	xorl	%esi, %esi	# ivtmp.460
# sub_64_aligned.c:224:             borrow_array[i] = 0;
	.loc 1 224 29 is_stmt 0 view .LVU1793
	pxor	%xmm10, %xmm10	# tmp929
	shrl	%r9d	#
	salq	$4, %r9	#, _485
	leaq	-16(%r9), %rdi	#, tmp1080
	shrq	$4, %rdi	#, tmp1078
	addq	$1, %rdi	#, tmp1081
	andl	$7, %edi	#, tmp1082
	je	.L316	#,
	cmpq	$1, %rdi	#, tmp1082
	je	.L605	#,
	cmpq	$2, %rdi	#, tmp1082
	je	.L606	#,
	cmpq	$3, %rdi	#, tmp1082
	je	.L607	#,
	cmpq	$4, %rdi	#, tmp1082
	je	.L608	#,
	cmpq	$5, %rdi	#, tmp1082
	je	.L609	#,
	cmpq	$6, %rdi	#, tmp1082
	je	.L610	#,
.LVL473:
	.loc 1 215 9 is_stmt 1 view .LVU1794
# sub_64_aligned.c:215:         result[i] = a[i] - b[i];
	.loc 1 215 26 is_stmt 0 view .LVU1795
	movdqu	(%r12), %xmm7	# MEM <vector(2) long unsigned int> [(uint64_t *)a_156 + ivtmp.460_478 * 1], vect__163.336
	movdqu	(%rax), %xmm6	# MEM <vector(2) long unsigned int> [(uint64_t *)b_159 + ivtmp.460_478 * 1], tmp1942
	movl	$16, %esi	#, ivtmp.460
	psubq	%xmm6, %xmm7	# tmp1942, vect__163.336
# sub_64_aligned.c:215:         result[i] = a[i] - b[i];
	.loc 1 215 19 view .LVU1796
	movups	%xmm7, (%rbx)	# vect__163.336, MEM <vector(2) long unsigned int> [(uint64_t *)result_133 + ivtmp.460_478 * 1]
	.loc 1 217 9 is_stmt 1 view .LVU1797
	.loc 1 224 13 view .LVU1798
# sub_64_aligned.c:224:             borrow_array[i] = 0;
	.loc 1 224 29 is_stmt 0 view .LVU1799
	movups	%xmm10, (%rcx)	# tmp929, MEM <vector(2) long unsigned int> [(uint64_t *)borrow_array_152 + ivtmp.460_478 * 1]
	.loc 1 212 25 is_stmt 1 view .LVU1800
	.loc 1 212 19 view .LVU1801
.L610:
	.loc 1 215 9 view .LVU1802
# sub_64_aligned.c:215:         result[i] = a[i] - b[i];
	.loc 1 215 26 is_stmt 0 view .LVU1803
	movdqu	(%r12,%rsi), %xmm11	# MEM <vector(2) long unsigned int> [(uint64_t *)a_156 + ivtmp.460_478 * 1], vect__163.336
	movdqu	(%rax,%rsi), %xmm12	# MEM <vector(2) long unsigned int> [(uint64_t *)b_159 + ivtmp.460_478 * 1], tmp1944
	psubq	%xmm12, %xmm11	# tmp1944, vect__163.336
# sub_64_aligned.c:215:         result[i] = a[i] - b[i];
	.loc 1 215 19 view .LVU1804
	movups	%xmm11, (%rbx,%rsi)	# vect__163.336, MEM <vector(2) long unsigned int> [(uint64_t *)result_133 + ivtmp.460_478 * 1]
	.loc 1 217 9 is_stmt 1 view .LVU1805
	.loc 1 224 13 view .LVU1806
# sub_64_aligned.c:224:             borrow_array[i] = 0;
	.loc 1 224 29 is_stmt 0 view .LVU1807
	movups	%xmm10, (%rcx,%rsi)	# tmp929, MEM <vector(2) long unsigned int> [(uint64_t *)borrow_array_152 + ivtmp.460_478 * 1]
	.loc 1 212 25 is_stmt 1 view .LVU1808
	.loc 1 212 19 view .LVU1809
	addq	$16, %rsi	#, ivtmp.460
.L609:
	.loc 1 215 9 view .LVU1810
# sub_64_aligned.c:215:         result[i] = a[i] - b[i];
	.loc 1 215 26 is_stmt 0 view .LVU1811
	movdqu	(%r12,%rsi), %xmm13	# MEM <vector(2) long unsigned int> [(uint64_t *)a_156 + ivtmp.460_478 * 1], vect__163.336
	movdqu	(%rax,%rsi), %xmm14	# MEM <vector(2) long unsigned int> [(uint64_t *)b_159 + ivtmp.460_478 * 1], tmp1946
	psubq	%xmm14, %xmm13	# tmp1946, vect__163.336
# sub_64_aligned.c:215:         result[i] = a[i] - b[i];
	.loc 1 215 19 view .LVU1812
	movups	%xmm13, (%rbx,%rsi)	# vect__163.336, MEM <vector(2) long unsigned int> [(uint64_t *)result_133 + ivtmp.460_478 * 1]
	.loc 1 217 9 is_stmt 1 view .LVU1813
	.loc 1 224 13 view .LVU1814
# sub_64_aligned.c:224:             borrow_array[i] = 0;
	.loc 1 224 29 is_stmt 0 view .LVU1815
	movups	%xmm10, (%rcx,%rsi)	# tmp929, MEM <vector(2) long unsigned int> [(uint64_t *)borrow_array_152 + ivtmp.460_478 * 1]
	.loc 1 212 25 is_stmt 1 view .LVU1816
	.loc 1 212 19 view .LVU1817
	addq	$16, %rsi	#, ivtmp.460
.L608:
	.loc 1 215 9 view .LVU1818
# sub_64_aligned.c:215:         result[i] = a[i] - b[i];
	.loc 1 215 26 is_stmt 0 view .LVU1819
	movdqu	(%r12,%rsi), %xmm15	# MEM <vector(2) long unsigned int> [(uint64_t *)a_156 + ivtmp.460_478 * 1], vect__163.336
	movdqu	(%rax,%rsi), %xmm0	# MEM <vector(2) long unsigned int> [(uint64_t *)b_159 + ivtmp.460_478 * 1], tmp1948
	psubq	%xmm0, %xmm15	# tmp1948, vect__163.336
# sub_64_aligned.c:215:         result[i] = a[i] - b[i];
	.loc 1 215 19 view .LVU1820
	movups	%xmm15, (%rbx,%rsi)	# vect__163.336, MEM <vector(2) long unsigned int> [(uint64_t *)result_133 + ivtmp.460_478 * 1]
	.loc 1 217 9 is_stmt 1 view .LVU1821
	.loc 1 224 13 view .LVU1822
# sub_64_aligned.c:224:             borrow_array[i] = 0;
	.loc 1 224 29 is_stmt 0 view .LVU1823
	movups	%xmm10, (%rcx,%rsi)	# tmp929, MEM <vector(2) long unsigned int> [(uint64_t *)borrow_array_152 + ivtmp.460_478 * 1]
	.loc 1 212 25 is_stmt 1 view .LVU1824
	.loc 1 212 19 view .LVU1825
	addq	$16, %rsi	#, ivtmp.460
.L607:
	.loc 1 215 9 view .LVU1826
# sub_64_aligned.c:215:         result[i] = a[i] - b[i];
	.loc 1 215 26 is_stmt 0 view .LVU1827
	movdqu	(%r12,%rsi), %xmm4	# MEM <vector(2) long unsigned int> [(uint64_t *)a_156 + ivtmp.460_478 * 1], vect__163.336
	movdqu	(%rax,%rsi), %xmm1	# MEM <vector(2) long unsigned int> [(uint64_t *)b_159 + ivtmp.460_478 * 1], tmp1950
	psubq	%xmm1, %xmm4	# tmp1950, vect__163.336
# sub_64_aligned.c:215:         result[i] = a[i] - b[i];
	.loc 1 215 19 view .LVU1828
	movups	%xmm4, (%rbx,%rsi)	# vect__163.336, MEM <vector(2) long unsigned int> [(uint64_t *)result_133 + ivtmp.460_478 * 1]
	.loc 1 217 9 is_stmt 1 view .LVU1829
	.loc 1 224 13 view .LVU1830
# sub_64_aligned.c:224:             borrow_array[i] = 0;
	.loc 1 224 29 is_stmt 0 view .LVU1831
	movups	%xmm10, (%rcx,%rsi)	# tmp929, MEM <vector(2) long unsigned int> [(uint64_t *)borrow_array_152 + ivtmp.460_478 * 1]
	.loc 1 212 25 is_stmt 1 view .LVU1832
	.loc 1 212 19 view .LVU1833
	addq	$16, %rsi	#, ivtmp.460
.L606:
	.loc 1 215 9 view .LVU1834
# sub_64_aligned.c:215:         result[i] = a[i] - b[i];
	.loc 1 215 26 is_stmt 0 view .LVU1835
	movdqu	(%r12,%rsi), %xmm5	# MEM <vector(2) long unsigned int> [(uint64_t *)a_156 + ivtmp.460_478 * 1], vect__163.336
	movdqu	(%rax,%rsi), %xmm8	# MEM <vector(2) long unsigned int> [(uint64_t *)b_159 + ivtmp.460_478 * 1], tmp1952
	psubq	%xmm8, %xmm5	# tmp1952, vect__163.336
# sub_64_aligned.c:215:         result[i] = a[i] - b[i];
	.loc 1 215 19 view .LVU1836
	movups	%xmm5, (%rbx,%rsi)	# vect__163.336, MEM <vector(2) long unsigned int> [(uint64_t *)result_133 + ivtmp.460_478 * 1]
	.loc 1 217 9 is_stmt 1 view .LVU1837
	.loc 1 224 13 view .LVU1838
# sub_64_aligned.c:224:             borrow_array[i] = 0;
	.loc 1 224 29 is_stmt 0 view .LVU1839
	movups	%xmm10, (%rcx,%rsi)	# tmp929, MEM <vector(2) long unsigned int> [(uint64_t *)borrow_array_152 + ivtmp.460_478 * 1]
	.loc 1 212 25 is_stmt 1 view .LVU1840
	.loc 1 212 19 view .LVU1841
	addq	$16, %rsi	#, ivtmp.460
.L605:
	.loc 1 215 9 view .LVU1842
# sub_64_aligned.c:215:         result[i] = a[i] - b[i];
	.loc 1 215 26 is_stmt 0 view .LVU1843
	movdqu	(%r12,%rsi), %xmm2	# MEM <vector(2) long unsigned int> [(uint64_t *)a_156 + ivtmp.460_478 * 1], vect__163.336
	movdqu	(%rax,%rsi), %xmm9	# MEM <vector(2) long unsigned int> [(uint64_t *)b_159 + ivtmp.460_478 * 1], tmp1954
	psubq	%xmm9, %xmm2	# tmp1954, vect__163.336
# sub_64_aligned.c:215:         result[i] = a[i] - b[i];
	.loc 1 215 19 view .LVU1844
	movups	%xmm2, (%rbx,%rsi)	# vect__163.336, MEM <vector(2) long unsigned int> [(uint64_t *)result_133 + ivtmp.460_478 * 1]
	.loc 1 217 9 is_stmt 1 view .LVU1845
	.loc 1 224 13 view .LVU1846
# sub_64_aligned.c:224:             borrow_array[i] = 0;
	.loc 1 224 29 is_stmt 0 view .LVU1847
	movups	%xmm10, (%rcx,%rsi)	# tmp929, MEM <vector(2) long unsigned int> [(uint64_t *)borrow_array_152 + ivtmp.460_478 * 1]
	.loc 1 212 25 is_stmt 1 view .LVU1848
	.loc 1 212 19 view .LVU1849
	addq	$16, %rsi	#, ivtmp.460
	cmpq	%r9, %rsi	# _485, ivtmp.460
	je	.L741	#,
.L316:
	.loc 1 215 9 view .LVU1850
# sub_64_aligned.c:215:         result[i] = a[i] - b[i];
	.loc 1 215 26 is_stmt 0 view .LVU1851
	movdqu	(%r12,%rsi), %xmm3	# MEM <vector(2) long unsigned int> [(uint64_t *)a_156 + ivtmp.460_478 * 1], vect__163.336
	movdqu	(%rax,%rsi), %xmm7	# MEM <vector(2) long unsigned int> [(uint64_t *)b_159 + ivtmp.460_478 * 1], tmp1849
	psubq	%xmm7, %xmm3	# tmp1849, vect__163.336
# sub_64_aligned.c:215:         result[i] = a[i] - b[i];
	.loc 1 215 19 view .LVU1852
	movups	%xmm3, (%rbx,%rsi)	# vect__163.336, MEM <vector(2) long unsigned int> [(uint64_t *)result_133 + ivtmp.460_478 * 1]
	.loc 1 217 9 is_stmt 1 view .LVU1853
	.loc 1 224 13 view .LVU1854
# sub_64_aligned.c:224:             borrow_array[i] = 0;
	.loc 1 224 29 is_stmt 0 view .LVU1855
	movups	%xmm10, (%rcx,%rsi)	# tmp929, MEM <vector(2) long unsigned int> [(uint64_t *)borrow_array_152 + ivtmp.460_478 * 1]
	.loc 1 212 25 is_stmt 1 view .LVU1856
	.loc 1 212 19 view .LVU1857
	.loc 1 215 9 view .LVU1858
# sub_64_aligned.c:215:         result[i] = a[i] - b[i];
	.loc 1 215 26 is_stmt 0 view .LVU1859
	movdqu	16(%r12,%rsi), %xmm6	# MEM <vector(2) long unsigned int> [(uint64_t *)a_156 + ivtmp.460_478 * 1], vect__163.336
	movdqu	16(%rax,%rsi), %xmm11	# MEM <vector(2) long unsigned int> [(uint64_t *)b_159 + ivtmp.460_478 * 1], tmp1851
	psubq	%xmm11, %xmm6	# tmp1851, vect__163.336
# sub_64_aligned.c:215:         result[i] = a[i] - b[i];
	.loc 1 215 19 view .LVU1860
	movups	%xmm6, 16(%rbx,%rsi)	# vect__163.336, MEM <vector(2) long unsigned int> [(uint64_t *)result_133 + ivtmp.460_478 * 1]
	.loc 1 217 9 is_stmt 1 view .LVU1861
	.loc 1 224 13 view .LVU1862
# sub_64_aligned.c:224:             borrow_array[i] = 0;
	.loc 1 224 29 is_stmt 0 view .LVU1863
	movups	%xmm10, 16(%rcx,%rsi)	# tmp929, MEM <vector(2) long unsigned int> [(uint64_t *)borrow_array_152 + ivtmp.460_478 * 1]
	.loc 1 212 25 is_stmt 1 view .LVU1864
	.loc 1 212 19 view .LVU1865
	.loc 1 215 9 view .LVU1866
# sub_64_aligned.c:215:         result[i] = a[i] - b[i];
	.loc 1 215 26 is_stmt 0 view .LVU1867
	movdqu	32(%r12,%rsi), %xmm12	# MEM <vector(2) long unsigned int> [(uint64_t *)a_156 + ivtmp.460_478 * 1], vect__163.336
	movdqu	32(%rax,%rsi), %xmm13	# MEM <vector(2) long unsigned int> [(uint64_t *)b_159 + ivtmp.460_478 * 1], tmp1853
	psubq	%xmm13, %xmm12	# tmp1853, vect__163.336
# sub_64_aligned.c:215:         result[i] = a[i] - b[i];
	.loc 1 215 19 view .LVU1868
	movups	%xmm12, 32(%rbx,%rsi)	# vect__163.336, MEM <vector(2) long unsigned int> [(uint64_t *)result_133 + ivtmp.460_478 * 1]
	.loc 1 217 9 is_stmt 1 view .LVU1869
	.loc 1 224 13 view .LVU1870
# sub_64_aligned.c:224:             borrow_array[i] = 0;
	.loc 1 224 29 is_stmt 0 view .LVU1871
	movups	%xmm10, 32(%rcx,%rsi)	# tmp929, MEM <vector(2) long unsigned int> [(uint64_t *)borrow_array_152 + ivtmp.460_478 * 1]
	.loc 1 212 25 is_stmt 1 view .LVU1872
	.loc 1 212 19 view .LVU1873
	.loc 1 215 9 view .LVU1874
# sub_64_aligned.c:215:         result[i] = a[i] - b[i];
	.loc 1 215 26 is_stmt 0 view .LVU1875
	movdqu	48(%r12,%rsi), %xmm14	# MEM <vector(2) long unsigned int> [(uint64_t *)a_156 + ivtmp.460_478 * 1], vect__163.336
	movdqu	48(%rax,%rsi), %xmm15	# MEM <vector(2) long unsigned int> [(uint64_t *)b_159 + ivtmp.460_478 * 1], tmp1855
	psubq	%xmm15, %xmm14	# tmp1855, vect__163.336
# sub_64_aligned.c:215:         result[i] = a[i] - b[i];
	.loc 1 215 19 view .LVU1876
	movups	%xmm14, 48(%rbx,%rsi)	# vect__163.336, MEM <vector(2) long unsigned int> [(uint64_t *)result_133 + ivtmp.460_478 * 1]
	.loc 1 217 9 is_stmt 1 view .LVU1877
	.loc 1 224 13 view .LVU1878
# sub_64_aligned.c:224:             borrow_array[i] = 0;
	.loc 1 224 29 is_stmt 0 view .LVU1879
	movups	%xmm10, 48(%rcx,%rsi)	# tmp929, MEM <vector(2) long unsigned int> [(uint64_t *)borrow_array_152 + ivtmp.460_478 * 1]
	.loc 1 212 25 is_stmt 1 view .LVU1880
	.loc 1 212 19 view .LVU1881
	.loc 1 215 9 view .LVU1882
# sub_64_aligned.c:215:         result[i] = a[i] - b[i];
	.loc 1 215 26 is_stmt 0 view .LVU1883
	movdqu	64(%r12,%rsi), %xmm0	# MEM <vector(2) long unsigned int> [(uint64_t *)a_156 + ivtmp.460_478 * 1], vect__163.336
	movdqu	64(%rax,%rsi), %xmm4	# MEM <vector(2) long unsigned int> [(uint64_t *)b_159 + ivtmp.460_478 * 1], tmp1857
	psubq	%xmm4, %xmm0	# tmp1857, vect__163.336
# sub_64_aligned.c:215:         result[i] = a[i] - b[i];
	.loc 1 215 19 view .LVU1884
	movups	%xmm0, 64(%rbx,%rsi)	# vect__163.336, MEM <vector(2) long unsigned int> [(uint64_t *)result_133 + ivtmp.460_478 * 1]
	.loc 1 217 9 is_stmt 1 view .LVU1885
	.loc 1 224 13 view .LVU1886
# sub_64_aligned.c:224:             borrow_array[i] = 0;
	.loc 1 224 29 is_stmt 0 view .LVU1887
	movups	%xmm10, 64(%rcx,%rsi)	# tmp929, MEM <vector(2) long unsigned int> [(uint64_t *)borrow_array_152 + ivtmp.460_478 * 1]
	.loc 1 212 25 is_stmt 1 view .LVU1888
	.loc 1 212 19 view .LVU1889
	.loc 1 215 9 view .LVU1890
# sub_64_aligned.c:215:         result[i] = a[i] - b[i];
	.loc 1 215 26 is_stmt 0 view .LVU1891
	movdqu	80(%r12,%rsi), %xmm1	# MEM <vector(2) long unsigned int> [(uint64_t *)a_156 + ivtmp.460_478 * 1], vect__163.336
	movdqu	80(%rax,%rsi), %xmm5	# MEM <vector(2) long unsigned int> [(uint64_t *)b_159 + ivtmp.460_478 * 1], tmp1859
	psubq	%xmm5, %xmm1	# tmp1859, vect__163.336
# sub_64_aligned.c:215:         result[i] = a[i] - b[i];
	.loc 1 215 19 view .LVU1892
	movups	%xmm1, 80(%rbx,%rsi)	# vect__163.336, MEM <vector(2) long unsigned int> [(uint64_t *)result_133 + ivtmp.460_478 * 1]
	.loc 1 217 9 is_stmt 1 view .LVU1893
	.loc 1 224 13 view .LVU1894
# sub_64_aligned.c:224:             borrow_array[i] = 0;
	.loc 1 224 29 is_stmt 0 view .LVU1895
	movups	%xmm10, 80(%rcx,%rsi)	# tmp929, MEM <vector(2) long unsigned int> [(uint64_t *)borrow_array_152 + ivtmp.460_478 * 1]
	.loc 1 212 25 is_stmt 1 view .LVU1896
	.loc 1 212 19 view .LVU1897
	.loc 1 215 9 view .LVU1898
# sub_64_aligned.c:215:         result[i] = a[i] - b[i];
	.loc 1 215 26 is_stmt 0 view .LVU1899
	movdqu	96(%r12,%rsi), %xmm8	# MEM <vector(2) long unsigned int> [(uint64_t *)a_156 + ivtmp.460_478 * 1], vect__163.336
	movdqu	96(%rax,%rsi), %xmm2	# MEM <vector(2) long unsigned int> [(uint64_t *)b_159 + ivtmp.460_478 * 1], tmp1861
	psubq	%xmm2, %xmm8	# tmp1861, vect__163.336
# sub_64_aligned.c:215:         result[i] = a[i] - b[i];
	.loc 1 215 19 view .LVU1900
	movups	%xmm8, 96(%rbx,%rsi)	# vect__163.336, MEM <vector(2) long unsigned int> [(uint64_t *)result_133 + ivtmp.460_478 * 1]
	.loc 1 217 9 is_stmt 1 view .LVU1901
	.loc 1 224 13 view .LVU1902
# sub_64_aligned.c:224:             borrow_array[i] = 0;
	.loc 1 224 29 is_stmt 0 view .LVU1903
	movups	%xmm10, 96(%rcx,%rsi)	# tmp929, MEM <vector(2) long unsigned int> [(uint64_t *)borrow_array_152 + ivtmp.460_478 * 1]
	.loc 1 212 25 is_stmt 1 view .LVU1904
	.loc 1 212 19 view .LVU1905
	.loc 1 215 9 view .LVU1906
# sub_64_aligned.c:215:         result[i] = a[i] - b[i];
	.loc 1 215 26 is_stmt 0 view .LVU1907
	movdqu	112(%r12,%rsi), %xmm9	# MEM <vector(2) long unsigned int> [(uint64_t *)a_156 + ivtmp.460_478 * 1], vect__163.336
	movdqu	112(%rax,%rsi), %xmm3	# MEM <vector(2) long unsigned int> [(uint64_t *)b_159 + ivtmp.460_478 * 1], tmp1863
	psubq	%xmm3, %xmm9	# tmp1863, vect__163.336
# sub_64_aligned.c:215:         result[i] = a[i] - b[i];
	.loc 1 215 19 view .LVU1908
	movups	%xmm9, 112(%rbx,%rsi)	# vect__163.336, MEM <vector(2) long unsigned int> [(uint64_t *)result_133 + ivtmp.460_478 * 1]
	.loc 1 217 9 is_stmt 1 view .LVU1909
	.loc 1 224 13 view .LVU1910
# sub_64_aligned.c:224:             borrow_array[i] = 0;
	.loc 1 224 29 is_stmt 0 view .LVU1911
	movups	%xmm10, 112(%rcx,%rsi)	# tmp929, MEM <vector(2) long unsigned int> [(uint64_t *)borrow_array_152 + ivtmp.460_478 * 1]
	.loc 1 212 25 is_stmt 1 view .LVU1912
	.loc 1 212 19 view .LVU1913
	subq	$-128, %rsi	#, ivtmp.460
	cmpq	%r9, %rsi	# _485, ivtmp.460
	jne	.L316	#,
.L741:
	.loc 1 212 19 is_stmt 0 view .LVU1914
	movl	%r14d, %r8d	# prephitmp_382, niters_vector_mult_vf.328
	andl	$-2, %r8d	#,
	testb	$1, %r14b	#, prephitmp_382
	je	.L322	#,
.LVL474:
	.loc 1 215 9 is_stmt 1 view .LVU1915
# sub_64_aligned.c:215:         result[i] = a[i] - b[i];
	.loc 1 215 26 is_stmt 0 view .LVU1916
	movq	(%r12,%r8,8), %r12	# *_509, *_509
.LVL475:
	.loc 1 215 26 view .LVU1917
	subq	(%rax,%r8,8), %r12	# *_511, *_509
# sub_64_aligned.c:215:         result[i] = a[i] - b[i];
	.loc 1 215 19 view .LVU1918
	movq	%r12, (%rbx,%r8,8)	# tmp933, *_513
	.loc 1 217 9 is_stmt 1 view .LVU1919
	.loc 1 224 13 view .LVU1920
# sub_64_aligned.c:224:             borrow_array[i] = 0;
	.loc 1 224 29 is_stmt 0 view .LVU1921
	movq	$0, (%rcx,%r8,8)	#, *_516
	.loc 1 212 25 is_stmt 1 view .LVU1922
.LVL476:
	.loc 1 212 19 view .LVU1923
.L322:
	.loc 1 229 5 view .LVU1924
.LBB640:
.LBI640:
	.loc 1 172 6 view .LVU1925
.LBB641:
	.loc 1 175 5 view .LVU1926
.LBB642:
.LBB643:
# sub_64_aligned.c:177:         memset(borrow_array, 0, n * sizeof(uint64_t)); // Clear the array if it's empty or has only one element
	.loc 1 177 9 is_stmt 0 view .LVU1927
	leaq	0(,%rdx,8), %r12	#, _438
.LBE643:
.LBE642:
# sub_64_aligned.c:175:     if (n <= 1)
	.loc 1 175 8 view .LVU1928
	cmpl	$1, %r14d	#, prephitmp_382
	jle	.L318	#,
# sub_64_aligned.c:182:     memmove(borrow_array, borrow_array + 1, (n - 1) * sizeof(uint64_t));
	.loc 1 182 5 view .LVU1929
	leaq	-8(%r12), %rdx	#, tmp945
# sub_64_aligned.c:182:     memmove(borrow_array, borrow_array + 1, (n - 1) * sizeof(uint64_t));
	.loc 1 182 40 view .LVU1930
	leaq	8(%rcx), %rsi	#, tmp946
.LBB648:
.LBB649:
# /usr/include/x86_64-linux-gnu/bits/string_fortified.h:36:   return __builtin___memmove_chk (__dest, __src, __len,
	.loc 4 36 10 view .LVU1931
	movq	%rcx, %rdi	# borrow_array,
	movq	%r11, -1456(%rbp)	# _132, %sfp
	movq	%r10, -1400(%rbp)	# sub_space.42_129, %sfp
	.loc 4 36 10 view .LVU1932
.LBE649:
.LBE648:
	.loc 1 182 5 is_stmt 1 view .LVU1933
.LVL477:
.LBB652:
.LBI648:
	.loc 4 34 1 view .LVU1934
.LBB650:
	.loc 4 36 3 view .LVU1935
# /usr/include/x86_64-linux-gnu/bits/string_fortified.h:36:   return __builtin___memmove_chk (__dest, __src, __len,
	.loc 4 36 10 is_stmt 0 view .LVU1936
	call	memmove@PLT	#
.LVL478:
	.loc 4 36 10 view .LVU1937
	movq	-1392(%rbp), %rdx	# %sfp, _151
	movq	-1456(%rbp), %r11	# %sfp, _132
.LBE650:
.LBE652:
# sub_64_aligned.c:185:     borrow_array[n - 1] = 0;
	.loc 1 185 25 view .LVU1938
	movq	$0, -8(%rax,%r12)	#, *_297
	movq	-1400(%rbp), %r12	# %sfp, sub_space.42_129
.LVL479:
.LBB653:
.LBB651:
# /usr/include/x86_64-linux-gnu/bits/string_fortified.h:36:   return __builtin___memmove_chk (__dest, __src, __len,
	.loc 4 36 10 view .LVU1939
	movq	%rax, %rcx	#, borrow_array
.LVL480:
	.loc 4 36 10 view .LVU1940
.LBE651:
.LBE653:
	.loc 1 185 5 is_stmt 1 view .LVU1941
	.loc 1 185 5 is_stmt 0 view .LVU1942
.LBE641:
.LBE640:
	.loc 1 234 19 is_stmt 1 view .LVU1943
	leaq	16(%r13,%rdx), %r10	#, tmp948
	cmpq	%r10, %rbx	# tmp948, result
	leaq	16(%r12,%r11), %rax	#, tmp952
	setnb	%r13b	#, tmp950
.LVL481:
	.loc 1 234 19 is_stmt 0 view .LVU1944
	cmpq	%rax, %rcx	# tmp952, borrow_array
	setnb	%r9b	#, tmp954
	orb	%r9b, %r13b	# tmp954, tmp1544
	je	.L360	#,
	cmpl	$2, %r14d	#, prephitmp_382
	jle	.L360	#,
	testl	%r14d, %r14d	# prephitmp_382
	movl	$1, %edi	#, tmp959
# sub_64_aligned.c:244:             borrow_array[i] = 0;
	.loc 1 244 29 view .LVU1945
	pxor	%xmm10, %xmm10	# tmp965
	cmovg	%r14d, %edi	# prephitmp_382,, niters.311
.LBB657:
.LBB655:
# sub_64_aligned.c:185:     borrow_array[n - 1] = 0;
	.loc 1 185 25 view .LVU1946
	xorl	%edx, %edx	# ivtmp.443
	movl	%edi, %esi	# niters.311, bnd.312
	shrl	%esi	#
	salq	$4, %rsi	#, _465
	leaq	-16(%rsi), %r8	#, tmp1069
	shrq	$4, %r8	#, tmp1067
	addq	$1, %r8	#, tmp1070
	andl	$7, %r8d	#, tmp1071
	je	.L327	#,
	cmpq	$1, %r8	#, tmp1071
	je	.L617	#,
	cmpq	$2, %r8	#, tmp1071
	je	.L618	#,
	cmpq	$3, %r8	#, tmp1071
	je	.L619	#,
	cmpq	$4, %r8	#, tmp1071
	je	.L620	#,
	cmpq	$5, %r8	#, tmp1071
	je	.L621	#,
	cmpq	$6, %r8	#, tmp1071
	je	.L622	#,
.LVL482:
	.loc 1 185 25 view .LVU1947
.LBE655:
.LBE657:
	.loc 1 236 9 is_stmt 1 view .LVU1948
# sub_64_aligned.c:236:         result[i] = result[i] - borrow_array[i];
	.loc 1 236 31 is_stmt 0 view .LVU1949
	movdqu	(%rbx), %xmm7	# MEM <vector(2) long unsigned int> [(uint64_t *)result_133 + ivtmp.443_597 * 1], vect__173.321
	movdqu	(%rcx), %xmm6	# MEM <vector(2) long unsigned int> [(uint64_t *)borrow_array_152 + ivtmp.443_597 * 1], tmp1928
	movl	$16, %edx	#, ivtmp.443
	psubq	%xmm6, %xmm7	# tmp1928, vect__173.321
# sub_64_aligned.c:236:         result[i] = result[i] - borrow_array[i];
	.loc 1 236 19 view .LVU1950
	movups	%xmm7, (%rbx)	# vect__173.321, MEM <vector(2) long unsigned int> [(uint64_t *)result_133 + ivtmp.443_597 * 1]
	.loc 1 237 9 is_stmt 1 view .LVU1951
	.loc 1 244 13 view .LVU1952
# sub_64_aligned.c:244:             borrow_array[i] = 0;
	.loc 1 244 29 is_stmt 0 view .LVU1953
	movups	%xmm10, (%rcx)	# tmp965, MEM <vector(2) long unsigned int> [(uint64_t *)borrow_array_152 + ivtmp.443_597 * 1]
	.loc 1 234 25 is_stmt 1 view .LVU1954
	.loc 1 234 19 view .LVU1955
.L622:
	.loc 1 236 9 view .LVU1956
# sub_64_aligned.c:236:         result[i] = result[i] - borrow_array[i];
	.loc 1 236 31 is_stmt 0 view .LVU1957
	movdqu	(%rbx,%rdx), %xmm11	# MEM <vector(2) long unsigned int> [(uint64_t *)result_133 + ivtmp.443_597 * 1], vect__173.321
	movdqu	(%rcx,%rdx), %xmm12	# MEM <vector(2) long unsigned int> [(uint64_t *)borrow_array_152 + ivtmp.443_597 * 1], tmp1930
	psubq	%xmm12, %xmm11	# tmp1930, vect__173.321
# sub_64_aligned.c:236:         result[i] = result[i] - borrow_array[i];
	.loc 1 236 19 view .LVU1958
	movups	%xmm11, (%rbx,%rdx)	# vect__173.321, MEM <vector(2) long unsigned int> [(uint64_t *)result_133 + ivtmp.443_597 * 1]
	.loc 1 237 9 is_stmt 1 view .LVU1959
	.loc 1 244 13 view .LVU1960
# sub_64_aligned.c:244:             borrow_array[i] = 0;
	.loc 1 244 29 is_stmt 0 view .LVU1961
	movups	%xmm10, (%rcx,%rdx)	# tmp965, MEM <vector(2) long unsigned int> [(uint64_t *)borrow_array_152 + ivtmp.443_597 * 1]
	.loc 1 234 25 is_stmt 1 view .LVU1962
	.loc 1 234 19 view .LVU1963
	addq	$16, %rdx	#, ivtmp.443
.L621:
	.loc 1 236 9 view .LVU1964
# sub_64_aligned.c:236:         result[i] = result[i] - borrow_array[i];
	.loc 1 236 31 is_stmt 0 view .LVU1965
	movdqu	(%rbx,%rdx), %xmm13	# MEM <vector(2) long unsigned int> [(uint64_t *)result_133 + ivtmp.443_597 * 1], vect__173.321
	movdqu	(%rcx,%rdx), %xmm14	# MEM <vector(2) long unsigned int> [(uint64_t *)borrow_array_152 + ivtmp.443_597 * 1], tmp1932
	psubq	%xmm14, %xmm13	# tmp1932, vect__173.321
# sub_64_aligned.c:236:         result[i] = result[i] - borrow_array[i];
	.loc 1 236 19 view .LVU1966
	movups	%xmm13, (%rbx,%rdx)	# vect__173.321, MEM <vector(2) long unsigned int> [(uint64_t *)result_133 + ivtmp.443_597 * 1]
	.loc 1 237 9 is_stmt 1 view .LVU1967
	.loc 1 244 13 view .LVU1968
# sub_64_aligned.c:244:             borrow_array[i] = 0;
	.loc 1 244 29 is_stmt 0 view .LVU1969
	movups	%xmm10, (%rcx,%rdx)	# tmp965, MEM <vector(2) long unsigned int> [(uint64_t *)borrow_array_152 + ivtmp.443_597 * 1]
	.loc 1 234 25 is_stmt 1 view .LVU1970
	.loc 1 234 19 view .LVU1971
	addq	$16, %rdx	#, ivtmp.443
.L620:
	.loc 1 236 9 view .LVU1972
# sub_64_aligned.c:236:         result[i] = result[i] - borrow_array[i];
	.loc 1 236 31 is_stmt 0 view .LVU1973
	movdqu	(%rbx,%rdx), %xmm15	# MEM <vector(2) long unsigned int> [(uint64_t *)result_133 + ivtmp.443_597 * 1], vect__173.321
	movdqu	(%rcx,%rdx), %xmm0	# MEM <vector(2) long unsigned int> [(uint64_t *)borrow_array_152 + ivtmp.443_597 * 1], tmp1934
	psubq	%xmm0, %xmm15	# tmp1934, vect__173.321
# sub_64_aligned.c:236:         result[i] = result[i] - borrow_array[i];
	.loc 1 236 19 view .LVU1974
	movups	%xmm15, (%rbx,%rdx)	# vect__173.321, MEM <vector(2) long unsigned int> [(uint64_t *)result_133 + ivtmp.443_597 * 1]
	.loc 1 237 9 is_stmt 1 view .LVU1975
	.loc 1 244 13 view .LVU1976
# sub_64_aligned.c:244:             borrow_array[i] = 0;
	.loc 1 244 29 is_stmt 0 view .LVU1977
	movups	%xmm10, (%rcx,%rdx)	# tmp965, MEM <vector(2) long unsigned int> [(uint64_t *)borrow_array_152 + ivtmp.443_597 * 1]
	.loc 1 234 25 is_stmt 1 view .LVU1978
	.loc 1 234 19 view .LVU1979
	addq	$16, %rdx	#, ivtmp.443
.L619:
	.loc 1 236 9 view .LVU1980
# sub_64_aligned.c:236:         result[i] = result[i] - borrow_array[i];
	.loc 1 236 31 is_stmt 0 view .LVU1981
	movdqu	(%rbx,%rdx), %xmm1	# MEM <vector(2) long unsigned int> [(uint64_t *)result_133 + ivtmp.443_597 * 1], vect__173.321
	movdqu	(%rcx,%rdx), %xmm4	# MEM <vector(2) long unsigned int> [(uint64_t *)borrow_array_152 + ivtmp.443_597 * 1], tmp1936
	psubq	%xmm4, %xmm1	# tmp1936, vect__173.321
# sub_64_aligned.c:236:         result[i] = result[i] - borrow_array[i];
	.loc 1 236 19 view .LVU1982
	movups	%xmm1, (%rbx,%rdx)	# vect__173.321, MEM <vector(2) long unsigned int> [(uint64_t *)result_133 + ivtmp.443_597 * 1]
	.loc 1 237 9 is_stmt 1 view .LVU1983
	.loc 1 244 13 view .LVU1984
# sub_64_aligned.c:244:             borrow_array[i] = 0;
	.loc 1 244 29 is_stmt 0 view .LVU1985
	movups	%xmm10, (%rcx,%rdx)	# tmp965, MEM <vector(2) long unsigned int> [(uint64_t *)borrow_array_152 + ivtmp.443_597 * 1]
	.loc 1 234 25 is_stmt 1 view .LVU1986
	.loc 1 234 19 view .LVU1987
	addq	$16, %rdx	#, ivtmp.443
.L618:
	.loc 1 236 9 view .LVU1988
# sub_64_aligned.c:236:         result[i] = result[i] - borrow_array[i];
	.loc 1 236 31 is_stmt 0 view .LVU1989
	movdqu	(%rbx,%rdx), %xmm5	# MEM <vector(2) long unsigned int> [(uint64_t *)result_133 + ivtmp.443_597 * 1], vect__173.321
	movdqu	(%rcx,%rdx), %xmm8	# MEM <vector(2) long unsigned int> [(uint64_t *)borrow_array_152 + ivtmp.443_597 * 1], tmp1938
	psubq	%xmm8, %xmm5	# tmp1938, vect__173.321
# sub_64_aligned.c:236:         result[i] = result[i] - borrow_array[i];
	.loc 1 236 19 view .LVU1990
	movups	%xmm5, (%rbx,%rdx)	# vect__173.321, MEM <vector(2) long unsigned int> [(uint64_t *)result_133 + ivtmp.443_597 * 1]
	.loc 1 237 9 is_stmt 1 view .LVU1991
	.loc 1 244 13 view .LVU1992
# sub_64_aligned.c:244:             borrow_array[i] = 0;
	.loc 1 244 29 is_stmt 0 view .LVU1993
	movups	%xmm10, (%rcx,%rdx)	# tmp965, MEM <vector(2) long unsigned int> [(uint64_t *)borrow_array_152 + ivtmp.443_597 * 1]
	.loc 1 234 25 is_stmt 1 view .LVU1994
	.loc 1 234 19 view .LVU1995
	addq	$16, %rdx	#, ivtmp.443
.L617:
	.loc 1 236 9 view .LVU1996
# sub_64_aligned.c:236:         result[i] = result[i] - borrow_array[i];
	.loc 1 236 31 is_stmt 0 view .LVU1997
	movdqu	(%rbx,%rdx), %xmm2	# MEM <vector(2) long unsigned int> [(uint64_t *)result_133 + ivtmp.443_597 * 1], vect__173.321
	movdqu	(%rcx,%rdx), %xmm9	# MEM <vector(2) long unsigned int> [(uint64_t *)borrow_array_152 + ivtmp.443_597 * 1], tmp1940
	psubq	%xmm9, %xmm2	# tmp1940, vect__173.321
# sub_64_aligned.c:236:         result[i] = result[i] - borrow_array[i];
	.loc 1 236 19 view .LVU1998
	movups	%xmm2, (%rbx,%rdx)	# vect__173.321, MEM <vector(2) long unsigned int> [(uint64_t *)result_133 + ivtmp.443_597 * 1]
	.loc 1 237 9 is_stmt 1 view .LVU1999
	.loc 1 244 13 view .LVU2000
# sub_64_aligned.c:244:             borrow_array[i] = 0;
	.loc 1 244 29 is_stmt 0 view .LVU2001
	movups	%xmm10, (%rcx,%rdx)	# tmp965, MEM <vector(2) long unsigned int> [(uint64_t *)borrow_array_152 + ivtmp.443_597 * 1]
	.loc 1 234 25 is_stmt 1 view .LVU2002
	.loc 1 234 19 view .LVU2003
	addq	$16, %rdx	#, ivtmp.443
	cmpq	%rsi, %rdx	# _465, ivtmp.443
	je	.L740	#,
.L327:
	.loc 1 236 9 view .LVU2004
# sub_64_aligned.c:236:         result[i] = result[i] - borrow_array[i];
	.loc 1 236 31 is_stmt 0 view .LVU2005
	movdqu	(%rbx,%rdx), %xmm3	# MEM <vector(2) long unsigned int> [(uint64_t *)result_133 + ivtmp.443_597 * 1], vect__173.321
	movdqu	(%rcx,%rdx), %xmm7	# MEM <vector(2) long unsigned int> [(uint64_t *)borrow_array_152 + ivtmp.443_597 * 1], tmp1870
	psubq	%xmm7, %xmm3	# tmp1870, vect__173.321
# sub_64_aligned.c:236:         result[i] = result[i] - borrow_array[i];
	.loc 1 236 19 view .LVU2006
	movups	%xmm3, (%rbx,%rdx)	# vect__173.321, MEM <vector(2) long unsigned int> [(uint64_t *)result_133 + ivtmp.443_597 * 1]
	.loc 1 237 9 is_stmt 1 view .LVU2007
	.loc 1 244 13 view .LVU2008
# sub_64_aligned.c:236:         result[i] = result[i] - borrow_array[i];
	.loc 1 236 31 is_stmt 0 view .LVU2009
	movdqu	16(%rcx,%rdx), %xmm11	# MEM <vector(2) long unsigned int> [(uint64_t *)borrow_array_152 + ivtmp.443_597 * 1], tmp1872
# sub_64_aligned.c:244:             borrow_array[i] = 0;
	.loc 1 244 29 view .LVU2010
	movups	%xmm10, (%rcx,%rdx)	# tmp965, MEM <vector(2) long unsigned int> [(uint64_t *)borrow_array_152 + ivtmp.443_597 * 1]
	.loc 1 234 25 is_stmt 1 view .LVU2011
	.loc 1 234 19 view .LVU2012
	.loc 1 236 9 view .LVU2013
# sub_64_aligned.c:236:         result[i] = result[i] - borrow_array[i];
	.loc 1 236 31 is_stmt 0 view .LVU2014
	movdqu	16(%rbx,%rdx), %xmm6	# MEM <vector(2) long unsigned int> [(uint64_t *)result_133 + ivtmp.443_597 * 1], vect__173.321
	psubq	%xmm11, %xmm6	# tmp1872, vect__173.321
# sub_64_aligned.c:236:         result[i] = result[i] - borrow_array[i];
	.loc 1 236 19 view .LVU2015
	movups	%xmm6, 16(%rbx,%rdx)	# vect__173.321, MEM <vector(2) long unsigned int> [(uint64_t *)result_133 + ivtmp.443_597 * 1]
	.loc 1 237 9 is_stmt 1 view .LVU2016
	.loc 1 244 13 view .LVU2017
# sub_64_aligned.c:236:         result[i] = result[i] - borrow_array[i];
	.loc 1 236 31 is_stmt 0 view .LVU2018
	movdqu	32(%rcx,%rdx), %xmm13	# MEM <vector(2) long unsigned int> [(uint64_t *)borrow_array_152 + ivtmp.443_597 * 1], tmp1874
# sub_64_aligned.c:244:             borrow_array[i] = 0;
	.loc 1 244 29 view .LVU2019
	movups	%xmm10, 16(%rcx,%rdx)	# tmp965, MEM <vector(2) long unsigned int> [(uint64_t *)borrow_array_152 + ivtmp.443_597 * 1]
	.loc 1 234 25 is_stmt 1 view .LVU2020
	.loc 1 234 19 view .LVU2021
	.loc 1 236 9 view .LVU2022
# sub_64_aligned.c:236:         result[i] = result[i] - borrow_array[i];
	.loc 1 236 31 is_stmt 0 view .LVU2023
	movdqu	32(%rbx,%rdx), %xmm12	# MEM <vector(2) long unsigned int> [(uint64_t *)result_133 + ivtmp.443_597 * 1], vect__173.321
	psubq	%xmm13, %xmm12	# tmp1874, vect__173.321
# sub_64_aligned.c:236:         result[i] = result[i] - borrow_array[i];
	.loc 1 236 19 view .LVU2024
	movups	%xmm12, 32(%rbx,%rdx)	# vect__173.321, MEM <vector(2) long unsigned int> [(uint64_t *)result_133 + ivtmp.443_597 * 1]
	.loc 1 237 9 is_stmt 1 view .LVU2025
	.loc 1 244 13 view .LVU2026
# sub_64_aligned.c:236:         result[i] = result[i] - borrow_array[i];
	.loc 1 236 31 is_stmt 0 view .LVU2027
	movdqu	48(%rcx,%rdx), %xmm15	# MEM <vector(2) long unsigned int> [(uint64_t *)borrow_array_152 + ivtmp.443_597 * 1], tmp1876
# sub_64_aligned.c:244:             borrow_array[i] = 0;
	.loc 1 244 29 view .LVU2028
	movups	%xmm10, 32(%rcx,%rdx)	# tmp965, MEM <vector(2) long unsigned int> [(uint64_t *)borrow_array_152 + ivtmp.443_597 * 1]
	.loc 1 234 25 is_stmt 1 view .LVU2029
	.loc 1 234 19 view .LVU2030
	.loc 1 236 9 view .LVU2031
# sub_64_aligned.c:236:         result[i] = result[i] - borrow_array[i];
	.loc 1 236 31 is_stmt 0 view .LVU2032
	movdqu	48(%rbx,%rdx), %xmm14	# MEM <vector(2) long unsigned int> [(uint64_t *)result_133 + ivtmp.443_597 * 1], vect__173.321
	psubq	%xmm15, %xmm14	# tmp1876, vect__173.321
# sub_64_aligned.c:236:         result[i] = result[i] - borrow_array[i];
	.loc 1 236 19 view .LVU2033
	movups	%xmm14, 48(%rbx,%rdx)	# vect__173.321, MEM <vector(2) long unsigned int> [(uint64_t *)result_133 + ivtmp.443_597 * 1]
	.loc 1 237 9 is_stmt 1 view .LVU2034
	.loc 1 244 13 view .LVU2035
# sub_64_aligned.c:236:         result[i] = result[i] - borrow_array[i];
	.loc 1 236 31 is_stmt 0 view .LVU2036
	movdqu	64(%rcx,%rdx), %xmm1	# MEM <vector(2) long unsigned int> [(uint64_t *)borrow_array_152 + ivtmp.443_597 * 1], tmp1878
# sub_64_aligned.c:244:             borrow_array[i] = 0;
	.loc 1 244 29 view .LVU2037
	movups	%xmm10, 48(%rcx,%rdx)	# tmp965, MEM <vector(2) long unsigned int> [(uint64_t *)borrow_array_152 + ivtmp.443_597 * 1]
	.loc 1 234 25 is_stmt 1 view .LVU2038
	.loc 1 234 19 view .LVU2039
	.loc 1 236 9 view .LVU2040
# sub_64_aligned.c:236:         result[i] = result[i] - borrow_array[i];
	.loc 1 236 31 is_stmt 0 view .LVU2041
	movdqu	64(%rbx,%rdx), %xmm0	# MEM <vector(2) long unsigned int> [(uint64_t *)result_133 + ivtmp.443_597 * 1], vect__173.321
	psubq	%xmm1, %xmm0	# tmp1878, vect__173.321
# sub_64_aligned.c:236:         result[i] = result[i] - borrow_array[i];
	.loc 1 236 19 view .LVU2042
	movups	%xmm0, 64(%rbx,%rdx)	# vect__173.321, MEM <vector(2) long unsigned int> [(uint64_t *)result_133 + ivtmp.443_597 * 1]
	.loc 1 237 9 is_stmt 1 view .LVU2043
	.loc 1 244 13 view .LVU2044
# sub_64_aligned.c:236:         result[i] = result[i] - borrow_array[i];
	.loc 1 236 31 is_stmt 0 view .LVU2045
	movdqu	80(%rcx,%rdx), %xmm5	# MEM <vector(2) long unsigned int> [(uint64_t *)borrow_array_152 + ivtmp.443_597 * 1], tmp1880
# sub_64_aligned.c:244:             borrow_array[i] = 0;
	.loc 1 244 29 view .LVU2046
	movups	%xmm10, 64(%rcx,%rdx)	# tmp965, MEM <vector(2) long unsigned int> [(uint64_t *)borrow_array_152 + ivtmp.443_597 * 1]
	.loc 1 234 25 is_stmt 1 view .LVU2047
	.loc 1 234 19 view .LVU2048
	.loc 1 236 9 view .LVU2049
# sub_64_aligned.c:236:         result[i] = result[i] - borrow_array[i];
	.loc 1 236 31 is_stmt 0 view .LVU2050
	movdqu	80(%rbx,%rdx), %xmm4	# MEM <vector(2) long unsigned int> [(uint64_t *)result_133 + ivtmp.443_597 * 1], vect__173.321
	psubq	%xmm5, %xmm4	# tmp1880, vect__173.321
# sub_64_aligned.c:236:         result[i] = result[i] - borrow_array[i];
	.loc 1 236 19 view .LVU2051
	movups	%xmm4, 80(%rbx,%rdx)	# vect__173.321, MEM <vector(2) long unsigned int> [(uint64_t *)result_133 + ivtmp.443_597 * 1]
	.loc 1 237 9 is_stmt 1 view .LVU2052
	.loc 1 244 13 view .LVU2053
# sub_64_aligned.c:236:         result[i] = result[i] - borrow_array[i];
	.loc 1 236 31 is_stmt 0 view .LVU2054
	movdqu	96(%rcx,%rdx), %xmm2	# MEM <vector(2) long unsigned int> [(uint64_t *)borrow_array_152 + ivtmp.443_597 * 1], tmp1882
# sub_64_aligned.c:244:             borrow_array[i] = 0;
	.loc 1 244 29 view .LVU2055
	movups	%xmm10, 80(%rcx,%rdx)	# tmp965, MEM <vector(2) long unsigned int> [(uint64_t *)borrow_array_152 + ivtmp.443_597 * 1]
	.loc 1 234 25 is_stmt 1 view .LVU2056
	.loc 1 234 19 view .LVU2057
	.loc 1 236 9 view .LVU2058
# sub_64_aligned.c:236:         result[i] = result[i] - borrow_array[i];
	.loc 1 236 31 is_stmt 0 view .LVU2059
	movdqu	96(%rbx,%rdx), %xmm8	# MEM <vector(2) long unsigned int> [(uint64_t *)result_133 + ivtmp.443_597 * 1], vect__173.321
	psubq	%xmm2, %xmm8	# tmp1882, vect__173.321
# sub_64_aligned.c:236:         result[i] = result[i] - borrow_array[i];
	.loc 1 236 19 view .LVU2060
	movups	%xmm8, 96(%rbx,%rdx)	# vect__173.321, MEM <vector(2) long unsigned int> [(uint64_t *)result_133 + ivtmp.443_597 * 1]
	.loc 1 237 9 is_stmt 1 view .LVU2061
	.loc 1 244 13 view .LVU2062
# sub_64_aligned.c:236:         result[i] = result[i] - borrow_array[i];
	.loc 1 236 31 is_stmt 0 view .LVU2063
	movdqu	112(%rcx,%rdx), %xmm3	# MEM <vector(2) long unsigned int> [(uint64_t *)borrow_array_152 + ivtmp.443_597 * 1], tmp1884
# sub_64_aligned.c:244:             borrow_array[i] = 0;
	.loc 1 244 29 view .LVU2064
	movups	%xmm10, 96(%rcx,%rdx)	# tmp965, MEM <vector(2) long unsigned int> [(uint64_t *)borrow_array_152 + ivtmp.443_597 * 1]
	.loc 1 234 25 is_stmt 1 view .LVU2065
	.loc 1 234 19 view .LVU2066
	.loc 1 236 9 view .LVU2067
# sub_64_aligned.c:236:         result[i] = result[i] - borrow_array[i];
	.loc 1 236 31 is_stmt 0 view .LVU2068
	movdqu	112(%rbx,%rdx), %xmm9	# MEM <vector(2) long unsigned int> [(uint64_t *)result_133 + ivtmp.443_597 * 1], vect__173.321
	psubq	%xmm3, %xmm9	# tmp1884, vect__173.321
# sub_64_aligned.c:236:         result[i] = result[i] - borrow_array[i];
	.loc 1 236 19 view .LVU2069
	movups	%xmm9, 112(%rbx,%rdx)	# vect__173.321, MEM <vector(2) long unsigned int> [(uint64_t *)result_133 + ivtmp.443_597 * 1]
	.loc 1 237 9 is_stmt 1 view .LVU2070
	.loc 1 244 13 view .LVU2071
# sub_64_aligned.c:244:             borrow_array[i] = 0;
	.loc 1 244 29 is_stmt 0 view .LVU2072
	movups	%xmm10, 112(%rcx,%rdx)	# tmp965, MEM <vector(2) long unsigned int> [(uint64_t *)borrow_array_152 + ivtmp.443_597 * 1]
	.loc 1 234 25 is_stmt 1 view .LVU2073
	.loc 1 234 19 view .LVU2074
	subq	$-128, %rdx	#, ivtmp.443
	cmpq	%rsi, %rdx	# _465, ivtmp.443
	jne	.L327	#,
.L740:
	.loc 1 234 19 is_stmt 0 view .LVU2075
	movl	%edi, %r10d	# niters.311, niters_vector_mult_vf.313
	andl	$-2, %r10d	#,
	andl	$1, %edi	#, niters.311
	je	.L329	#,
.LVL483:
	.loc 1 236 9 is_stmt 1 view .LVU2076
# sub_64_aligned.c:236:         result[i] = result[i] - borrow_array[i];
	.loc 1 236 27 is_stmt 0 view .LVU2077
	salq	$3, %r10	#, _101
.LVL484:
# sub_64_aligned.c:236:         result[i] = result[i] - borrow_array[i];
	.loc 1 236 45 view .LVU2078
	addq	%r10, %rcx	# _101, _90
# sub_64_aligned.c:236:         result[i] = result[i] - borrow_array[i];
	.loc 1 236 31 view .LVU2079
	movq	(%rcx), %r13	# *_90, *_90
	subq	%r13, (%rbx,%r10)	# *_90, *_99
	.loc 1 237 9 is_stmt 1 view .LVU2080
	.loc 1 244 13 view .LVU2081
# sub_64_aligned.c:244:             borrow_array[i] = 0;
	.loc 1 244 29 is_stmt 0 view .LVU2082
	movq	$0, (%rcx)	#,* _90
	.loc 1 234 25 is_stmt 1 view .LVU2083
.LVL485:
	.loc 1 234 19 view .LVU2084
.L329:
	.loc 1 270 22 view .LVU2085
# sub_64_aligned.c:270:     while (result[i] <= 0)
	.loc 1 270 18 is_stmt 0 view .LVU2086
	movq	(%rbx), %rax	# *result_133, iftmp.51_182
	leaq	8(%rbx), %r10	#, ivtmp.429
# sub_64_aligned.c:269:     i = 0;
	.loc 1 269 7 view .LVU2087
	xorl	%edx, %edx	# i
# sub_64_aligned.c:270:     while (result[i] <= 0)
	.loc 1 270 22 view .LVU2088
	testq	%rax, %rax	# iftmp.51_182
	jne	.L788	#,
.LVL486:
.L332:
	.loc 1 272 9 is_stmt 1 view .LVU2089
# sub_64_aligned.c:270:     while (result[i] <= 0)
	.loc 1 270 18 is_stmt 0 view .LVU2090
	movq	(%r10), %rax	# MEM[(uint64_t *)_779 + -8B], iftmp.51_182
# sub_64_aligned.c:272:         i++;
	.loc 1 272 10 view .LVU2091
	leal	1(%rdx), %ebx	#, tmp1061
.LVL487:
# sub_64_aligned.c:270:     while (result[i] <= 0)
	.loc 1 270 22 view .LVU2092
	leaq	8(%r10), %r13	#, tmp1062
# sub_64_aligned.c:270:     while (result[i] <= 0)
	.loc 1 270 18 view .LVU2093
	movq	%r10, %rdi	# ivtmp.429, _145
# sub_64_aligned.c:272:         i++;
	.loc 1 272 10 view .LVU2094
	movl	%ebx, %edx	# tmp1061, i
	.loc 1 270 22 is_stmt 1 view .LVU2095
	testq	%rax, %rax	# iftmp.51_182
	jne	.L760	#,
	.loc 1 272 9 view .LVU2096
.LVL488:
# sub_64_aligned.c:270:     while (result[i] <= 0)
	.loc 1 270 18 is_stmt 0 view .LVU2097
	movq	8(%r10), %rax	# MEM[(uint64_t *)_779 + -8B], iftmp.51_182
# sub_64_aligned.c:272:         i++;
	.loc 1 272 10 view .LVU2098
	addl	$1, %edx	#, i
.LVL489:
	.loc 1 270 22 is_stmt 1 view .LVU2099
# sub_64_aligned.c:270:     while (result[i] <= 0)
	.loc 1 270 18 is_stmt 0 view .LVU2100
	movq	%r13, %rdi	# tmp1062, _145
# sub_64_aligned.c:270:     while (result[i] <= 0)
	.loc 1 270 22 view .LVU2101
	leaq	16(%r10), %r12	#, ivtmp.429
	testq	%rax, %rax	# iftmp.51_182
	jne	.L760	#,
	.loc 1 272 9 is_stmt 1 view .LVU2102
.LVL490:
# sub_64_aligned.c:270:     while (result[i] <= 0)
	.loc 1 270 18 is_stmt 0 view .LVU2103
	movq	16(%r10), %rax	# MEM[(uint64_t *)_779 + -8B], iftmp.51_182
# sub_64_aligned.c:272:         i++;
	.loc 1 272 10 view .LVU2104
	leal	2(%rbx), %edx	#, i
.LVL491:
	.loc 1 270 22 is_stmt 1 view .LVU2105
# sub_64_aligned.c:270:     while (result[i] <= 0)
	.loc 1 270 18 is_stmt 0 view .LVU2106
	movq	%r12, %rdi	# ivtmp.429, _145
# sub_64_aligned.c:270:     while (result[i] <= 0)
	.loc 1 270 22 view .LVU2107
	leaq	24(%r10), %r11	#, ivtmp.429
	testq	%rax, %rax	# iftmp.51_182
	jne	.L760	#,
	.loc 1 272 9 is_stmt 1 view .LVU2108
.LVL492:
# sub_64_aligned.c:270:     while (result[i] <= 0)
	.loc 1 270 18 is_stmt 0 view .LVU2109
	movq	24(%r10), %rax	# MEM[(uint64_t *)_779 + -8B], iftmp.51_182
# sub_64_aligned.c:272:         i++;
	.loc 1 272 10 view .LVU2110
	leal	3(%rbx), %edx	#, i
.LVL493:
	.loc 1 270 22 is_stmt 1 view .LVU2111
# sub_64_aligned.c:270:     while (result[i] <= 0)
	.loc 1 270 18 is_stmt 0 view .LVU2112
	movq	%r11, %rdi	# ivtmp.429, _145
# sub_64_aligned.c:270:     while (result[i] <= 0)
	.loc 1 270 22 view .LVU2113
	leaq	32(%r10), %r8	#, ivtmp.429
	testq	%rax, %rax	# iftmp.51_182
	jne	.L760	#,
	.loc 1 272 9 is_stmt 1 view .LVU2114
.LVL494:
# sub_64_aligned.c:270:     while (result[i] <= 0)
	.loc 1 270 18 is_stmt 0 view .LVU2115
	movq	32(%r10), %rax	# MEM[(uint64_t *)_779 + -8B], iftmp.51_182
# sub_64_aligned.c:272:         i++;
	.loc 1 272 10 view .LVU2116
	leal	4(%rbx), %edx	#, i
.LVL495:
	.loc 1 270 22 is_stmt 1 view .LVU2117
# sub_64_aligned.c:270:     while (result[i] <= 0)
	.loc 1 270 18 is_stmt 0 view .LVU2118
	movq	%r8, %rdi	# ivtmp.429, _145
# sub_64_aligned.c:270:     while (result[i] <= 0)
	.loc 1 270 22 view .LVU2119
	leaq	40(%r10), %rsi	#, ivtmp.429
	testq	%rax, %rax	# iftmp.51_182
	jne	.L760	#,
	.loc 1 272 9 is_stmt 1 view .LVU2120
.LVL496:
# sub_64_aligned.c:270:     while (result[i] <= 0)
	.loc 1 270 18 is_stmt 0 view .LVU2121
	movq	40(%r10), %rax	# MEM[(uint64_t *)_779 + -8B], iftmp.51_182
# sub_64_aligned.c:272:         i++;
	.loc 1 272 10 view .LVU2122
	leal	5(%rbx), %edx	#, i
.LVL497:
	.loc 1 270 22 is_stmt 1 view .LVU2123
# sub_64_aligned.c:270:     while (result[i] <= 0)
	.loc 1 270 18 is_stmt 0 view .LVU2124
	movq	%rsi, %rdi	# ivtmp.429, _145
# sub_64_aligned.c:270:     while (result[i] <= 0)
	.loc 1 270 22 view .LVU2125
	leaq	48(%r10), %rcx	#, ivtmp.429
	testq	%rax, %rax	# iftmp.51_182
	jne	.L760	#,
	.loc 1 272 9 is_stmt 1 view .LVU2126
.LVL498:
# sub_64_aligned.c:270:     while (result[i] <= 0)
	.loc 1 270 18 is_stmt 0 view .LVU2127
	movq	48(%r10), %rax	# MEM[(uint64_t *)_779 + -8B], iftmp.51_182
# sub_64_aligned.c:272:         i++;
	.loc 1 272 10 view .LVU2128
	leal	6(%rbx), %edx	#, i
.LVL499:
	.loc 1 270 22 is_stmt 1 view .LVU2129
# sub_64_aligned.c:270:     while (result[i] <= 0)
	.loc 1 270 18 is_stmt 0 view .LVU2130
	movq	%rcx, %rdi	# ivtmp.429, _145
# sub_64_aligned.c:270:     while (result[i] <= 0)
	.loc 1 270 22 view .LVU2131
	leaq	56(%r10), %r9	#, ivtmp.429
	testq	%rax, %rax	# iftmp.51_182
	jne	.L760	#,
	.loc 1 272 9 is_stmt 1 view .LVU2132
.LVL500:
# sub_64_aligned.c:270:     while (result[i] <= 0)
	.loc 1 270 18 is_stmt 0 view .LVU2133
	movq	56(%r10), %rax	# MEM[(uint64_t *)_779 + -8B], iftmp.51_182
# sub_64_aligned.c:270:     while (result[i] <= 0)
	.loc 1 270 22 view .LVU2134
	addq	$64, %r10	#, ivtmp.429
# sub_64_aligned.c:272:         i++;
	.loc 1 272 10 view .LVU2135
	leal	7(%rbx), %edx	#, i
.LVL501:
	.loc 1 270 22 is_stmt 1 view .LVU2136
# sub_64_aligned.c:270:     while (result[i] <= 0)
	.loc 1 270 18 is_stmt 0 view .LVU2137
	movq	%r9, %rdi	# ivtmp.429, _145
# sub_64_aligned.c:270:     while (result[i] <= 0)
	.loc 1 270 22 view .LVU2138
	testq	%rax, %rax	# iftmp.51_182
	je	.L332	#,
	.p2align 4,,10
	.p2align 3
.L760:
	.loc 1 270 22 view .LVU2139
	movq	%rdi, -1400(%rbp)	# _145, %sfp
# sub_64_aligned.c:278:     *result_size = *result_size - i;
	.loc 1 278 33 view .LVU2140
	subl	%edx, %r14d	# i, prephitmp_382
.LVL502:
.L325:
	.loc 1 275 5 is_stmt 1 view .LVU2141
# sub_64_aligned.c:275:     result[i] = (is_less) ? -result[i] : result[i];
	.loc 1 275 40 is_stmt 0 view .LVU2142
	movq	%rax, %r10	# iftmp.51_182, tmp1050
# sub_64_aligned.c:275:     result[i] = (is_less) ? -result[i] : result[i];
	.loc 1 275 15 view .LVU2143
	movq	-1400(%rbp), %rbx	# %sfp, _145
# sub_64_aligned.c:278:     *result_size = *result_size - i;
	.loc 1 278 18 view .LVU2144
	movl	%r14d, -1332(%rbp)	# prephitmp_382, sub_size_test1
# sub_64_aligned.c:275:     result[i] = (is_less) ? -result[i] : result[i];
	.loc 1 275 40 view .LVU2145
	negq	%r10	# tmp1050
	cmpb	$0, -1433(%rbp)	#, %sfp
	cmovne	%r10, %rax	# tmp1050,, iftmp.51_182
# sub_64_aligned.c:275:     result[i] = (is_less) ? -result[i] : result[i];
	.loc 1 275 15 view .LVU2146
	movq	%rax, (%rbx)	# iftmp.51_182, *_145
	.loc 1 277 5 is_stmt 1 view .LVU2147
.LVL503:
	.loc 1 278 5 view .LVU2148
	.loc 1 278 5 is_stmt 0 view .LVU2149
.LBE662:
.LBE670:
	.loc 1 963 9 is_stmt 1 view .LVU2150
.LBB671:
.LBI671:
	.loc 1 100 27 view .LVU2151
.LBB672:
	.loc 1 102 5 view .LVU2152
	.loc 1 103 5 view .LVU2153
	.loc 1 104 5 view .LVU2154
#APP
# 104 "sub_64_aligned.c" 1
	RDTSCP
	mov %edx, %r14d	# cycles_high
	mov %eax, %r13d	# cycles_low
	CPUID
	
# 0 "" 2
.LVL504:
	.loc 1 109 5 view .LVU2155
# sub_64_aligned.c:109:     ticks = (((unsigned long long)cycles_high << 32) | cycles_low);
	.loc 1 109 47 is_stmt 0 view .LVU2156
#NO_APP
	movq	%r14, %rbx	# cycles_high, tmp972
# sub_64_aligned.c:109:     ticks = (((unsigned long long)cycles_high << 32) | cycles_low);
	.loc 1 109 54 view .LVU2157
	movl	%r13d, %r12d	# cycles_low, cycles_low
# sub_64_aligned.c:109:     ticks = (((unsigned long long)cycles_high << 32) | cycles_low);
	.loc 1 109 11 view .LVU2158
	leaq	fd(%rip), %r14	#, ivtmp.424
.LVL505:
# sub_64_aligned.c:109:     ticks = (((unsigned long long)cycles_high << 32) | cycles_low);
	.loc 1 109 47 view .LVU2159
	salq	$32, %rbx	#, tmp972
# sub_64_aligned.c:109:     ticks = (((unsigned long long)cycles_high << 32) | cycles_low);
	.loc 1 109 11 view .LVU2160
	orq	%r12, %rbx	# cycles_low, ticks
.LVL506:
	.loc 1 110 5 is_stmt 1 view .LVU2161
	.loc 1 110 5 is_stmt 0 view .LVU2162
.LBE672:
.LBE671:
	.loc 1 969 9 is_stmt 1 view .LVU2163
.LBB673:
.LBI673:
	.loc 1 653 6 view .LVU2164
.LBB674:
	.loc 1 655 23 view .LVU2165
	.p2align 4,,10
	.p2align 3
.L335:
	.loc 1 657 9 view .LVU2166
# sub_64_aligned.c:657:         if (ioctl(fd[j], PERF_EVENT_IOC_DISABLE, 0) == -1)
	.loc 1 657 13 is_stmt 0 view .LVU2167
	movl	(%r14), %edi	# MEM[(int *)_255],
	xorl	%edx, %edx	#
	xorl	%eax, %eax	#
	movl	$9217, %esi	#,
	call	ioctl@PLT	#
.LVL507:
# sub_64_aligned.c:657:         if (ioctl(fd[j], PERF_EVENT_IOC_DISABLE, 0) == -1)
	.loc 1 657 12 view .LVU2168
	cmpl	$-1, %eax	#, tmp1533
	je	.L339	#,
	.loc 1 655 38 is_stmt 1 view .LVU2169
.LVL508:
	.loc 1 655 23 view .LVU2170
	addq	$4, %r14	#, ivtmp.424
.LVL509:
	.loc 1 655 23 is_stmt 0 view .LVU2171
	leaq	24+fd(%rip), %r11	#, tmp1890
	cmpq	%r11, %r14	# tmp1890, ivtmp.424
	jne	.L335	#,
.LVL510:
	.loc 1 655 23 view .LVU2172
.LBE674:
.LBE673:
	.loc 1 972 9 is_stmt 1 view .LVU2173
	leaq	-1136(%rbp), %rdi	#, tmp1044
	movq	%rdi, -1392(%rbp)	# tmp1044, %sfp
	call	read_perf	#
.LVL511:
	.loc 1 974 9 view .LVU2174
# sub_64_aligned.c:974:         if (end_rdtsc < start_rdtsc)
	.loc 1 974 12 is_stmt 0 view .LVU2175
	cmpq	-1384(%rbp), %rbx	# %sfp, ticks
	jb	.L341	#,
	movq	-1392(%rbp), %r8	# %sfp, tmp1044
	movq	-1408(%rbp), %r14	# %sfp, file
	movq	%rbx, -1456(%rbp)	# ticks, %sfp
	leaq	.LC16(%rip), %r13	#, tmp1039
	movq	-1448(%rbp), %r12	# %sfp, _252
	movq	%r8, -1464(%rbp)	# ivtmp.396, %sfp
	movq	%r8, %rbx	# ivtmp.417, ivtmp.417
.LVL512:
	.p2align 4,,10
	.p2align 3
.L337:
.LBB677:
.LBB678:
	.loc 1 637 9 is_stmt 1 view .LVU2176
.LBB679:
