	.file	"sub_64_aligned.c"
# GNU C17 (Ubuntu 11.4.0-1ubuntu1~22.04) version 11.4.0 (x86_64-linux-gnu)
#	compiled by GNU C version 11.4.0, GMP version 6.2.1, MPFR version 4.1.0, MPC version 1.2.1, isl version isl-0.24-GMP

# GGC heuristics: --param ggc-min-expand=100 --param ggc-min-heapsize=131072
# options passed: -mtune=generic -march=x86-64 -g -O3 -funroll-all-loops -fopt-info-vec-optimized=vec_report.txt -fasynchronous-unwind-tables -fstack-protector-strong -fstack-clash-protection -fcf-protection
	.text
.Ltext0:
	.file 0 "/users/lattu/Large-Number-Arithmetic-Operations/subtraction" "sub_64_aligned.c"
	.section	.rodata.str1.8,"aMS",@progbits,1
	.align 8
.LC0:
	.string	"Error opening file for writing \n"
	.text
	.p2align 4
	.type	open_file.part.0, @function
open_file.part.0:
.LFB5802:
	.file 1 "sub_64_aligned.c"
	.loc 1 602 7 view -0
	.cfi_startproc
	pushq	%rax	#
	.cfi_def_cfa_offset 16
	popq	%rax	#
	.cfi_def_cfa_offset 8
.LVL0:
	.loc 1 608 9 view .LVU1
	leaq	.LC0(%rip), %rdi	#, tmp82
# sub_64_aligned.c:602: FILE *open_file(char *filename)
	.loc 1 602 7 is_stmt 0 view .LVU2
	subq	$8, %rsp	#,
	.cfi_def_cfa_offset 16
# sub_64_aligned.c:608:         perror("Error opening file for writing \n");
	.loc 1 608 9 view .LVU3
	call	perror@PLT	#
.LVL1:
	.loc 1 609 9 is_stmt 1 view .LVU4
	movl	$1, %edi	#,
	call	exit@PLT	#
.LVL2:
	.cfi_endproc
.LFE5802:
	.size	open_file.part.0, .-open_file.part.0
	.p2align 4
	.globl	perf_event_open
	.type	perf_event_open, @function
perf_event_open:
.LVL3:
.LFB5777:
	.loc 1 115 1 view -0
	.cfi_startproc
	.loc 1 115 1 is_stmt 0 view .LVU6
	endbr64	
	.loc 1 116 5 is_stmt 1 view .LVU7
	.loc 1 118 5 view .LVU8
# sub_64_aligned.c:115: {
	.loc 1 115 1 is_stmt 0 view .LVU9
	pushq	%r12	#
	.cfi_def_cfa_offset 16
	.cfi_offset 12, -16
# sub_64_aligned.c:118:     ret = syscall(__NR_perf_event_open, hw_event, pid, cpu, group_fd, flags);
	.loc 1 118 11 view .LVU10
	movq	%r8, %r9	# tmp95,
	xorl	%eax, %eax	#
	movl	%ecx, %r8d	# tmp94,
.LVL4:
	.loc 1 118 11 view .LVU11
	movl	%edx, %ecx	# cpu,
.LVL5:
	.loc 1 118 11 view .LVU12
	movl	%esi, %edx	# pid,
.LVL6:
	.loc 1 118 11 view .LVU13
	movq	%rdi, %rsi	# hw_event,
.LVL7:
	.loc 1 118 11 view .LVU14
	movl	$298, %edi	#,
.LVL8:
	.loc 1 118 11 view .LVU15
	call	syscall@PLT	#
.LVL9:
	.loc 1 119 5 is_stmt 1 view .LVU16
# sub_64_aligned.c:120: }
	.loc 1 120 1 is_stmt 0 view .LVU17
	popq	%r12	#
	.cfi_def_cfa_offset 8
# sub_64_aligned.c:119:     return ret;
	.loc 1 119 12 view .LVU18
	cltq
# sub_64_aligned.c:120: }
	.loc 1 120 1 view .LVU19
	ret	
	.cfi_endproc
.LFE5777:
	.size	perf_event_open, .-perf_event_open
	.section	.rodata.str1.1,"aMS",@progbits,1
.LC1:
	.string	"/dev/urandom"
.LC2:
	.string	"Error opening /dev/urandom"
	.section	.rodata.str1.8
	.align 8
.LC3:
	.string	"Error reading from /dev/urandom"
	.text
	.p2align 4
	.globl	generate_seed
	.type	generate_seed, @function
generate_seed:
.LFB5778:
	.loc 1 124 1 is_stmt 1 view -0
	.cfi_startproc
	endbr64	
	pushq	%rbp	#
	.cfi_def_cfa_offset 16
	.cfi_offset 6, -16
# sub_64_aligned.c:126:     clock_gettime(CLOCK_MONOTONIC, &ts1);
	.loc 1 126 5 is_stmt 0 view .LVU21
	movl	$1, %edi	#,
# sub_64_aligned.c:124: {
	.loc 1 124 1 view .LVU22
	subq	$64, %rsp	#,
	.cfi_def_cfa_offset 80
# sub_64_aligned.c:124: {
	.loc 1 124 1 view .LVU23
	movq	%fs:40, %rax	# MEM[(<address-space-1> long unsigned int *)40B], tmp116
	movq	%rax, 56(%rsp)	# tmp116, D.39292
	xorl	%eax, %eax	# tmp116
	.loc 1 125 5 is_stmt 1 view .LVU24
	.loc 1 126 5 view .LVU25
	leaq	16(%rsp), %rsi	#, tmp98
	call	clock_gettime@PLT	#
.LVL10:
	.loc 1 127 5 view .LVU26
	xorl	%edi, %edi	#
	leaq	32(%rsp), %rsi	#, tmp99
	call	clock_gettime@PLT	#
.LVL11:
	.loc 1 129 5 view .LVU27
.LBB153:
.LBI153:
	.file 2 "/usr/include/x86_64-linux-gnu/bits/fcntl2.h"
	.loc 2 41 1 view .LVU28
.LBB154:
	.loc 2 43 3 view .LVU29
	.loc 2 46 3 view .LVU30
	.loc 2 48 7 view .LVU31
	.loc 2 53 7 view .LVU32
# /usr/include/x86_64-linux-gnu/bits/fcntl2.h:53:       return __open_alias (__path, __oflag, __va_arg_pack ());
	.loc 2 53 14 is_stmt 0 view .LVU33
	xorl	%esi, %esi	#
	xorl	%eax, %eax	#
	leaq	.LC1(%rip), %rdi	#, tmp100
	call	open@PLT	#
.LVL12:
	.loc 2 53 14 view .LVU34
.LBE154:
.LBE153:
	.loc 1 130 5 is_stmt 1 view .LVU35
# sub_64_aligned.c:130:     if (urandom_fd == -1)
	.loc 1 130 8 is_stmt 0 view .LVU36
	cmpl	$-1, %eax	#, _28
	je	.L11	#,
.LBB155:
.LBB156:
# /usr/include/x86_64-linux-gnu/bits/unistd.h:38:   return __glibc_fortify (read, __nbytes, sizeof (char),
	.file 3 "/usr/include/x86_64-linux-gnu/bits/unistd.h"
	.loc 3 38 10 view .LVU37
	leaq	8(%rsp), %rsi	#, tmp102
	movl	$8, %edx	#,
	movl	%eax, %edi	# _28,
	movl	%eax, %ebp	# tmp112, _28
.LBE156:
.LBE155:
	.loc 1 136 5 is_stmt 1 view .LVU38
	.loc 1 137 5 view .LVU39
.LVL13:
.LBB158:
.LBI155:
	.loc 3 36 1 view .LVU40
.LBB157:
	.loc 3 38 3 view .LVU41
# /usr/include/x86_64-linux-gnu/bits/unistd.h:38:   return __glibc_fortify (read, __nbytes, sizeof (char),
	.loc 3 38 10 is_stmt 0 view .LVU42
	call	read@PLT	#
.LVL14:
	.loc 3 38 10 view .LVU43
.LBE157:
.LBE158:
	.loc 1 138 5 is_stmt 1 view .LVU44
# sub_64_aligned.c:138:     if (result != sizeof(urandom_value))
	.loc 1 138 8 is_stmt 0 view .LVU45
	cmpq	$8, %rax	#, tmp113
	jne	.L12	#,
	.loc 1 144 5 is_stmt 1 view .LVU46
	movl	%ebp, %edi	# _28,
	call	close@PLT	#
.LVL15:
	.loc 1 146 5 view .LVU47
# sub_64_aligned.c:146:     pid_t pid = getpid();
	.loc 1 146 17 is_stmt 0 view .LVU48
	call	getpid@PLT	#
.LVL16:
# sub_64_aligned.c:147:     pid_t tid = syscall(SYS_gettid);
	.loc 1 147 17 view .LVU49
	movl	$186, %edi	#,
# sub_64_aligned.c:146:     pid_t pid = getpid();
	.loc 1 146 17 view .LVU50
	movslq	%eax, %rbp	# tmp114,
.LVL17:
	.loc 1 147 5 is_stmt 1 view .LVU51
# sub_64_aligned.c:147:     pid_t tid = syscall(SYS_gettid);
	.loc 1 147 17 is_stmt 0 view .LVU52
	xorl	%eax, %eax	#
	call	syscall@PLT	#
.LVL18:
	movq	%rax, %r8	#, tmp115
.LVL19:
	.loc 1 149 5 is_stmt 1 view .LVU53
# sub_64_aligned.c:149:     return ts1.tv_nsec ^ ts2.tv_nsec ^ urandom_value ^ pid ^ tid;
	.loc 1 149 24 is_stmt 0 view .LVU54
	movq	24(%rsp), %rax	# ts1.tv_nsec, ts1.tv_nsec
	xorq	40(%rsp), %rax	# ts2.tv_nsec, tmp104
# sub_64_aligned.c:149:     return ts1.tv_nsec ^ ts2.tv_nsec ^ urandom_value ^ pid ^ tid;
	.loc 1 149 38 view .LVU55
	xorq	8(%rsp), %rax	# urandom_value, tmp106
# sub_64_aligned.c:149:     return ts1.tv_nsec ^ ts2.tv_nsec ^ urandom_value ^ pid ^ tid;
	.loc 1 149 60 view .LVU56
	movslq	%r8d, %rdx	# tmp115, _1
# sub_64_aligned.c:149:     return ts1.tv_nsec ^ ts2.tv_nsec ^ urandom_value ^ pid ^ tid;
	.loc 1 149 54 view .LVU57
	xorq	%rbp, %rax	# pid, tmp108
# sub_64_aligned.c:149:     return ts1.tv_nsec ^ ts2.tv_nsec ^ urandom_value ^ pid ^ tid;
	.loc 1 149 60 view .LVU58
	xorq	%rdx, %rax	# _1, <retval>
# sub_64_aligned.c:150: }
	.loc 1 150 1 view .LVU59
	movq	56(%rsp), %rdx	# D.39292, tmp117
	subq	%fs:40, %rdx	# MEM[(<address-space-1> long unsigned int *)40B], tmp117
	jne	.L13	#,
	addq	$64, %rsp	#,
	.cfi_remember_state
	.cfi_def_cfa_offset 16
	popq	%rbp	#
	.cfi_def_cfa_offset 8
.LVL20:
	.loc 1 150 1 view .LVU60
	ret	
.LVL21:
.L11:
	.cfi_restore_state
	.loc 1 132 9 is_stmt 1 view .LVU61
	leaq	.LC2(%rip), %rdi	#, tmp101
	call	perror@PLT	#
.LVL22:
	.loc 1 133 9 view .LVU62
	movl	$1, %edi	#,
	call	exit@PLT	#
.LVL23:
.L13:
# sub_64_aligned.c:150: }
	.loc 1 150 1 is_stmt 0 view .LVU63
	call	__stack_chk_fail@PLT	#
.LVL24:
.L12:
	.loc 1 140 9 is_stmt 1 view .LVU64
	leaq	.LC3(%rip), %rdi	#, tmp103
	call	perror@PLT	#
.LVL25:
	.loc 1 141 9 view .LVU65
	movl	%ebp, %edi	# _28,
	call	close@PLT	#
.LVL26:
	.loc 1 142 9 view .LVU66
	movl	$1, %edi	#,
	call	exit@PLT	#
.LVL27:
	.cfi_endproc
.LFE5778:
	.size	generate_seed, .-generate_seed
	.p2align 4
	.globl	left_shift
	.type	left_shift, @function
left_shift:
.LVL28:
.LFB5780:
	.loc 1 173 1 view -0
	.cfi_startproc
	.loc 1 173 1 is_stmt 0 view .LVU68
	endbr64	
	.loc 1 175 5 is_stmt 1 view .LVU69
# sub_64_aligned.c:173: {
	.loc 1 173 1 is_stmt 0 view .LVU70
	pushq	%r12	#
	.cfi_def_cfa_offset 16
	.cfi_offset 12, -16
.LBB169:
.LBB170:
# sub_64_aligned.c:177:         memset(borrow_array, 0, n * sizeof(uint64_t)); // Clear the array if it's empty or has only one element
	.loc 1 177 9 view .LVU71
	movslq	%esi, %r12	# n, n
	salq	$3, %r12	#, _19
.LBE170:
.LBE169:
# sub_64_aligned.c:175:     if (n <= 1)
	.loc 1 175 8 view .LVU72
	cmpl	$1, %esi	#, n
	jle	.L17	#,
	.loc 1 182 5 is_stmt 1 view .LVU73
.LVL29:
.LBB177:
.LBI177:
	.file 4 "/usr/include/x86_64-linux-gnu/bits/string_fortified.h"
	.loc 4 34 1 view .LVU74
.LBB178:
	.loc 4 36 3 view .LVU75
.LBE178:
.LBE177:
# sub_64_aligned.c:182:     memmove(borrow_array, borrow_array + 1, (n - 1) * sizeof(uint64_t));
	.loc 1 182 5 is_stmt 0 view .LVU76
	leaq	-8(%r12), %rdx	#, tmp97
.LVL30:
# sub_64_aligned.c:182:     memmove(borrow_array, borrow_array + 1, (n - 1) * sizeof(uint64_t));
	.loc 1 182 40 view .LVU77
	leaq	8(%rdi), %rsi	#, tmp98
.LVL31:
.LBB180:
.LBB179:
# /usr/include/x86_64-linux-gnu/bits/string_fortified.h:36:   return __builtin___memmove_chk (__dest, __src, __len,
	.loc 4 36 10 view .LVU78
	call	memmove@PLT	#
.LVL32:
	.loc 4 36 10 view .LVU79
.LBE179:
.LBE180:
	.loc 1 185 5 is_stmt 1 view .LVU80
# sub_64_aligned.c:185:     borrow_array[n - 1] = 0;
	.loc 1 185 25 is_stmt 0 view .LVU81
	movq	$0, -8(%rax,%r12)	#, *_8
# sub_64_aligned.c:186: }
	.loc 1 186 1 view .LVU82
	popq	%r12	#
	.cfi_remember_state
	.cfi_def_cfa_offset 8
	ret	
.LVL33:
	.p2align 4,,10
	.p2align 3
.L17:
	.cfi_restore_state
.LBB181:
.LBI169:
	.loc 1 172 6 is_stmt 1 view .LVU83
.LBB175:
	.loc 1 177 9 view .LVU84
.LBB171:
.LBI171:
	.loc 4 57 1 view .LVU85
.LBB172:
	.loc 4 59 3 view .LVU86
# /usr/include/x86_64-linux-gnu/bits/string_fortified.h:59:   return __builtin___memset_chk (__dest, __ch, __len,
	.loc 4 59 10 is_stmt 0 view .LVU87
	movq	%r12, %rdx	# _19,
	xorl	%esi, %esi	#
.LVL34:
	.loc 4 59 10 view .LVU88
.LBE172:
.LBE171:
.LBE175:
.LBE181:
# sub_64_aligned.c:186: }
	.loc 1 186 1 view .LVU89
	popq	%r12	#
	.cfi_def_cfa_offset 8
.LBB182:
.LBB176:
.LBB174:
.LBB173:
# /usr/include/x86_64-linux-gnu/bits/string_fortified.h:59:   return __builtin___memset_chk (__dest, __ch, __len,
	.loc 4 59 10 view .LVU90
	jmp	memset@PLT	#
.LVL35:
	.loc 4 59 10 view .LVU91
.LBE173:
.LBE174:
.LBE176:
.LBE182:
	.cfi_endproc
.LFE5780:
	.size	left_shift, .-left_shift
	.section	.rodata.str1.8
	.align 8
.LC4:
	.string	"Memory could not be allocated for limbs"
	.text
	.p2align 4
	.globl	returnLimbs
	.type	returnLimbs, @function
returnLimbs:
.LVL36:
.LFB5783:
	.loc 1 323 1 is_stmt 1 view -0
	.cfi_startproc
	.loc 1 323 1 is_stmt 0 view .LVU93
	endbr64	
	pushq	%rbp	#
	.cfi_def_cfa_offset 16
	.cfi_offset 6, -16
	movq	%rsp, %rbp	#,
	.cfi_def_cfa_register 6
	pushq	%r15	#
	pushq	%r14	#
	.cfi_offset 15, -24
	.cfi_offset 14, -32
	movq	%rdi, %r14	# tmp136, number
	pushq	%r13	#
	pushq	%r12	#
	.cfi_offset 13, -40
	.cfi_offset 12, -48
	movq	%rsi, %r12	# tmp137, length
	pushq	%rbx	#
	andq	$-64, %rsp	#,
	subq	$64, %rsp	#,
	.cfi_offset 3, -56
# sub_64_aligned.c:325:     int n = *length;
	.loc 1 325 9 view .LVU94
	movl	(%rsi), %r13d	# *length_25(D), n
.LBB191:
.LBB192:
# /usr/lib/gcc/x86_64-linux-gnu/11/include/mm_malloc.h:45:   if (posix_memalign (&__ptr, __alignment, __size) == 0)
	.file 5 "/usr/lib/gcc/x86_64-linux-gnu/11/include/mm_malloc.h"
	.loc 5 45 7 view .LVU95
	movl	$64, %esi	#,
.LVL37:
	.loc 5 45 7 view .LVU96
.LBE192:
.LBE191:
# sub_64_aligned.c:323: {
	.loc 1 323 1 view .LVU97
	movq	%fs:40, %rax	# MEM[(<address-space-1> long unsigned int *)40B], tmp139
	movq	%rax, 56(%rsp)	# tmp139, D.39346
	xorl	%eax, %eax	# tmp139
	.loc 1 324 5 is_stmt 1 view .LVU98
	.loc 1 325 5 view .LVU99
.LVL38:
	.loc 1 326 5 view .LVU100
.LBB195:
.LBB193:
# /usr/lib/gcc/x86_64-linux-gnu/11/include/mm_malloc.h:45:   if (posix_memalign (&__ptr, __alignment, __size) == 0)
	.loc 5 45 7 is_stmt 0 view .LVU101
	leaq	48(%rsp), %rdi	#, tmp114
.LVL39:
	.loc 5 45 7 view .LVU102
.LBE193:
.LBE195:
# sub_64_aligned.c:326:     int num_limbs = (n + LIMB_SIZE - 1) / LIMB_SIZE; // Calculate the number of limbs needed
	.loc 1 326 36 view .LVU103
	leal	18(%r13), %eax	#, tmp107
# sub_64_aligned.c:326:     int num_limbs = (n + LIMB_SIZE - 1) / LIMB_SIZE; // Calculate the number of limbs needed
	.loc 1 326 9 view .LVU104
	movslq	%eax, %rbx	# tmp107, tmp108
	sarl	$31, %eax	#, tmp112
	imulq	$1808407283, %rbx, %rbx	#, tmp108, tmp109
	sarq	$35, %rbx	#, tmp111
	subl	%eax, %ebx	# tmp112, num_limbs
.LVL40:
	.loc 1 327 5 is_stmt 1 view .LVU105
# sub_64_aligned.c:327:     limbs = (aligned_uint64_ptr)_mm_malloc(num_limbs * sizeof(uint64_t), 64);
	.loc 1 327 33 is_stmt 0 view .LVU106
	movslq	%ebx, %r15	# num_limbs, num_limbs
	salq	$3, %r15	#, _3
.LVL41:
.LBB196:
.LBI191:
	.loc 5 38 1 is_stmt 1 view .LVU107
.LBB194:
	.loc 5 40 3 view .LVU108
	.loc 5 41 3 view .LVU109
	.loc 5 43 3 view .LVU110
	.loc 5 45 3 view .LVU111
# /usr/lib/gcc/x86_64-linux-gnu/11/include/mm_malloc.h:45:   if (posix_memalign (&__ptr, __alignment, __size) == 0)
	.loc 5 45 7 is_stmt 0 view .LVU112
	movq	%r15, %rdx	# _3,
	call	posix_memalign@PLT	#
.LVL42:
	testl	%eax, %eax	# tmp138
	je	.L31	#,
.LVL43:
.L19:
	.loc 5 45 7 view .LVU113
.LBE194:
.LBE196:
	.loc 1 330 9 is_stmt 1 view .LVU114
.LBB197:
.LBI197:
	.file 6 "/usr/include/x86_64-linux-gnu/bits/stdio2.h"
	.loc 6 110 1 view .LVU115
.LBB198:
	.loc 6 112 3 view .LVU116
# /usr/include/x86_64-linux-gnu/bits/stdio2.h:112:   return __printf_chk (__USE_FORTIFY_LEVEL - 1, __fmt, __va_arg_pack ());
	.loc 6 112 10 is_stmt 0 view .LVU117
	leaq	.LC4(%rip), %rdi	#, tmp115
	call	puts@PLT	#
.LVL44:
	.loc 6 112 10 view .LVU118
.LBE198:
.LBE197:
	.loc 1 331 9 is_stmt 1 view .LVU119
	movl	$1, %edi	#,
	call	exit@PLT	#
.LVL45:
	.p2align 4,,10
	.p2align 3
.L31:
	.loc 1 331 9 is_stmt 0 view .LVU120
	movq	48(%rsp), %r8	# D.39328, <retval>
.LVL46:
	.loc 1 328 5 is_stmt 1 view .LVU121
# sub_64_aligned.c:328:     if (limbs == NULL)
	.loc 1 328 8 is_stmt 0 view .LVU122
	testq	%r8, %r8	# <retval>
	je	.L19	#,
	.loc 1 333 5 is_stmt 1 view .LVU123
.LVL47:
.LBB199:
.LBI199:
	.loc 4 57 1 view .LVU124
.LBB200:
	.loc 4 59 3 view .LVU125
# /usr/include/x86_64-linux-gnu/bits/string_fortified.h:59:   return __builtin___memset_chk (__dest, __ch, __len,
	.loc 4 59 10 is_stmt 0 view .LVU126
	movq	%r15, %rdx	# _3,
	xorl	%esi, %esi	#
	movq	%r8, %rdi	# <retval>,
	call	memset@PLT	#
.LVL48:
	.loc 4 59 10 view .LVU127
.LBE200:
.LBE199:
# sub_64_aligned.c:335:     int k = num_limbs - 1;
	.loc 1 335 9 view .LVU128
	leal	-1(%rbx), %r9d	#, k
.LBB202:
.LBB201:
# /usr/include/x86_64-linux-gnu/bits/string_fortified.h:59:   return __builtin___memset_chk (__dest, __ch, __len,
	.loc 4 59 10 view .LVU129
	movq	%rax, %r15	#, <retval>
.LVL49:
	.loc 4 59 10 view .LVU130
.LBE201:
.LBE202:
	.loc 1 334 5 is_stmt 1 view .LVU131
	.loc 1 335 5 view .LVU132
	.loc 1 336 5 view .LVU133
	.loc 1 336 14 view .LVU134
	testl	%r13d, %r13d	# n
	jle	.L21	#,
	leal	-2(%r13), %edx	#, tmp120
.LBB203:
.LBB204:
# sub_64_aligned.c:340:         for (int j = 0; j < LIMB_SIZE && i >= 0; j++, i--)
	.loc 1 340 18 is_stmt 0 view .LVU135
	xorl	%r11d, %r11d	# j
.LBE204:
# sub_64_aligned.c:339:         uint64_t power = 1;
	.loc 1 339 18 view .LVU136
	movl	$1, %r13d	#, power
.LVL50:
# sub_64_aligned.c:338:         aligned_uint64 limb = 0;
	.loc 1 338 24 view .LVU137
	xorl	%esi, %esi	# limb
	movslq	%edx, %rax	# tmp120, ivtmp.109
	jmp	.L22	#
.LVL51:
	.p2align 4,,10
	.p2align 3
.L23:
	.loc 1 338 24 view .LVU138
	subq	$1, %rax	#, ivtmp.109
.LVL52:
.L22:
.LBB205:
	.loc 1 342 13 is_stmt 1 discriminator 3 view .LVU139
# sub_64_aligned.c:342:             limb += number[i] * power;
	.loc 1 342 31 is_stmt 0 discriminator 3 view .LVU140
	movq	8(%r14,%rax,8), %rdi	# MEM[(uint64_t *)number_35(D) + 8B + ivtmp.109_92 * 8], tmp121
# sub_64_aligned.c:340:         for (int j = 0; j < LIMB_SIZE && i >= 0; j++, i--)
	.loc 1 340 51 discriminator 3 view .LVU141
	addl	$1, %r11d	#, j
.LVL53:
	.loc 1 340 51 discriminator 3 view .LVU142
	movl	%eax, %r10d	# ivtmp.109, i
# sub_64_aligned.c:342:             limb += number[i] * power;
	.loc 1 342 31 discriminator 3 view .LVU143
	imulq	%r13, %rdi	# power, tmp121
# sub_64_aligned.c:343:             power *= 10;
	.loc 1 343 19 discriminator 3 view .LVU144
	leaq	0(%r13,%r13,4), %r13	#, tmp124
.LVL54:
	.loc 1 343 19 discriminator 3 view .LVU145
	addq	%r13, %r13	# power
# sub_64_aligned.c:342:             limb += number[i] * power;
	.loc 1 342 18 discriminator 3 view .LVU146
	addq	%rdi, %rsi	# tmp121, limb
.LVL55:
	.loc 1 343 13 is_stmt 1 discriminator 3 view .LVU147
	.loc 1 340 53 discriminator 3 view .LVU148
	.loc 1 340 39 discriminator 3 view .LVU149
	cmpl	$18, %r11d	#, j
	jg	.L26	#,
	testl	%eax, %eax	# ivtmp.109
	jns	.L23	#,
.L26:
.LBE205:
	.loc 1 345 9 view .LVU150
# sub_64_aligned.c:345:         limbs[k] = limb;
	.loc 1 345 14 is_stmt 0 view .LVU151
	movslq	%r9d, %rcx	# k, k
# sub_64_aligned.c:345:         limbs[k] = limb;
	.loc 1 345 18 view .LVU152
	movq	%rsi, (%r15,%rcx,8)	# limb, MEM[(uint64_t *)_102]
	.loc 1 346 9 is_stmt 1 view .LVU153
.LVL56:
	.loc 1 346 9 is_stmt 0 view .LVU154
.LBE203:
	.loc 1 336 14 is_stmt 1 view .LVU155
	testl	%r10d, %r10d	# i
	js	.L21	#,
.LBB207:
# sub_64_aligned.c:346:         k--;
	.loc 1 346 10 is_stmt 0 view .LVU156
	subl	$1, %r9d	#, k
.LVL57:
.LBB206:
	.loc 1 340 39 is_stmt 1 view .LVU157
# sub_64_aligned.c:340:         for (int j = 0; j < LIMB_SIZE && i >= 0; j++, i--)
	.loc 1 340 18 is_stmt 0 view .LVU158
	xorl	%r11d, %r11d	# j
.LBE206:
# sub_64_aligned.c:339:         uint64_t power = 1;
	.loc 1 339 18 view .LVU159
	movl	$1, %r13d	#, power
# sub_64_aligned.c:338:         aligned_uint64 limb = 0;
	.loc 1 338 24 view .LVU160
	xorl	%esi, %esi	# limb
	jmp	.L23	#
.LVL58:
.L21:
	.loc 1 338 24 view .LVU161
.LBE207:
	.loc 1 348 5 is_stmt 1 view .LVU162
# sub_64_aligned.c:348:     *length = num_limbs;
	.loc 1 348 13 is_stmt 0 view .LVU163
	movl	%ebx, (%r12)	# num_limbs, *length_25(D)
	.loc 1 349 5 is_stmt 1 view .LVU164
# sub_64_aligned.c:350: }
	.loc 1 350 1 is_stmt 0 view .LVU165
	movq	56(%rsp), %rax	# D.39346, tmp140
	subq	%fs:40, %rax	# MEM[(<address-space-1> long unsigned int *)40B], tmp140
	jne	.L32	#,
	.loc 1 350 1 view .LVU166
	leaq	-40(%rbp), %rsp	#,
	movq	%r15, %rax	# <retval>,
	popq	%rbx	#
.LVL59:
	.loc 1 350 1 view .LVU167
	popq	%r12	#
.LVL60:
	.loc 1 350 1 view .LVU168
	popq	%r13	#
	popq	%r14	#
.LVL61:
	.loc 1 350 1 view .LVU169
	popq	%r15	#
	popq	%rbp	#
	.cfi_remember_state
	.cfi_def_cfa 7, 8
	ret	
.LVL62:
.L32:
	.cfi_restore_state
	.loc 1 350 1 view .LVU170
	call	__stack_chk_fail@PLT	#
.LVL63:
	.cfi_endproc
.LFE5783:
	.size	returnLimbs, .-returnLimbs
	.section	.rodata.str1.8
	.align 8
.LC5:
	.string	"Memory allocation failed for result_str\n"
	.section	.rodata.str1.1
.LC6:
	.string	"%lu"
.LC7:
	.string	"%019lu"
	.section	.rodata.str1.8
	.align 8
.LC8:
	.string	"Memory allocation failed for final_result\n"
	.text
	.p2align 4
	.globl	formatResult
	.type	formatResult, @function
formatResult:
.LVL64:
.LFB5784:
	.loc 1 353 1 is_stmt 1 view -0
	.cfi_startproc
	.loc 1 353 1 is_stmt 0 view .LVU172
	endbr64	
	pushq	%r15	#
	.cfi_def_cfa_offset 16
	.cfi_offset 15, -16
	pushq	%r14	#
	.cfi_def_cfa_offset 24
	.cfi_offset 14, -24
	movq	%rdi, %r14	# tmp180, result
	pushq	%r13	#
	.cfi_def_cfa_offset 32
	.cfi_offset 13, -32
	movq	%rsi, %r13	# tmp181, result_length
	pushq	%r12	#
	.cfi_def_cfa_offset 40
	.cfi_offset 12, -40
	pushq	%rbp	#
	.cfi_def_cfa_offset 48
	.cfi_offset 6, -48
	pushq	%rbx	#
	.cfi_def_cfa_offset 56
	.cfi_offset 3, -56
	subq	$56, %rsp	#,
	.cfi_def_cfa_offset 112
# sub_64_aligned.c:354:     char *result_str = (char *)calloc(*result_length * 25 + 1, sizeof(char)); // 25 digits + null terminator per number
	.loc 1 354 54 view .LVU173
	movq	%fs:40, %rax	# MEM[(<address-space-1> long unsigned int *)40B], *result_length_38(D)
	movq	%rax, 40(%rsp)	# *result_length_38(D), D.39387
	movl	(%rsi), %eax	# *result_length_38(D), *result_length_38(D)
# sub_64_aligned.c:354:     char *result_str = (char *)calloc(*result_length * 25 + 1, sizeof(char)); // 25 digits + null terminator per number
	.loc 1 354 32 view .LVU174
	movl	$1, %esi	#,
.LVL65:
# sub_64_aligned.c:354:     char *result_str = (char *)calloc(*result_length * 25 + 1, sizeof(char)); // 25 digits + null terminator per number
	.loc 1 354 54 view .LVU175
	leal	(%rax,%rax,4), %edx	#, tmp120
# sub_64_aligned.c:354:     char *result_str = (char *)calloc(*result_length * 25 + 1, sizeof(char)); // 25 digits + null terminator per number
	.loc 1 354 59 view .LVU176
	leal	1(%rdx,%rdx,4), %edi	#, tmp123
.LVL66:
# sub_64_aligned.c:354:     char *result_str = (char *)calloc(*result_length * 25 + 1, sizeof(char)); // 25 digits + null terminator per number
	.loc 1 354 32 view .LVU177
	movslq	%edi, %rdi	# tmp123, tmp124
	call	calloc@PLT	#
.LVL67:
	.loc 1 355 5 is_stmt 1 view .LVU178
# sub_64_aligned.c:355:     if (result_str == NULL)
	.loc 1 355 8 is_stmt 0 view .LVU179
	testq	%rax, %rax	# result_str
	je	.L90	#,
.LBB208:
.LBB209:
# /usr/include/x86_64-linux-gnu/bits/stdio2.h:38:   return __builtin___sprintf_chk (__s, __USE_FORTIFY_LEVEL - 1,
	.loc 6 38 10 view .LVU180
	movq	(%r14), %r8	# *result_41(D),
	movq	%rax, %rdi	# result_str,
	movq	%rax, %rbp	# tmp182, result_str
.LBE209:
.LBE208:
	.loc 1 360 5 is_stmt 1 view .LVU181
.LVL68:
	.loc 1 362 5 view .LVU182
.LBB213:
.LBI208:
	.loc 6 36 1 view .LVU183
.LBB210:
	.loc 6 38 3 view .LVU184
# /usr/include/x86_64-linux-gnu/bits/stdio2.h:38:   return __builtin___sprintf_chk (__s, __USE_FORTIFY_LEVEL - 1,
	.loc 6 38 10 is_stmt 0 view .LVU185
	leaq	.LC6(%rip), %rcx	#, tmp127
	xorl	%eax, %eax	#
.LVL69:
	.loc 6 38 10 view .LVU186
	movl	$1, %esi	#,
.LBE210:
.LBE213:
.LBB214:
# sub_64_aligned.c:382:     for (int i = 1; i < *result_length; i++)
	.loc 1 382 23 view .LVU187
	movl	$1, %r12d	#, ivtmp.142
	movq	%rsp, %rbx	#, tmp147
.LBE214:
.LBB241:
.LBB211:
# /usr/include/x86_64-linux-gnu/bits/stdio2.h:38:   return __builtin___sprintf_chk (__s, __USE_FORTIFY_LEVEL - 1,
	.loc 6 38 10 view .LVU188
	movq	$-1, %rdx	#,
.LBE211:
.LBE241:
.LBB242:
.LBB215:
.LBB216:
.LBB217:
# /usr/include/x86_64-linux-gnu/bits/stdio2.h:71:   return __builtin___snprintf_chk (__s, __n, __USE_FORTIFY_LEVEL - 1,
	.loc 6 71 10 view .LVU189
	leaq	.LC7(%rip), %r15	#, tmp149
.LBE217:
.LBE216:
.LBE215:
.LBE242:
.LBB243:
.LBB212:
# /usr/include/x86_64-linux-gnu/bits/stdio2.h:38:   return __builtin___sprintf_chk (__s, __USE_FORTIFY_LEVEL - 1,
	.loc 6 38 10 view .LVU190
	call	__sprintf_chk@PLT	#
.LVL70:
	.loc 6 38 10 view .LVU191
.LBE212:
.LBE243:
	.loc 1 364 5 is_stmt 1 view .LVU192
	.loc 1 382 5 view .LVU193
.LBB244:
	.loc 1 382 10 view .LVU194
	.loc 1 382 23 view .LVU195
	cmpl	$1, 0(%r13)	#, *result_length_38(D)
	jle	.L38	#,
.LVL71:
.L35:
.LBB236:
	.loc 1 384 9 discriminator 3 view .LVU196
	.loc 1 385 9 discriminator 3 view .LVU197
.LBB223:
.LBI216:
	.loc 6 68 1 discriminator 3 view .LVU198
.LBB218:
	.loc 6 71 3 discriminator 3 view .LVU199
# /usr/include/x86_64-linux-gnu/bits/stdio2.h:71:   return __builtin___snprintf_chk (__s, __n, __USE_FORTIFY_LEVEL - 1,
	.loc 6 71 10 is_stmt 0 discriminator 3 view .LVU200
	movq	(%r14,%r12,8), %r9	# MEM[(uint64_t *)result_41(D) + ivtmp.142_89 * 8],
	movl	$25, %ecx	#,
	movq	%r15, %r8	# tmp149,
	movq	%rbx, %rdi	# tmp147,
	movl	$1, %edx	#,
	movl	$25, %esi	#,
	xorl	%eax, %eax	#
	call	__snprintf_chk@PLT	#
.LVL72:
	.loc 6 71 10 discriminator 3 view .LVU201
.LBE218:
.LBE223:
	.loc 1 386 9 is_stmt 1 discriminator 3 view .LVU202
.LBB224:
.LBI224:
	.loc 4 128 1 discriminator 3 view .LVU203
.LBB225:
	.loc 4 130 3 discriminator 3 view .LVU204
# /usr/include/x86_64-linux-gnu/bits/string_fortified.h:130:   return __builtin___strcat_chk (__dest, __src, __glibc_objsize (__dest));
	.loc 4 130 10 is_stmt 0 discriminator 3 view .LVU205
	movq	%rbx, %rsi	# tmp147,
	movq	%rbp, %rdi	# result_str,
	call	strcat@PLT	#
.LVL73:
	.loc 4 130 10 discriminator 3 view .LVU206
.LBE225:
.LBE224:
.LBE236:
	.loc 1 382 42 is_stmt 1 discriminator 3 view .LVU207
	.loc 1 382 23 discriminator 3 view .LVU208
	leaq	1(%r12), %rcx	#, tmp152
	cmpl	%ecx, 0(%r13)	# tmp152, *result_length_38(D)
	jle	.L38	#,
.LBB237:
	.loc 1 384 9 view .LVU209
	.loc 1 385 9 view .LVU210
.LVL74:
.LBB229:
	.loc 6 68 1 view .LVU211
.LBB219:
	.loc 6 71 3 view .LVU212
# /usr/include/x86_64-linux-gnu/bits/stdio2.h:71:   return __builtin___snprintf_chk (__s, __n, __USE_FORTIFY_LEVEL - 1,
	.loc 6 71 10 is_stmt 0 view .LVU213
	movq	(%r14,%rcx,8), %r9	# MEM[(uint64_t *)result_41(D) + ivtmp.142_89 * 8],
	movq	%r15, %r8	# tmp149,
	movl	$25, %ecx	#,
	movq	%rbx, %rdi	# tmp147,
	movl	$1, %edx	#,
	movl	$25, %esi	#,
	xorl	%eax, %eax	#
	call	__snprintf_chk@PLT	#
.LVL75:
	.loc 6 71 10 view .LVU214
.LBE219:
.LBE229:
	.loc 1 386 9 is_stmt 1 view .LVU215
.LBB230:
	.loc 4 128 1 view .LVU216
.LBB226:
	.loc 4 130 3 view .LVU217
# /usr/include/x86_64-linux-gnu/bits/string_fortified.h:130:   return __builtin___strcat_chk (__dest, __src, __glibc_objsize (__dest));
	.loc 4 130 10 is_stmt 0 view .LVU218
	movq	%rbx, %rsi	# tmp147,
	movq	%rbp, %rdi	# result_str,
	call	strcat@PLT	#
.LVL76:
	.loc 4 130 10 view .LVU219
.LBE226:
.LBE230:
.LBE237:
	.loc 1 382 42 is_stmt 1 view .LVU220
	.loc 1 382 23 view .LVU221
	leaq	2(%r12), %rsi	#, ivtmp.142
	cmpl	%esi, 0(%r13)	# ivtmp.142, *result_length_38(D)
	jle	.L38	#,
.LBB238:
	.loc 1 384 9 view .LVU222
	.loc 1 385 9 view .LVU223
.LVL77:
.LBB231:
	.loc 6 68 1 view .LVU224
.LBB220:
	.loc 6 71 3 view .LVU225
# /usr/include/x86_64-linux-gnu/bits/stdio2.h:71:   return __builtin___snprintf_chk (__s, __n, __USE_FORTIFY_LEVEL - 1,
	.loc 6 71 10 is_stmt 0 view .LVU226
	movq	(%r14,%rsi,8), %r9	# MEM[(uint64_t *)result_41(D) + ivtmp.142_89 * 8],
	movq	%r15, %r8	# tmp149,
	movl	$25, %ecx	#,
	movq	%rbx, %rdi	# tmp147,
	movl	$1, %edx	#,
	movl	$25, %esi	#,
	xorl	%eax, %eax	#
	call	__snprintf_chk@PLT	#
.LVL78:
	.loc 6 71 10 view .LVU227
.LBE220:
.LBE231:
	.loc 1 386 9 is_stmt 1 view .LVU228
.LBB232:
	.loc 4 128 1 view .LVU229
.LBB227:
	.loc 4 130 3 view .LVU230
# /usr/include/x86_64-linux-gnu/bits/string_fortified.h:130:   return __builtin___strcat_chk (__dest, __src, __glibc_objsize (__dest));
	.loc 4 130 10 is_stmt 0 view .LVU231
	movq	%rbx, %rsi	# tmp147,
	movq	%rbp, %rdi	# result_str,
	call	strcat@PLT	#
.LVL79:
	.loc 4 130 10 view .LVU232
.LBE227:
.LBE232:
.LBE238:
	.loc 1 382 42 is_stmt 1 view .LVU233
	.loc 1 382 23 view .LVU234
	leaq	3(%r12), %r8	#, ivtmp.142
	cmpl	%r8d, 0(%r13)	# ivtmp.142, *result_length_38(D)
	jle	.L38	#,
.LBB239:
	.loc 1 384 9 view .LVU235
	.loc 1 385 9 view .LVU236
.LVL80:
.LBB233:
	.loc 6 68 1 view .LVU237
.LBB221:
	.loc 6 71 3 view .LVU238
# /usr/include/x86_64-linux-gnu/bits/stdio2.h:71:   return __builtin___snprintf_chk (__s, __n, __USE_FORTIFY_LEVEL - 1,
	.loc 6 71 10 is_stmt 0 view .LVU239
	movq	(%r14,%r8,8), %r9	# MEM[(uint64_t *)result_41(D) + ivtmp.142_89 * 8],
	movl	$25, %ecx	#,
	movq	%r15, %r8	# tmp149,
	movq	%rbx, %rdi	# tmp147,
	movl	$1, %edx	#,
	movl	$25, %esi	#,
	xorl	%eax, %eax	#
.LBE221:
.LBE233:
.LBE239:
# sub_64_aligned.c:382:     for (int i = 1; i < *result_length; i++)
	.loc 1 382 23 view .LVU240
	addq	$4, %r12	#, ivtmp.142
.LBB240:
.LBB234:
.LBB222:
# /usr/include/x86_64-linux-gnu/bits/stdio2.h:71:   return __builtin___snprintf_chk (__s, __n, __USE_FORTIFY_LEVEL - 1,
	.loc 6 71 10 view .LVU241
	call	__snprintf_chk@PLT	#
.LVL81:
	.loc 6 71 10 view .LVU242
.LBE222:
.LBE234:
	.loc 1 386 9 is_stmt 1 view .LVU243
.LBB235:
	.loc 4 128 1 view .LVU244
.LBB228:
	.loc 4 130 3 view .LVU245
# /usr/include/x86_64-linux-gnu/bits/string_fortified.h:130:   return __builtin___strcat_chk (__dest, __src, __glibc_objsize (__dest));
	.loc 4 130 10 is_stmt 0 view .LVU246
	movq	%rbx, %rsi	# tmp147,
	movq	%rbp, %rdi	# result_str,
	call	strcat@PLT	#
.LVL82:
	.loc 4 130 10 view .LVU247
.LBE228:
.LBE235:
.LBE240:
	.loc 1 382 42 is_stmt 1 view .LVU248
	.loc 1 382 23 view .LVU249
	cmpl	%r12d, 0(%r13)	# ivtmp.142, *result_length_38(D)
	jg	.L35	#,
	.p2align 4,,10
	.p2align 3
.L38:
	.loc 1 382 23 is_stmt 0 view .LVU250
.LBE244:
	.loc 1 390 26 is_stmt 1 view .LVU251
# sub_64_aligned.c:390:     while (result_str[i] == '0')
	.loc 1 390 22 is_stmt 0 view .LVU252
	xorl	%r12d, %r12d	# ivtmp.135
# sub_64_aligned.c:389:     i = 0;
	.loc 1 389 7 view .LVU253
	xorl	%ebx, %ebx	#
# sub_64_aligned.c:390:     while (result_str[i] == '0')
	.loc 1 390 26 view .LVU254
	cmpb	$48, 0(%rbp)	#, *result_str_40
	movl	$1, %r9d	#, ivtmp.135
	movq	%rbp, %r14	# result_str, _90
.LVL83:
	.loc 1 390 26 view .LVU255
	jne	.L37	#,
.LVL84:
.L36:
	.loc 1 392 9 is_stmt 1 view .LVU256
# sub_64_aligned.c:390:     while (result_str[i] == '0')
	.loc 1 390 26 is_stmt 0 view .LVU257
	cmpb	$48, 0(%rbp,%r9)	#, MEM[(char *)result_str_40 + -1B + ivtmp.135_94 * 1]
# sub_64_aligned.c:392:         i++;
	.loc 1 392 10 view .LVU258
	movslq	%r9d, %rbx	# ivtmp.135,
	.loc 1 390 26 is_stmt 1 view .LVU259
	leaq	1(%r9), %r10	#, tmp151
	movq	%r9, %r12	# ivtmp.135, ivtmp.135
	leaq	0(%rbp,%r9), %r14	#, _90
	jne	.L37	#,
	.loc 1 392 9 view .LVU260
# sub_64_aligned.c:390:     while (result_str[i] == '0')
	.loc 1 390 26 is_stmt 0 view .LVU261
	cmpb	$48, 1(%rbp,%r9)	#, MEM[(char *)result_str_40 + -1B + ivtmp.135_94 * 1]
# sub_64_aligned.c:392:         i++;
	.loc 1 392 10 view .LVU262
	movslq	%r10d, %rbx	# tmp151,
	.loc 1 390 26 is_stmt 1 view .LVU263
	leaq	2(%r9), %r11	#, ivtmp.135
	movq	%r10, %r12	# tmp151, ivtmp.135
	leaq	0(%rbp,%r10), %r14	#, _90
	jne	.L37	#,
	.loc 1 392 9 view .LVU264
# sub_64_aligned.c:390:     while (result_str[i] == '0')
	.loc 1 390 26 is_stmt 0 view .LVU265
	cmpb	$48, 2(%rbp,%r9)	#, MEM[(char *)result_str_40 + -1B + ivtmp.135_94 * 1]
# sub_64_aligned.c:392:         i++;
	.loc 1 392 10 view .LVU266
	movslq	%r11d, %rbx	# ivtmp.135,
	.loc 1 390 26 is_stmt 1 view .LVU267
	leaq	3(%r9), %rax	#, ivtmp.135
	movq	%r11, %r12	# ivtmp.135, ivtmp.135
	leaq	0(%rbp,%r11), %r14	#, _90
	jne	.L37	#,
	.loc 1 392 9 view .LVU268
# sub_64_aligned.c:390:     while (result_str[i] == '0')
	.loc 1 390 26 is_stmt 0 view .LVU269
	cmpb	$48, 3(%rbp,%r9)	#, MEM[(char *)result_str_40 + -1B + ivtmp.135_94 * 1]
# sub_64_aligned.c:392:         i++;
	.loc 1 392 10 view .LVU270
	movslq	%eax, %rbx	# ivtmp.135,
	.loc 1 390 26 is_stmt 1 view .LVU271
	leaq	4(%r9), %rdx	#, ivtmp.135
	movq	%rax, %r12	# ivtmp.135, ivtmp.135
	leaq	0(%rbp,%rax), %r14	#, _90
	jne	.L37	#,
	.loc 1 392 9 view .LVU272
# sub_64_aligned.c:390:     while (result_str[i] == '0')
	.loc 1 390 26 is_stmt 0 view .LVU273
	cmpb	$48, 4(%rbp,%r9)	#, MEM[(char *)result_str_40 + -1B + ivtmp.135_94 * 1]
# sub_64_aligned.c:392:         i++;
	.loc 1 392 10 view .LVU274
	movslq	%edx, %rbx	# ivtmp.135,
	.loc 1 390 26 is_stmt 1 view .LVU275
	leaq	5(%r9), %rdi	#, ivtmp.135
	movq	%rdx, %r12	# ivtmp.135, ivtmp.135
	leaq	0(%rbp,%rdx), %r14	#, _90
	jne	.L37	#,
	.loc 1 392 9 view .LVU276
# sub_64_aligned.c:390:     while (result_str[i] == '0')
	.loc 1 390 26 is_stmt 0 view .LVU277
	cmpb	$48, 5(%rbp,%r9)	#, MEM[(char *)result_str_40 + -1B + ivtmp.135_94 * 1]
# sub_64_aligned.c:392:         i++;
	.loc 1 392 10 view .LVU278
	movslq	%edi, %rbx	# ivtmp.135,
	.loc 1 390 26 is_stmt 1 view .LVU279
	leaq	6(%r9), %r15	#, ivtmp.135
	movq	%rdi, %r12	# ivtmp.135, ivtmp.135
	leaq	0(%rbp,%rdi), %r14	#, _90
	jne	.L37	#,
	.loc 1 392 9 view .LVU280
# sub_64_aligned.c:390:     while (result_str[i] == '0')
	.loc 1 390 26 is_stmt 0 view .LVU281
	cmpb	$48, 6(%rbp,%r9)	#, MEM[(char *)result_str_40 + -1B + ivtmp.135_94 * 1]
# sub_64_aligned.c:392:         i++;
	.loc 1 392 10 view .LVU282
	movslq	%r15d, %rbx	# ivtmp.135,
	.loc 1 390 26 is_stmt 1 view .LVU283
	leaq	7(%r9), %rcx	#, ivtmp.135
	movq	%r15, %r12	# ivtmp.135, ivtmp.135
	leaq	0(%rbp,%r15), %r14	#, _90
	jne	.L37	#,
	.loc 1 392 9 view .LVU284
# sub_64_aligned.c:390:     while (result_str[i] == '0')
	.loc 1 390 26 is_stmt 0 view .LVU285
	addq	$8, %r9	#, ivtmp.135
# sub_64_aligned.c:392:         i++;
	.loc 1 392 10 view .LVU286
	movslq	%ecx, %rbx	# ivtmp.135,
	.loc 1 390 26 is_stmt 1 view .LVU287
	leaq	0(%rbp,%rcx), %r14	#, _90
	movq	%rcx, %r12	# ivtmp.135, ivtmp.135
	cmpb	$48, -1(%rbp,%r9)	#, MEM[(char *)result_str_40 + -1B + ivtmp.135_94 * 1]
	je	.L36	#,
	.p2align 4,,10
	.p2align 3
.L37:
	.loc 1 394 5 view .LVU288
# sub_64_aligned.c:394:     if (i == strlen(result_str))
	.loc 1 394 14 is_stmt 0 view .LVU289
	movq	%rbp, %rdi	# result_str,
	call	strlen@PLT	#
.LVL85:
# sub_64_aligned.c:394:     if (i == strlen(result_str))
	.loc 1 394 8 view .LVU290
	cmpq	%r12, %rax	# ivtmp.135, tmp132
	je	.L91	#,
	.loc 1 401 5 is_stmt 1 view .LVU291
# sub_64_aligned.c:401:     char *final_result = (char *)calloc(strlen(result_str) - i + 1, sizeof(char));
	.loc 1 401 34 is_stmt 0 view .LVU292
	leaq	1(%rax), %rdi	#, tmp135
	movl	$1, %esi	#,
	subq	%r12, %rdi	# ivtmp.135, tmp136
	call	calloc@PLT	#
.LVL86:
	movq	%rax, %r15	# tmp185, <retval>
.LVL87:
	.loc 1 402 5 is_stmt 1 view .LVU293
# sub_64_aligned.c:402:     if (final_result == NULL)
	.loc 1 402 8 is_stmt 0 view .LVU294
	testq	%rax, %rax	# <retval>
	je	.L41	#,
.LVL88:
	.loc 1 408 26 is_stmt 1 view .LVU295
# sub_64_aligned.c:408:     while (result_str[i] != '\0')
	.loc 1 408 22 is_stmt 0 view .LVU296
	movzbl	(%r14), %edi	# *prephitmp_96, _31
# sub_64_aligned.c:408:     while (result_str[i] != '\0')
	.loc 1 408 26 view .LVU297
	movl	$1, %r8d	#, ivtmp.127
# sub_64_aligned.c:408:     while (result_str[i] != '\0')
	.loc 1 408 22 view .LVU298
	addq	%rbp, %rbx	# result_str, tmp140
# sub_64_aligned.c:408:     while (result_str[i] != '\0')
	.loc 1 408 26 view .LVU299
	movq	%rax, %rdx	# <retval>, _104
	testb	%dil, %dil	# _31
	je	.L43	#,
.LVL89:
.L42:
	.loc 1 410 9 is_stmt 1 view .LVU300
# sub_64_aligned.c:408:     while (result_str[i] != '\0')
	.loc 1 408 26 is_stmt 0 view .LVU301
	leaq	1(%r8), %r9	#, tmp150
# sub_64_aligned.c:410:         final_result[j] = result_str[i];
	.loc 1 410 25 view .LVU302
	movb	%dil, -1(%r15,%r8)	# _31, MEM[(char *)final_result_43 + -1B + ivtmp.127_101 * 1]
	.loc 1 411 9 is_stmt 1 view .LVU303
	.loc 1 412 9 view .LVU304
# sub_64_aligned.c:412:         j++;
	.loc 1 412 10 is_stmt 0 view .LVU305
	movslq	%r8d, %rdx	# ivtmp.127,
.LVL90:
	.loc 1 408 26 is_stmt 1 view .LVU306
# sub_64_aligned.c:408:     while (result_str[i] != '\0')
	.loc 1 408 22 is_stmt 0 view .LVU307
	movzbl	-1(%rbx,%r9), %esi	# MEM[(char *)_98 + -1B + ivtmp.127_79 * 1], _31
# sub_64_aligned.c:408:     while (result_str[i] != '\0')
	.loc 1 408 26 view .LVU308
	testb	%sil, %sil	# _31
	je	.L88	#,
.LVL91:
	.loc 1 410 9 is_stmt 1 view .LVU309
# sub_64_aligned.c:408:     while (result_str[i] != '\0')
	.loc 1 408 22 is_stmt 0 view .LVU310
	movzbl	1(%r8,%rbx), %r11d	# MEM[(char *)_98 + -1B + ivtmp.127_79 * 1], _31
# sub_64_aligned.c:410:         final_result[j] = result_str[i];
	.loc 1 410 25 view .LVU311
	movb	%sil, -1(%r15,%r9)	# _31, MEM[(char *)final_result_43 + -1B + ivtmp.127_101 * 1]
	.loc 1 411 9 is_stmt 1 view .LVU312
	.loc 1 412 9 view .LVU313
# sub_64_aligned.c:412:         j++;
	.loc 1 412 10 is_stmt 0 view .LVU314
	movslq	%r9d, %rdx	# tmp150,
.LVL92:
	.loc 1 408 26 is_stmt 1 view .LVU315
	leaq	2(%r8), %r10	#, ivtmp.127
	testb	%r11b, %r11b	# _31
	je	.L88	#,
.LVL93:
	.loc 1 410 9 view .LVU316
# sub_64_aligned.c:408:     while (result_str[i] != '\0')
	.loc 1 408 22 is_stmt 0 view .LVU317
	movzbl	2(%r8,%rbx), %edi	# MEM[(char *)_98 + -1B + ivtmp.127_79 * 1], _31
# sub_64_aligned.c:410:         final_result[j] = result_str[i];
	.loc 1 410 25 view .LVU318
	movb	%r11b, 1(%r15,%r8)	# _31, MEM[(char *)final_result_43 + -1B + ivtmp.127_101 * 1]
	.loc 1 411 9 is_stmt 1 view .LVU319
	.loc 1 412 9 view .LVU320
# sub_64_aligned.c:412:         j++;
	.loc 1 412 10 is_stmt 0 view .LVU321
	movslq	%r10d, %rdx	# ivtmp.127,
.LVL94:
	.loc 1 408 26 is_stmt 1 view .LVU322
	leaq	3(%r8), %rax	#, ivtmp.127
	testb	%dil, %dil	# _31
	je	.L88	#,
.LVL95:
	.loc 1 410 9 view .LVU323
# sub_64_aligned.c:408:     while (result_str[i] != '\0')
	.loc 1 408 22 is_stmt 0 view .LVU324
	movzbl	3(%r8,%rbx), %r14d	# MEM[(char *)_98 + -1B + ivtmp.127_79 * 1], _31
# sub_64_aligned.c:410:         final_result[j] = result_str[i];
	.loc 1 410 25 view .LVU325
	movb	%dil, 2(%r15,%r8)	# _31, MEM[(char *)final_result_43 + -1B + ivtmp.127_101 * 1]
	.loc 1 411 9 is_stmt 1 view .LVU326
	.loc 1 412 9 view .LVU327
# sub_64_aligned.c:412:         j++;
	.loc 1 412 10 is_stmt 0 view .LVU328
	movslq	%eax, %rdx	# ivtmp.127,
.LVL96:
	.loc 1 408 26 is_stmt 1 view .LVU329
	leaq	4(%r8), %rcx	#, ivtmp.127
	testb	%r14b, %r14b	# _31
	je	.L88	#,
.LVL97:
	.loc 1 410 9 view .LVU330
# sub_64_aligned.c:408:     while (result_str[i] != '\0')
	.loc 1 408 22 is_stmt 0 view .LVU331
	movzbl	4(%r8,%rbx), %r9d	# MEM[(char *)_98 + -1B + ivtmp.127_79 * 1], _31
# sub_64_aligned.c:410:         final_result[j] = result_str[i];
	.loc 1 410 25 view .LVU332
	movb	%r14b, 3(%r15,%r8)	# _31, MEM[(char *)final_result_43 + -1B + ivtmp.127_101 * 1]
	.loc 1 411 9 is_stmt 1 view .LVU333
	.loc 1 412 9 view .LVU334
# sub_64_aligned.c:412:         j++;
	.loc 1 412 10 is_stmt 0 view .LVU335
	movslq	%ecx, %rdx	# ivtmp.127,
.LVL98:
	.loc 1 408 26 is_stmt 1 view .LVU336
	leaq	5(%r8), %r12	#, ivtmp.127
	testb	%r9b, %r9b	# _31
	je	.L88	#,
.LVL99:
	.loc 1 410 9 view .LVU337
# sub_64_aligned.c:408:     while (result_str[i] != '\0')
	.loc 1 408 22 is_stmt 0 view .LVU338
	movzbl	5(%r8,%rbx), %esi	# MEM[(char *)_98 + -1B + ivtmp.127_79 * 1], _31
# sub_64_aligned.c:410:         final_result[j] = result_str[i];
	.loc 1 410 25 view .LVU339
	movb	%r9b, 4(%r15,%r8)	# _31, MEM[(char *)final_result_43 + -1B + ivtmp.127_101 * 1]
	.loc 1 411 9 is_stmt 1 view .LVU340
	.loc 1 412 9 view .LVU341
# sub_64_aligned.c:412:         j++;
	.loc 1 412 10 is_stmt 0 view .LVU342
	movslq	%r12d, %rdx	# ivtmp.127,
.LVL100:
	.loc 1 408 26 is_stmt 1 view .LVU343
	leaq	6(%r8), %r10	#, ivtmp.127
	testb	%sil, %sil	# _31
	je	.L88	#,
.LVL101:
	.loc 1 410 9 view .LVU344
# sub_64_aligned.c:408:     while (result_str[i] != '\0')
	.loc 1 408 22 is_stmt 0 view .LVU345
	movzbl	6(%r8,%rbx), %eax	# MEM[(char *)_98 + -1B + ivtmp.127_79 * 1], _31
# sub_64_aligned.c:410:         final_result[j] = result_str[i];
	.loc 1 410 25 view .LVU346
	movb	%sil, 5(%r15,%r8)	# _31, MEM[(char *)final_result_43 + -1B + ivtmp.127_101 * 1]
	.loc 1 411 9 is_stmt 1 view .LVU347
	.loc 1 412 9 view .LVU348
# sub_64_aligned.c:412:         j++;
	.loc 1 412 10 is_stmt 0 view .LVU349
	movslq	%r10d, %rdx	# ivtmp.127,
.LVL102:
	.loc 1 408 26 is_stmt 1 view .LVU350
	leaq	7(%r8), %r11	#, ivtmp.127
	testb	%al, %al	# _31
	je	.L88	#,
.LVL103:
	.loc 1 410 9 view .LVU351
# sub_64_aligned.c:410:         final_result[j] = result_str[i];
	.loc 1 410 25 is_stmt 0 view .LVU352
	movb	%al, 6(%r15,%r8)	# _31, MEM[(char *)final_result_43 + -1B + ivtmp.127_101 * 1]
	.loc 1 411 9 is_stmt 1 view .LVU353
	.loc 1 412 9 view .LVU354
# sub_64_aligned.c:408:     while (result_str[i] != '\0')
	.loc 1 408 26 is_stmt 0 view .LVU355
	addq	$8, %r8	#, ivtmp.127
# sub_64_aligned.c:412:         j++;
	.loc 1 412 10 view .LVU356
	movslq	%r11d, %rdx	# ivtmp.127,
.LVL104:
	.loc 1 408 26 is_stmt 1 view .LVU357
# sub_64_aligned.c:408:     while (result_str[i] != '\0')
	.loc 1 408 22 is_stmt 0 view .LVU358
	movzbl	-1(%rbx,%r8), %edi	# MEM[(char *)_98 + -1B + ivtmp.127_79 * 1], _31
# sub_64_aligned.c:408:     while (result_str[i] != '\0')
	.loc 1 408 26 view .LVU359
	testb	%dil, %dil	# _31
	jne	.L42	#,
	.p2align 4,,10
	.p2align 3
.L88:
# sub_64_aligned.c:414:     final_result[j] = '\0';
	.loc 1 414 17 view .LVU360
	addq	%r15, %rdx	# <retval>, _104
.LVL105:
.L43:
	.loc 1 414 5 is_stmt 1 view .LVU361
# sub_64_aligned.c:414:     final_result[j] = '\0';
	.loc 1 414 21 is_stmt 0 view .LVU362
	movb	$0, (%rdx)	#, *prephitmp_105
	.loc 1 415 5 is_stmt 1 view .LVU363
	movq	%rbp, %rdi	# result_str,
	call	free@PLT	#
.LVL106:
	.loc 1 416 5 view .LVU364
# sub_64_aligned.c:416:     *result_length = strlen(final_result);
	.loc 1 416 22 is_stmt 0 view .LVU365
	movq	%r15, %rdi	# <retval>,
	call	strlen@PLT	#
.LVL107:
# sub_64_aligned.c:416:     *result_length = strlen(final_result);
	.loc 1 416 20 view .LVU366
	movl	%eax, 0(%r13)	# tmp186, *result_length_38(D)
	.loc 1 417 5 is_stmt 1 view .LVU367
.LVL108:
.L33:
# sub_64_aligned.c:418: }
	.loc 1 418 1 is_stmt 0 view .LVU368
	movq	40(%rsp), %rax	# D.39387, tmp188
	subq	%fs:40, %rax	# MEM[(<address-space-1> long unsigned int *)40B], tmp188
	jne	.L92	#,
	addq	$56, %rsp	#,
	.cfi_remember_state
	.cfi_def_cfa_offset 56
	movq	%r15, %rax	# <retval>,
	popq	%rbx	#
	.cfi_def_cfa_offset 48
	popq	%rbp	#
	.cfi_def_cfa_offset 40
.LVL109:
	.loc 1 418 1 view .LVU369
	popq	%r12	#
	.cfi_def_cfa_offset 32
	popq	%r13	#
	.cfi_def_cfa_offset 24
	popq	%r14	#
	.cfi_def_cfa_offset 16
	popq	%r15	#
	.cfi_def_cfa_offset 8
	ret	
.LVL110:
	.p2align 4,,10
	.p2align 3
.L91:
	.cfi_restore_state
.LBB245:
	.loc 1 396 9 is_stmt 1 view .LVU370
# sub_64_aligned.c:396:         char *temp = (char *)calloc(2, sizeof(char));
	.loc 1 396 30 is_stmt 0 view .LVU371
	movl	$1, %esi	#,
	movl	$2, %edi	#,
# sub_64_aligned.c:397:         temp[0] = '0';
	.loc 1 397 17 view .LVU372
	movl	$48, %r13d	#,
.LVL111:
# sub_64_aligned.c:396:         char *temp = (char *)calloc(2, sizeof(char));
	.loc 1 396 30 view .LVU373
	call	calloc@PLT	#
.LVL112:
# sub_64_aligned.c:397:         temp[0] = '0';
	.loc 1 397 17 view .LVU374
	movw	%r13w, (%rax)	#, MEM <vector(2) char> [(char *)temp_53]
# sub_64_aligned.c:396:         char *temp = (char *)calloc(2, sizeof(char));
	.loc 1 396 30 view .LVU375
	movq	%rax, %r15	# tmp184, <retval>
.LVL113:
	.loc 1 397 9 is_stmt 1 view .LVU376
	.loc 1 398 9 view .LVU377
	.loc 1 399 9 view .LVU378
# sub_64_aligned.c:399:         return temp;
	.loc 1 399 16 is_stmt 0 view .LVU379
	jmp	.L33	#
.LVL114:
.L90:
	.loc 1 399 16 view .LVU380
.LBE245:
	.loc 1 357 9 is_stmt 1 view .LVU381
	leaq	.LC5(%rip), %rdi	#, tmp126
	call	perror@PLT	#
.LVL115:
	.loc 1 358 9 view .LVU382
	xorl	%edi, %edi	#
	call	exit@PLT	#
.LVL116:
.L92:
# sub_64_aligned.c:418: }
	.loc 1 418 1 is_stmt 0 view .LVU383
	call	__stack_chk_fail@PLT	#
.LVL117:
.L41:
	.loc 1 404 9 is_stmt 1 view .LVU384
	leaq	.LC8(%rip), %rdi	#, tmp138
	call	perror@PLT	#
.LVL118:
	.loc 1 405 9 view .LVU385
	xorl	%edi, %edi	#
	call	exit@PLT	#
.LVL119:
	.cfi_endproc
.LFE5784:
	.size	formatResult, .-formatResult
	.section	.rodata.str1.8
	.align 8
.LC9:
	.string	"Memory allocation failed for temp\n"
	.align 8
.LC10:
	.string	"Memory reallocation failed for num2\n"
	.align 8
.LC11:
	.string	"Memory reallocation failed for num1\n"
	.text
	.p2align 4
	.globl	make_equidistant
	.type	make_equidistant, @function
make_equidistant:
.LVL120:
.LFB5785:
	.loc 1 421 1 view -0
	.cfi_startproc
	.loc 1 421 1 is_stmt 0 view .LVU387
	endbr64	
	pushq	%r15	#
	.cfi_def_cfa_offset 16
	.cfi_offset 15, -16
	pushq	%r14	#
	.cfi_def_cfa_offset 24
	.cfi_offset 14, -24
	pushq	%r13	#
	.cfi_def_cfa_offset 32
	.cfi_offset 13, -32
	pushq	%r12	#
	.cfi_def_cfa_offset 40
	.cfi_offset 12, -40
	pushq	%rbp	#
	.cfi_def_cfa_offset 48
	.cfi_offset 6, -48
	pushq	%rbx	#
	.cfi_def_cfa_offset 56
	.cfi_offset 3, -56
	subq	$72, %rsp	#,
	.cfi_def_cfa_offset 128
# sub_64_aligned.c:422:     if (*n_1 == *n_2)
	.loc 1 422 9 view .LVU388
	movl	(%rdx), %r15d	# *n_1_59(D), _1
# sub_64_aligned.c:422:     if (*n_1 == *n_2)
	.loc 1 422 17 view .LVU389
	movl	(%rcx), %r14d	# *n_2_60(D), _2
# sub_64_aligned.c:421: {
	.loc 1 421 1 view .LVU390
	movq	%fs:40, %rax	# MEM[(<address-space-1> long unsigned int *)40B], tmp232
	movq	%rax, 56(%rsp)	# tmp232, D.39433
	xorl	%eax, %eax	# tmp232
	.loc 1 422 5 is_stmt 1 view .LVU391
# sub_64_aligned.c:422:     if (*n_1 == *n_2)
	.loc 1 422 8 is_stmt 0 view .LVU392
	cmpl	%r14d, %r15d	# _2, _1
	je	.L93	#,
	movq	%rcx, %rbx	# tmp227, n_2
	.loc 1 425 5 is_stmt 1 view .LVU393
.LVL121:
	.loc 1 426 5 view .LVU394
	.loc 1 428 5 view .LVU395
	movq	(%rdi), %r8	# *num1_base_61(D), _3
	.loc 1 429 5 view .LVU396
	movq	(%rsi), %rcx	# *num2_base_62(D), _4
.LVL122:
	.loc 1 431 5 view .LVU397
	.loc 1 432 5 view .LVU398
	.loc 1 434 5 view .LVU399
	movq	%rdi, %r13	# tmp224, num1_base
	movq	%rsi, %r12	# tmp225, num2_base
# sub_64_aligned.c:434:     if (n1 > n2)
	.loc 1 434 8 is_stmt 0 view .LVU400
	jg	.L124	#,
	.loc 1 483 10 is_stmt 1 view .LVU401
# sub_64_aligned.c:483:     else if (n2 > n1)
	.loc 1 483 13 is_stmt 0 view .LVU402
	jl	.L125	#,
.LVL123:
.L93:
# sub_64_aligned.c:532: }
	.loc 1 532 1 view .LVU403
	movq	56(%rsp), %rax	# D.39433, tmp235
	subq	%fs:40, %rax	# MEM[(<address-space-1> long unsigned int *)40B], tmp235
	jne	.L123	#,
	addq	$72, %rsp	#,
	.cfi_remember_state
	.cfi_def_cfa_offset 56
	popq	%rbx	#
	.cfi_def_cfa_offset 48
	popq	%rbp	#
	.cfi_def_cfa_offset 40
	popq	%r12	#
	.cfi_def_cfa_offset 32
	popq	%r13	#
	.cfi_def_cfa_offset 24
	popq	%r14	#
	.cfi_def_cfa_offset 16
	popq	%r15	#
	.cfi_def_cfa_offset 8
	ret	
.LVL124:
	.p2align 4,,10
	.p2align 3
.L124:
	.cfi_restore_state
.LBB266:
# sub_64_aligned.c:438:         aligned_uint64_ptr temp = (aligned_uint64_ptr)_mm_malloc(n1 * sizeof(uint64_t), 64);
	.loc 1 438 55 view .LVU404
	movslq	%r15d, %r13	# _1, _1
.LBB267:
.LBB268:
# /usr/lib/gcc/x86_64-linux-gnu/11/include/mm_malloc.h:45:   if (posix_memalign (&__ptr, __alignment, __size) == 0)
	.loc 5 45 7 view .LVU405
	leaq	24(%rsp), %rdi	#, tmp145
.LVL125:
	.loc 5 45 7 view .LVU406
	movl	$64, %esi	#,
.LVL126:
	.loc 5 45 7 view .LVU407
	movq	%rcx, 8(%rsp)	# _4, %sfp
.LBE268:
.LBE267:
	.loc 1 438 9 is_stmt 1 view .LVU408
# sub_64_aligned.c:438:         aligned_uint64_ptr temp = (aligned_uint64_ptr)_mm_malloc(n1 * sizeof(uint64_t), 64);
	.loc 1 438 55 is_stmt 0 view .LVU409
	movq	%r13, (%rsp)	# _1, %sfp
	leaq	0(,%r13,8), %r13	#, _6
.LVL127:
.LBB270:
.LBI267:
	.loc 5 38 1 is_stmt 1 view .LVU410
.LBB269:
	.loc 5 40 3 view .LVU411
	.loc 5 41 3 view .LVU412
	.loc 5 43 3 view .LVU413
	.loc 5 45 3 view .LVU414
# /usr/lib/gcc/x86_64-linux-gnu/11/include/mm_malloc.h:45:   if (posix_memalign (&__ptr, __alignment, __size) == 0)
	.loc 5 45 7 is_stmt 0 view .LVU415
	movq	%r13, %rdx	# _6,
.LVL128:
	.loc 5 45 7 view .LVU416
	call	posix_memalign@PLT	#
.LVL129:
	.loc 5 45 7 view .LVU417
	movq	8(%rsp), %rcx	# %sfp, _4
	testl	%eax, %eax	# tmp228
	jne	.L97	#,
	.loc 5 45 7 view .LVU418
	movq	24(%rsp), %rbp	# D.39396, _105
.LVL130:
	.loc 5 45 7 view .LVU419
.LBE269:
.LBE270:
	.loc 1 439 9 is_stmt 1 view .LVU420
# sub_64_aligned.c:439:         if (temp == NULL)
	.loc 1 439 12 is_stmt 0 view .LVU421
	testq	%rbp, %rbp	# _105
	je	.L97	#,
	.loc 1 446 9 is_stmt 1 view .LVU422
	.loc 1 447 9 view .LVU423
	.loc 1 448 9 view .LVU424
.LBB271:
	.loc 1 448 14 view .LVU425
.LVL131:
	.loc 1 448 32 view .LVU426
	movl	%r14d, %eax	# _2, i
	subl	$1, %eax	#, i
.LVL132:
	.loc 1 448 32 is_stmt 0 view .LVU427
	js	.L98	#,
# sub_64_aligned.c:451:             temp[i + n1 - n2] = num2[i];
	.loc 1 451 31 view .LVU428
	movl	%eax, %r9d	# i, _146
	movq	(%rsp), %rdx	# %sfp, _1
	movslq	%eax, %rsi	# i, _135
	movslq	%r14d, %r8	# _2, _2
	movq	%r9, %r10	# _146, tmp149
	leaq	(%rdx,%rsi), %r11	#, tmp151
	negq	%r10	# tmp149
	leaq	8(,%r9,8), %rdx	#, tmp158
	salq	$3, %r10	#, tmp150
	subq	%r8, %r11	# _2, tmp153
	leaq	(%r10,%r11,8), %rdi	#, tmp155
# sub_64_aligned.c:451:             temp[i + n1 - n2] = num2[i];
	.loc 1 451 37 view .LVU429
	leaq	(%r10,%rsi,8), %rax	#, tmp160
.LVL133:
# sub_64_aligned.c:451:             temp[i + n1 - n2] = num2[i];
	.loc 1 451 31 view .LVU430
	addq	%rbp, %rdi	# _105, tmp156
# sub_64_aligned.c:451:             temp[i + n1 - n2] = num2[i];
	.loc 1 451 37 view .LVU431
	leaq	(%rcx,%rax), %rsi	#, tmp161
.LVL134:
# sub_64_aligned.c:451:             temp[i + n1 - n2] = num2[i];
	.loc 1 451 31 view .LVU432
	call	memcpy@PLT	#
.LVL135:
.L98:
	.loc 1 451 31 view .LVU433
.LBE271:
.LBB272:
	.loc 1 456 27 is_stmt 1 view .LVU434
# sub_64_aligned.c:456:         for (int i = 0; i < n1 - n2; i++)
	.loc 1 456 32 is_stmt 0 view .LVU435
	movl	%r15d, %edi	# _1, tmp167
# sub_64_aligned.c:458:             temp[i] = 0;
	.loc 1 458 21 view .LVU436
	xorl	%esi, %esi	#
# sub_64_aligned.c:456:         for (int i = 0; i < n1 - n2; i++)
	.loc 1 456 32 view .LVU437
	subl	%r14d, %edi	# _2, tmp167
# sub_64_aligned.c:458:             temp[i] = 0;
	.loc 1 458 21 view .LVU438
	movslq	%edi, %rdx	# tmp167, tmp168
	movq	%rbp, %rdi	# _105,
	salq	$3, %rdx	#, tmp169
	call	memset@PLT	#
.LVL136:
	.loc 1 458 21 view .LVU439
.LBE272:
	.loc 1 463 9 is_stmt 1 view .LVU440
.LBB273:
.LBI273:
	.loc 5 38 1 view .LVU441
.LBB274:
	.loc 5 40 3 view .LVU442
	.loc 5 41 3 view .LVU443
	.loc 5 43 3 view .LVU444
	.loc 5 45 3 view .LVU445
# /usr/lib/gcc/x86_64-linux-gnu/11/include/mm_malloc.h:45:   if (posix_memalign (&__ptr, __alignment, __size) == 0)
	.loc 5 45 7 is_stmt 0 view .LVU446
	leaq	32(%rsp), %rdi	#, tmp174
	movq	%r13, %rdx	# _6,
	movl	$64, %esi	#,
	call	posix_memalign@PLT	#
.LVL137:
	testl	%eax, %eax	# tmp229
	je	.L126	#,
.LVL138:
.L99:
	.loc 5 45 7 view .LVU447
.LBE274:
.LBE273:
	.loc 1 466 13 is_stmt 1 view .LVU448
	leaq	.LC10(%rip), %rdi	#, tmp175
	call	perror@PLT	#
.LVL139:
	.loc 1 467 13 view .LVU449
	xorl	%edi, %edi	#
	call	exit@PLT	#
.LVL140:
	.p2align 4,,10
	.p2align 3
.L97:
	.loc 1 441 13 view .LVU450
	leaq	.LC9(%rip), %rdi	#, tmp146
	call	perror@PLT	#
.LVL141:
	.loc 1 442 13 view .LVU451
	xorl	%edi, %edi	#
	call	exit@PLT	#
.LVL142:
	.p2align 4,,10
	.p2align 3
.L125:
	.loc 1 442 13 is_stmt 0 view .LVU452
.LBE266:
.LBB278:
# sub_64_aligned.c:487:         aligned_uint64_ptr temp = (aligned_uint64_ptr)_mm_malloc(n2 * sizeof(uint64_t), 64);
	.loc 1 487 55 view .LVU453
	movslq	%r14d, %rax	# _2, _2
	movq	%rdx, %rbp	# tmp226, n_1
.LBB279:
.LBB280:
# /usr/lib/gcc/x86_64-linux-gnu/11/include/mm_malloc.h:45:   if (posix_memalign (&__ptr, __alignment, __size) == 0)
	.loc 5 45 7 view .LVU454
	leaq	40(%rsp), %rdi	#, tmp184
.LVL143:
	.loc 5 45 7 view .LVU455
	movl	$64, %esi	#,
.LVL144:
	.loc 5 45 7 view .LVU456
.LBE280:
.LBE279:
# sub_64_aligned.c:487:         aligned_uint64_ptr temp = (aligned_uint64_ptr)_mm_malloc(n2 * sizeof(uint64_t), 64);
	.loc 1 487 55 view .LVU457
	leaq	0(,%rax,8), %r12	#, _26
.LVL145:
	.loc 1 487 55 view .LVU458
	movq	%r8, 8(%rsp)	# _3, %sfp
	.loc 1 487 9 is_stmt 1 view .LVU459
.LVL146:
.LBB283:
.LBI279:
	.loc 5 38 1 view .LVU460
.LBB281:
	.loc 5 40 3 view .LVU461
	.loc 5 41 3 view .LVU462
	.loc 5 43 3 view .LVU463
	.loc 5 45 3 view .LVU464
# /usr/lib/gcc/x86_64-linux-gnu/11/include/mm_malloc.h:45:   if (posix_memalign (&__ptr, __alignment, __size) == 0)
	.loc 5 45 7 is_stmt 0 view .LVU465
	movq	%r12, %rdx	# _26,
.LVL147:
	.loc 5 45 7 view .LVU466
.LBE281:
.LBE283:
# sub_64_aligned.c:487:         aligned_uint64_ptr temp = (aligned_uint64_ptr)_mm_malloc(n2 * sizeof(uint64_t), 64);
	.loc 1 487 55 view .LVU467
	movq	%rax, (%rsp)	# _2, %sfp
.LBB284:
.LBB282:
# /usr/lib/gcc/x86_64-linux-gnu/11/include/mm_malloc.h:45:   if (posix_memalign (&__ptr, __alignment, __size) == 0)
	.loc 5 45 7 view .LVU468
	call	posix_memalign@PLT	#
.LVL148:
	.loc 5 45 7 view .LVU469
	testl	%eax, %eax	# tmp230
	jne	.L97	#,
	.loc 5 45 7 view .LVU470
	movq	40(%rsp), %rbx	# D.39408, _129
.LVL149:
	.loc 5 45 7 view .LVU471
.LBE282:
.LBE284:
	.loc 1 488 9 is_stmt 1 view .LVU472
# sub_64_aligned.c:488:         if (temp == NULL)
	.loc 1 488 12 is_stmt 0 view .LVU473
	testq	%rbx, %rbx	# _129
	je	.L97	#,
	.loc 1 496 9 is_stmt 1 view .LVU474
	.loc 1 497 9 view .LVU475
	.loc 1 498 9 view .LVU476
.LBB285:
	.loc 1 498 14 view .LVU477
.LVL150:
	.loc 1 498 32 view .LVU478
	movl	%r15d, %eax	# _1, i
	subl	$1, %eax	#, i
.LVL151:
	.loc 1 498 32 is_stmt 0 view .LVU479
	js	.L103	#,
# sub_64_aligned.c:501:             temp[i + n2 - n1] = num1[i];
	.loc 1 501 31 view .LVU480
	movl	%eax, %r9d	# i, _112
	movq	(%rsp), %rsi	# %sfp, _2
# sub_64_aligned.c:501:             temp[i + n2 - n1] = num1[i];
	.loc 1 501 37 view .LVU481
	movq	8(%rsp), %r8	# %sfp, _3
# sub_64_aligned.c:501:             temp[i + n2 - n1] = num1[i];
	.loc 1 501 31 view .LVU482
	cltq
	.loc 1 501 31 view .LVU483
	movq	%r9, %rdx	# _112, tmp187
	leaq	8(,%r9,8), %r10	#, tmp194
	negq	%rdx	# tmp187
	salq	$3, %rdx	#, tmp188
	leaq	-8(%rdx,%rsi,8), %rdi	#, tmp191
# sub_64_aligned.c:501:             temp[i + n2 - n1] = num1[i];
	.loc 1 501 37 view .LVU484
	leaq	(%rdx,%rax,8), %r11	#, tmp197
# sub_64_aligned.c:501:             temp[i + n2 - n1] = num1[i];
	.loc 1 501 31 view .LVU485
	movq	%r10, %rdx	# tmp194,
	addq	%rbx, %rdi	# _129, tmp192
# sub_64_aligned.c:501:             temp[i + n2 - n1] = num1[i];
	.loc 1 501 37 view .LVU486
	leaq	(%r8,%r11), %rsi	#, tmp198
# sub_64_aligned.c:501:             temp[i + n2 - n1] = num1[i];
	.loc 1 501 31 view .LVU487
	call	memcpy@PLT	#
.LVL152:
.L103:
	.loc 1 501 31 view .LVU488
.LBE285:
.LBB286:
	.loc 1 507 27 is_stmt 1 view .LVU489
# sub_64_aligned.c:507:         for (int i = 0; i < n2 - n1; i++)
	.loc 1 507 32 is_stmt 0 view .LVU490
	movl	%r14d, %edi	# _2, tmp204
# sub_64_aligned.c:509:             temp[i] = 0;
	.loc 1 509 21 view .LVU491
	xorl	%esi, %esi	#
# sub_64_aligned.c:507:         for (int i = 0; i < n2 - n1; i++)
	.loc 1 507 32 view .LVU492
	subl	%r15d, %edi	# _1, tmp204
# sub_64_aligned.c:509:             temp[i] = 0;
	.loc 1 509 21 view .LVU493
	movslq	%edi, %rdx	# tmp204, tmp205
	movq	%rbx, %rdi	# _129,
	salq	$3, %rdx	#, tmp206
	call	memset@PLT	#
.LVL153:
	.loc 1 509 21 view .LVU494
.LBE286:
	.loc 1 513 9 is_stmt 1 view .LVU495
.LBB287:
.LBI287:
	.loc 5 38 1 view .LVU496
.LBB288:
	.loc 5 40 3 view .LVU497
	.loc 5 41 3 view .LVU498
	.loc 5 43 3 view .LVU499
	.loc 5 45 3 view .LVU500
# /usr/lib/gcc/x86_64-linux-gnu/11/include/mm_malloc.h:45:   if (posix_memalign (&__ptr, __alignment, __size) == 0)
	.loc 5 45 7 is_stmt 0 view .LVU501
	leaq	48(%rsp), %rdi	#, tmp211
	movq	%r12, %rdx	# _26,
	movl	$64, %esi	#,
	call	posix_memalign@PLT	#
.LVL154:
	testl	%eax, %eax	# tmp231
	je	.L127	#,
.LVL155:
.L104:
	.loc 5 45 7 view .LVU502
.LBE288:
.LBE287:
	.loc 1 516 13 is_stmt 1 view .LVU503
	leaq	.LC11(%rip), %rdi	#, tmp212
	call	perror@PLT	#
.LVL156:
	.loc 1 517 13 view .LVU504
	xorl	%edi, %edi	#
	call	exit@PLT	#
.LVL157:
	.p2align 4,,10
	.p2align 3
.L126:
	.loc 1 517 13 is_stmt 0 view .LVU505
	movq	32(%rsp), %r14	# D.39402, _117
.LVL158:
	.loc 1 517 13 view .LVU506
.LBE278:
.LBB294:
	.loc 1 464 9 is_stmt 1 view .LVU507
# sub_64_aligned.c:464:         if (num2 == NULL)
	.loc 1 464 12 is_stmt 0 view .LVU508
	testq	%r14, %r14	# _117
	je	.L99	#,
.LVL159:
.LBB275:
	.loc 1 473 27 is_stmt 1 view .LVU509
	testl	%r15d, %r15d	# _1
	jle	.L101	#,
# sub_64_aligned.c:475:             num2[i] = temp[i];
	.loc 1 475 21 is_stmt 0 view .LVU510
	movq	(%rsp), %rdx	# %sfp, _1
	movq	%rbp, %rsi	# _105,
	movq	%r14, %rdi	# _117,
	salq	$3, %rdx	#, _1
	call	memcpy@PLT	#
.LVL160:
.L101:
	.loc 1 475 21 view .LVU511
.LBE275:
	.loc 1 478 9 is_stmt 1 view .LVU512
# sub_64_aligned.c:478:         *n_2 = n1;
	.loc 1 478 14 is_stmt 0 view .LVU513
	movl	%r15d, (%rbx)	# _1, *n_2_60(D)
	.loc 1 479 9 is_stmt 1 view .LVU514
# sub_64_aligned.c:479:         *num2_base = num2;
	.loc 1 479 20 is_stmt 0 view .LVU515
	movq	%r14, (%r12)	# _117, *num2_base_62(D)
	.loc 1 481 9 is_stmt 1 view .LVU516
.LVL161:
.LBB276:
.LBI276:
	.loc 5 52 1 view .LVU517
.LBB277:
	.loc 5 54 3 view .LVU518
	movq	56(%rsp), %rax	# D.39433, tmp233
	subq	%fs:40, %rax	# MEM[(<address-space-1> long unsigned int *)40B], tmp233
	jne	.L123	#,
	.loc 5 54 3 is_stmt 0 view .LVU519
	movq	%rbp, %rdi	# _105,
.LVL162:
.L122:
	.loc 5 54 3 view .LVU520
.LBE277:
.LBE276:
.LBE294:
# sub_64_aligned.c:532: }
	.loc 1 532 1 view .LVU521
	addq	$72, %rsp	#,
	.cfi_remember_state
	.cfi_def_cfa_offset 56
	popq	%rbx	#
	.cfi_def_cfa_offset 48
	popq	%rbp	#
	.cfi_def_cfa_offset 40
	popq	%r12	#
	.cfi_def_cfa_offset 32
	popq	%r13	#
	.cfi_def_cfa_offset 24
	popq	%r14	#
	.cfi_def_cfa_offset 16
	popq	%r15	#
	.cfi_def_cfa_offset 8
.LBB295:
.LBB289:
.LBB290:
# /usr/lib/gcc/x86_64-linux-gnu/11/include/mm_malloc.h:54:   free (__ptr);
	.loc 5 54 3 view .LVU522
	jmp	free@PLT	#
.LVL163:
	.p2align 4,,10
	.p2align 3
.L127:
	.cfi_restore_state
	.loc 5 54 3 view .LVU523
	movq	48(%rsp), %r15	# D.39414, _141
.LVL164:
	.loc 5 54 3 view .LVU524
.LBE290:
.LBE289:
	.loc 1 514 9 is_stmt 1 view .LVU525
# sub_64_aligned.c:514:         if (num1 == NULL)
	.loc 1 514 12 is_stmt 0 view .LVU526
	testq	%r15, %r15	# _141
	je	.L104	#,
.LVL165:
.LBB292:
	.loc 1 523 27 is_stmt 1 view .LVU527
	testl	%r14d, %r14d	# _2
	jle	.L106	#,
# sub_64_aligned.c:525:             num1[i] = temp[i];
	.loc 1 525 21 is_stmt 0 view .LVU528
	movq	(%rsp), %rdx	# %sfp, _2
	movq	%rbx, %rsi	# _129,
	movq	%r15, %rdi	# _141,
	salq	$3, %rdx	#, _2
	call	memcpy@PLT	#
.LVL166:
.L106:
	.loc 1 525 21 view .LVU529
.LBE292:
	.loc 1 527 9 is_stmt 1 view .LVU530
# sub_64_aligned.c:527:         *n_1 = n2;
	.loc 1 527 14 is_stmt 0 view .LVU531
	movl	%r14d, 0(%rbp)	# _2, *n_1_59(D)
	.loc 1 528 9 is_stmt 1 view .LVU532
# sub_64_aligned.c:528:         *num1_base = num1;
	.loc 1 528 20 is_stmt 0 view .LVU533
	movq	%r15, 0(%r13)	# _141, *num1_base_61(D)
	.loc 1 530 9 is_stmt 1 view .LVU534
.LVL167:
.LBB293:
.LBI289:
	.loc 5 52 1 view .LVU535
.LBB291:
	.loc 5 54 3 view .LVU536
	movq	56(%rsp), %rax	# D.39433, tmp234
	subq	%fs:40, %rax	# MEM[(<address-space-1> long unsigned int *)40B], tmp234
	jne	.L123	#,
	.loc 5 54 3 is_stmt 0 view .LVU537
	movq	%rbx, %rdi	# _129,
	jmp	.L122	#
.LVL168:
.L123:
	.loc 5 54 3 view .LVU538
.LBE291:
.LBE293:
.LBE295:
# sub_64_aligned.c:532: }
	.loc 1 532 1 view .LVU539
	call	__stack_chk_fail@PLT	#
.LVL169:
	.cfi_endproc
.LFE5785:
	.size	make_equidistant, .-make_equidistant
	.section	.rodata.str1.1
.LC12:
	.string	"Error opening event %d: %s\n"
	.text
	.p2align 4
	.globl	initialize_perf
	.type	initialize_perf, @function
initialize_perf:
.LFB5786:
	.loc 1 548 1 is_stmt 1 view -0
	.cfi_startproc
	endbr64	
	.loc 1 550 5 view .LVU541
.LVL170:
.LBB296:
.LBI296:
	.loc 4 57 1 view .LVU542
.LBB297:
	.loc 4 59 3 view .LVU543
.LBE297:
.LBE296:
# sub_64_aligned.c:548: {
	.loc 1 548 1 is_stmt 0 view .LVU544
	pushq	%r13	#
	.cfi_def_cfa_offset 16
	.cfi_offset 13, -16
.LBB302:
.LBB298:
# /usr/include/x86_64-linux-gnu/bits/string_fortified.h:59:   return __builtin___memset_chk (__dest, __ch, __len,
	.loc 4 59 10 view .LVU545
	movl	$96, %ecx	#, tmp116
	xorl	%eax, %eax	# tmp115
.LBE298:
.LBE302:
# sub_64_aligned.c:579:     pe[3].type = PERF_TYPE_SOFTWARE;
	.loc 1 579 16 view .LVU546
	movabsq	$549755813889, %rdx	#, tmp181
# sub_64_aligned.c:548: {
	.loc 1 548 1 view .LVU547
	pushq	%r12	#
	.cfi_def_cfa_offset 24
	.cfi_offset 12, -24
	leaq	fd(%rip), %r12	#, tmp168
	pushq	%rbp	#
	.cfi_def_cfa_offset 32
	.cfi_offset 6, -32
.LBB303:
.LBB299:
# /usr/include/x86_64-linux-gnu/bits/string_fortified.h:59:   return __builtin___memset_chk (__dest, __ch, __len,
	.loc 4 59 10 view .LVU548
	leaq	pe(%rip), %rbp	#, tmp167
.LBE299:
.LBE303:
# sub_64_aligned.c:548: {
	.loc 1 548 1 view .LVU549
	pushq	%rbx	#
	.cfi_def_cfa_offset 40
	.cfi_offset 3, -40
.LBB304:
.LBB300:
# /usr/include/x86_64-linux-gnu/bits/string_fortified.h:59:   return __builtin___memset_chk (__dest, __ch, __len,
	.loc 4 59 10 view .LVU550
	movq	%rbp, %rdi	# tmp167, tmp114
.LBE300:
.LBE304:
# sub_64_aligned.c:588:     pe[5].config = PERF_COUNT_HW_CACHE_L1D | (PERF_COUNT_HW_CACHE_OP_READ << 8) | (PERF_COUNT_HW_CACHE_RESULT_MISS << 16);
	.loc 1 588 18 view .LVU551
	xorl	%ebx, %ebx	# ivtmp.161
# sub_64_aligned.c:548: {
	.loc 1 548 1 view .LVU552
	subq	$8, %rsp	#,
	.cfi_def_cfa_offset 48
.LBB305:
.LBB301:
# /usr/include/x86_64-linux-gnu/bits/string_fortified.h:59:   return __builtin___memset_chk (__dest, __ch, __len,
	.loc 4 59 10 view .LVU553
	rep stosq
.LVL171:
	.loc 4 59 10 view .LVU554
.LBE301:
.LBE305:
	.loc 1 551 5 is_stmt 1 view .LVU555
.LBB306:
	.loc 1 551 10 view .LVU556
	.loc 1 551 23 view .LVU557
	.loc 1 553 9 view .LVU558
.LBE306:
# sub_64_aligned.c:579:     pe[3].type = PERF_TYPE_SOFTWARE;
	.loc 1 579 16 is_stmt 0 view .LVU559
	movq	%rdx, 384+pe(%rip)	# tmp181, MEM <unsigned long> [(unsigned int *)&pe + 384B]
# sub_64_aligned.c:583:     pe[4].type = PERF_TYPE_HW_CACHE;
	.loc 1 583 16 view .LVU560
	addq	$2, %rdx	#, tmp156
.LBB307:
# sub_64_aligned.c:553:         pe[i].size = sizeof(struct perf_event_attr);
	.loc 1 553 20 view .LVU561
	movl	$128, 4+pe(%rip)	#, pe[0].size
	.loc 1 554 9 is_stmt 1 view .LVU562
	.loc 1 555 9 view .LVU563
	.loc 1 556 9 view .LVU564
	.loc 1 557 9 view .LVU565
	.loc 1 558 9 view .LVU566
	.loc 1 559 9 view .LVU567
# sub_64_aligned.c:554:         pe[i].disabled = 1;
	.loc 1 554 24 is_stmt 0 view .LVU568
	movb	$-59, 40+pe(%rip)	#, MEM <unsigned char> [(struct perf_event_attr *)&pe + 40B]
	.loc 1 551 38 is_stmt 1 view .LVU569
.LVL172:
	.loc 1 551 23 view .LVU570
	.loc 1 553 9 view .LVU571
# sub_64_aligned.c:553:         pe[i].size = sizeof(struct perf_event_attr);
	.loc 1 553 20 is_stmt 0 view .LVU572
	movl	$128, 132+pe(%rip)	#, pe[1].size
	.loc 1 554 9 is_stmt 1 view .LVU573
	.loc 1 555 9 view .LVU574
	.loc 1 556 9 view .LVU575
	.loc 1 557 9 view .LVU576
	.loc 1 558 9 view .LVU577
	.loc 1 559 9 view .LVU578
	.loc 1 551 38 view .LVU579
.LVL173:
	.loc 1 551 23 view .LVU580
	.loc 1 553 9 view .LVU581
# sub_64_aligned.c:553:         pe[i].size = sizeof(struct perf_event_attr);
	.loc 1 553 20 is_stmt 0 view .LVU582
	movl	$128, 260+pe(%rip)	#, pe[2].size
	.loc 1 554 9 is_stmt 1 view .LVU583
	.loc 1 555 9 view .LVU584
	.loc 1 556 9 view .LVU585
	.loc 1 557 9 view .LVU586
	.loc 1 558 9 view .LVU587
	.loc 1 559 9 view .LVU588
	.loc 1 551 38 view .LVU589
.LVL174:
	.loc 1 551 23 view .LVU590
	.loc 1 553 9 view .LVU591
	.loc 1 554 9 view .LVU592
	.loc 1 555 9 view .LVU593
	.loc 1 556 9 view .LVU594
	.loc 1 557 9 view .LVU595
	.loc 1 558 9 view .LVU596
	.loc 1 559 9 view .LVU597
# sub_64_aligned.c:554:         pe[i].disabled = 1;
	.loc 1 554 24 is_stmt 0 view .LVU598
	movb	$-59, 424+pe(%rip)	#, MEM <unsigned char> [(struct perf_event_attr *)&pe + 424B]
	.loc 1 551 38 is_stmt 1 view .LVU599
.LVL175:
	.loc 1 551 23 view .LVU600
	.loc 1 553 9 view .LVU601
	.loc 1 554 9 view .LVU602
	.loc 1 555 9 view .LVU603
	.loc 1 556 9 view .LVU604
	.loc 1 557 9 view .LVU605
	.loc 1 558 9 view .LVU606
	.loc 1 559 9 view .LVU607
# sub_64_aligned.c:554:         pe[i].disabled = 1;
	.loc 1 554 24 is_stmt 0 view .LVU608
	movb	$-59, 552+pe(%rip)	#, MEM <unsigned char> [(struct perf_event_attr *)&pe + 552B]
	.loc 1 551 38 is_stmt 1 view .LVU609
.LVL176:
	.loc 1 551 23 view .LVU610
	.loc 1 553 9 view .LVU611
	.loc 1 554 9 view .LVU612
	.loc 1 555 9 view .LVU613
	.loc 1 556 9 view .LVU614
	.loc 1 557 9 view .LVU615
	.loc 1 558 9 view .LVU616
	.loc 1 559 9 view .LVU617
# sub_64_aligned.c:554:         pe[i].disabled = 1;
	.loc 1 554 24 is_stmt 0 view .LVU618
	movb	$-59, 680+pe(%rip)	#, MEM <unsigned char> [(struct perf_event_attr *)&pe + 680B]
	.loc 1 551 38 is_stmt 1 view .LVU619
.LVL177:
	.loc 1 551 23 view .LVU620
.LBE307:
	.loc 1 563 5 view .LVU621
	.loc 1 564 5 view .LVU622
	.loc 1 567 5 view .LVU623
	.loc 1 568 5 view .LVU624
# sub_64_aligned.c:568:     pe[1].config = PERF_COUNT_HW_INSTRUCTIONS;
	.loc 1 568 18 is_stmt 0 view .LVU625
	movq	$1, 136+pe(%rip)	#, pe[1].config
	.loc 1 569 5 is_stmt 1 view .LVU626
.LBB308:
# sub_64_aligned.c:554:         pe[i].disabled = 1;
	.loc 1 554 24 is_stmt 0 view .LVU627
	movb	$-27, 168+pe(%rip)	#, MEM <unsigned char> [(struct perf_event_attr *)&pe + 168B]
.LBE308:
	.loc 1 570 5 is_stmt 1 view .LVU628
	.loc 1 573 5 view .LVU629
	.loc 1 574 5 view .LVU630
# sub_64_aligned.c:574:     pe[2].config = PERF_COUNT_HW_INSTRUCTIONS;
	.loc 1 574 18 is_stmt 0 view .LVU631
	movq	$1, 264+pe(%rip)	#, pe[2].config
	.loc 1 575 5 is_stmt 1 view .LVU632
	.loc 1 576 5 view .LVU633
.LBB309:
# sub_64_aligned.c:554:         pe[i].disabled = 1;
	.loc 1 554 24 is_stmt 0 view .LVU634
	movb	$-43, 296+pe(%rip)	#, MEM <unsigned char> [(struct perf_event_attr *)&pe + 296B]
.LBE309:
	.loc 1 579 5 is_stmt 1 view .LVU635
	.loc 1 580 5 view .LVU636
# sub_64_aligned.c:580:     pe[3].config = PERF_COUNT_SW_PAGE_FAULTS;
	.loc 1 580 18 is_stmt 0 view .LVU637
	movq	$2, 392+pe(%rip)	#, pe[3].config
	.loc 1 583 5 is_stmt 1 view .LVU638
# sub_64_aligned.c:583:     pe[4].type = PERF_TYPE_HW_CACHE;
	.loc 1 583 16 is_stmt 0 view .LVU639
	movq	%rdx, 512+pe(%rip)	# tmp156, MEM <unsigned long> [(unsigned int *)&pe + 512B]
	.loc 1 584 5 is_stmt 1 view .LVU640
	.loc 1 587 5 view .LVU641
	.loc 1 588 5 view .LVU642
# sub_64_aligned.c:587:     pe[5].type = PERF_TYPE_HW_CACHE;
	.loc 1 587 16 is_stmt 0 view .LVU643
	movq	%rdx, 640+pe(%rip)	# tmp156, MEM <unsigned long> [(unsigned int *)&pe + 640B]
# sub_64_aligned.c:588:     pe[5].config = PERF_COUNT_HW_CACHE_L1D | (PERF_COUNT_HW_CACHE_OP_READ << 8) | (PERF_COUNT_HW_CACHE_RESULT_MISS << 16);
	.loc 1 588 18 view .LVU644
	movq	$65536, 648+pe(%rip)	#, pe[5].config
	.loc 1 591 5 is_stmt 1 view .LVU645
.LBB310:
	.loc 1 591 10 view .LVU646
.LVL178:
	.loc 1 591 23 view .LVU647
	.p2align 4,,10
	.p2align 3
.L130:
	.loc 1 593 9 view .LVU648
.LBB311:
.LBI311:
	.loc 1 114 6 view .LVU649
.LBB312:
	.loc 1 116 5 view .LVU650
	.loc 1 118 5 view .LVU651
# sub_64_aligned.c:118:     ret = syscall(__NR_perf_event_open, hw_event, pid, cpu, group_fd, flags);
	.loc 1 118 11 is_stmt 0 view .LVU652
	movq	%rbx, %rsi	# ivtmp.161, tmp161
	movl	CORE_NO(%rip), %ecx	# CORE_NO,
	xorl	%r9d, %r9d	#
	xorl	%edx, %edx	#
	salq	$7, %rsi	#, tmp161
	movl	$-1, %r8d	#,
	movl	$298, %edi	#,
	xorl	%eax, %eax	#
	addq	%rbp, %rsi	# tmp167, tmp162
	call	syscall@PLT	#
.LVL179:
	.loc 1 119 5 is_stmt 1 view .LVU653
	.loc 1 119 5 is_stmt 0 view .LVU654
.LBE312:
.LBE311:
# sub_64_aligned.c:593:         fd[i] = perf_event_open(&pe[i], 0, CORE_NO, -1, 0);
	.loc 1 593 15 view .LVU655
	movl	%eax, (%r12,%rbx,4)	# _36, MEM[(int *)&fd + ivtmp.161_52 * 4]
	.loc 1 594 9 is_stmt 1 view .LVU656
# sub_64_aligned.c:594:         if (fd[i] == -1)
	.loc 1 594 12 is_stmt 0 view .LVU657
	cmpl	$-1, %eax	#, _36
	je	.L133	#,
	.loc 1 591 38 is_stmt 1 discriminator 2 view .LVU658
.LVL180:
	.loc 1 591 23 discriminator 2 view .LVU659
	addq	$1, %rbx	#, ivtmp.161
.LVL181:
	.loc 1 591 23 is_stmt 0 discriminator 2 view .LVU660
	cmpq	$6, %rbx	#, ivtmp.161
	jne	.L130	#,
.LBE310:
# sub_64_aligned.c:600: }
	.loc 1 600 1 view .LVU661
	addq	$8, %rsp	#,
	.cfi_remember_state
	.cfi_def_cfa_offset 40
	popq	%rbx	#
	.cfi_def_cfa_offset 32
	popq	%rbp	#
	.cfi_def_cfa_offset 24
	popq	%r12	#
	.cfi_def_cfa_offset 16
	popq	%r13	#
	.cfi_def_cfa_offset 8
	ret	
.LVL182:
.L133:
	.cfi_restore_state
.LBB317:
	.loc 1 596 13 is_stmt 1 view .LVU662
# sub_64_aligned.c:596:             fprintf(stderr, "Error opening event %d: %s\n", i, strerror(errno));
	.loc 1 596 73 is_stmt 0 view .LVU663
	call	__errno_location@PLT	#
.LVL183:
# sub_64_aligned.c:596:             fprintf(stderr, "Error opening event %d: %s\n", i, strerror(errno));
	.loc 1 596 13 view .LVU664
	movl	(%rax), %edi	# *_3,
	call	strerror@PLT	#
.LVL184:
.LBB313:
.LBI313:
	.loc 6 103 1 is_stmt 1 view .LVU665
.LBB314:
	.loc 6 105 3 view .LVU666
# /usr/include/x86_64-linux-gnu/bits/stdio2.h:105:   return __fprintf_chk (__stream, __USE_FORTIFY_LEVEL - 1, __fmt,
	.loc 6 105 10 is_stmt 0 view .LVU667
	movq	stderr(%rip), %rdi	# stderr,
	movl	%ebx, %ecx	# i,
	leaq	.LC12(%rip), %rdx	#, tmp166
.LBE314:
.LBE313:
# sub_64_aligned.c:596:             fprintf(stderr, "Error opening event %d: %s\n", i, strerror(errno));
	.loc 1 596 13 view .LVU668
	movq	%rax, %r8	#, tmp178
.LBB316:
.LBB315:
# /usr/include/x86_64-linux-gnu/bits/stdio2.h:105:   return __fprintf_chk (__stream, __USE_FORTIFY_LEVEL - 1, __fmt,
	.loc 6 105 10 view .LVU669
	movl	$1, %esi	#,
	xorl	%eax, %eax	#
	call	__fprintf_chk@PLT	#
.LVL185:
	.loc 6 105 10 view .LVU670
.LBE315:
.LBE316:
	.loc 1 597 13 is_stmt 1 view .LVU671
	movl	$1, %edi	#,
	call	exit@PLT	#
.LVL186:
.LBE317:
	.cfi_endproc
.LFE5786:
	.size	initialize_perf, .-initialize_perf
	.section	.rodata.str1.1
.LC13:
	.string	"w"
.LC14:
	.string	"%s,"
	.text
	.p2align 4
	.globl	open_file
	.type	open_file, @function
open_file:
.LVL187:
.LFB5787:
	.loc 1 603 1 view -0
	.cfi_startproc
	.loc 1 603 1 is_stmt 0 view .LVU673
	endbr64	
	.loc 1 604 5 is_stmt 1 view .LVU674
# sub_64_aligned.c:603: {
	.loc 1 603 1 is_stmt 0 view .LVU675
	pushq	%r13	#
	.cfi_def_cfa_offset 16
	.cfi_offset 13, -16
# sub_64_aligned.c:604:     FILE *file = fopen(filename, "w");
	.loc 1 604 18 view .LVU676
	leaq	.LC13(%rip), %rsi	#, tmp88
# sub_64_aligned.c:603: {
	.loc 1 603 1 view .LVU677
	pushq	%r12	#
	.cfi_def_cfa_offset 24
	.cfi_offset 12, -24
	pushq	%rbp	#
	.cfi_def_cfa_offset 32
	.cfi_offset 6, -32
	pushq	%rbx	#
	.cfi_def_cfa_offset 40
	.cfi_offset 3, -40
	subq	$8, %rsp	#,
	.cfi_def_cfa_offset 48
# sub_64_aligned.c:604:     FILE *file = fopen(filename, "w");
	.loc 1 604 18 view .LVU678
	call	fopen@PLT	#
.LVL188:
	.loc 1 606 5 is_stmt 1 view .LVU679
# sub_64_aligned.c:606:     if (file == NULL)
	.loc 1 606 8 is_stmt 0 view .LVU680
	testq	%rax, %rax	# <retval>
	je	.L139	#,
	leaq	event_names(%rip), %rbx	#, ivtmp.177
	movq	%rax, %r12	# tmp94, <retval>
	leaq	.LC14(%rip), %rbp	#, tmp92
	leaq	48(%rbx), %r13	#, _18
.LVL189:
	.p2align 4,,10
	.p2align 3
.L136:
.LBB323:
	.loc 1 615 9 is_stmt 1 discriminator 3 view .LVU681
.LBB324:
.LBI324:
	.loc 6 103 1 discriminator 3 view .LVU682
.LBB325:
	.loc 6 105 3 discriminator 3 view .LVU683
# /usr/include/x86_64-linux-gnu/bits/stdio2.h:105:   return __fprintf_chk (__stream, __USE_FORTIFY_LEVEL - 1, __fmt,
	.loc 6 105 10 is_stmt 0 discriminator 3 view .LVU684
	movq	(%rbx), %rcx	# MEM[(const char * *)_12],
	movq	%rbp, %rdx	# tmp92,
	movl	$1, %esi	#,
	movq	%r12, %rdi	# <retval>,
	xorl	%eax, %eax	#
.LBE325:
.LBE324:
# sub_64_aligned.c:613:     for (int j = 0; j < MAX_EVENTS; j++)
	.loc 1 613 23 discriminator 3 view .LVU685
	addq	$8, %rbx	#, ivtmp.177
.LVL190:
.LBB327:
.LBB326:
# /usr/include/x86_64-linux-gnu/bits/stdio2.h:105:   return __fprintf_chk (__stream, __USE_FORTIFY_LEVEL - 1, __fmt,
	.loc 6 105 10 discriminator 3 view .LVU686
	call	__fprintf_chk@PLT	#
.LVL191:
	.loc 6 105 10 discriminator 3 view .LVU687
.LBE326:
.LBE327:
	.loc 1 613 38 is_stmt 1 discriminator 3 view .LVU688
	.loc 1 613 23 discriminator 3 view .LVU689
	cmpq	%r13, %rbx	# _18, ivtmp.177
	jne	.L136	#,
.LBE323:
	.loc 1 617 5 view .LVU690
.LVL192:
.LBB328:
.LBI328:
	.loc 6 103 1 view .LVU691
.LBB329:
	.loc 6 105 3 view .LVU692
# /usr/include/x86_64-linux-gnu/bits/stdio2.h:105:   return __fprintf_chk (__stream, __USE_FORTIFY_LEVEL - 1, __fmt,
	.loc 6 105 10 is_stmt 0 view .LVU693
	movq	%r12, %rsi	# <retval>,
	movl	$10, %edi	#,
	call	fputc@PLT	#
.LVL193:
	.loc 6 105 10 view .LVU694
.LBE329:
.LBE328:
	.loc 1 618 5 is_stmt 1 view .LVU695
# sub_64_aligned.c:619: }
	.loc 1 619 1 is_stmt 0 view .LVU696
	addq	$8, %rsp	#,
	.cfi_remember_state
	.cfi_def_cfa_offset 40
	movq	%r12, %rax	# <retval>,
	popq	%rbx	#
	.cfi_def_cfa_offset 32
	popq	%rbp	#
	.cfi_def_cfa_offset 24
	popq	%r12	#
	.cfi_def_cfa_offset 16
.LVL194:
	.loc 1 619 1 view .LVU697
	popq	%r13	#
	.cfi_def_cfa_offset 8
	ret	
.L139:
	.cfi_restore_state
	.loc 1 619 1 view .LVU698
	call	open_file.part.0	#
.LVL195:
	.loc 1 619 1 view .LVU699
	.cfi_endproc
.LFE5787:
	.size	open_file, .-open_file
	.section	.rodata.str1.1
.LC15:
	.string	"Error reading counter value"
	.text
	.p2align 4
	.globl	read_perf
	.type	read_perf, @function
read_perf:
.LVL196:
.LFB5788:
	.loc 1 622 1 is_stmt 1 view -0
	.cfi_startproc
	.loc 1 622 1 is_stmt 0 view .LVU701
	endbr64	
	.loc 1 623 5 is_stmt 1 view .LVU702
.LBB338:
	.loc 1 623 10 view .LVU703
.LVL197:
	.loc 1 623 23 view .LVU704
.LBE338:
# sub_64_aligned.c:622: {
	.loc 1 622 1 is_stmt 0 view .LVU705
	pushq	%r12	#
	.cfi_def_cfa_offset 16
	.cfi_offset 12, -16
	pushq	%rbp	#
	.cfi_def_cfa_offset 24
	.cfi_offset 6, -24
	movq	%rdi, %rbp	# tmp91, ivtmp.188
	pushq	%rbx	#
	.cfi_def_cfa_offset 32
	.cfi_offset 3, -32
	leaq	fd(%rip), %rbx	#, ivtmp.187
	leaq	24(%rbx), %r12	#, _7
.LVL198:
	.p2align 4,,10
	.p2align 3
.L142:
.LBB341:
	.loc 1 625 9 is_stmt 1 view .LVU706
.LBB339:
.LBI339:
	.loc 3 36 1 view .LVU707
.LBB340:
	.loc 3 38 3 view .LVU708
# /usr/include/x86_64-linux-gnu/bits/unistd.h:38:   return __glibc_fortify (read, __nbytes, sizeof (char),
	.loc 3 38 10 is_stmt 0 view .LVU709
	movl	(%rbx), %edi	# MEM[(int *)_13],
	movl	$8, %edx	#,
	movq	%rbp, %rsi	# ivtmp.188,
	call	read@PLT	#
.LVL199:
	.loc 3 38 10 view .LVU710
.LBE340:
.LBE339:
# sub_64_aligned.c:625:         if (read(fd[j], &values[j], sizeof(uint64_t)) == -1)
	.loc 1 625 12 view .LVU711
	cmpq	$-1, %rax	#, tmp92
	je	.L145	#,
	.loc 1 623 38 is_stmt 1 discriminator 2 view .LVU712
.LVL200:
	.loc 1 623 23 discriminator 2 view .LVU713
	addq	$4, %rbx	#, ivtmp.187
.LVL201:
	.loc 1 623 23 is_stmt 0 discriminator 2 view .LVU714
	addq	$8, %rbp	#, ivtmp.188
	cmpq	%r12, %rbx	# _7, ivtmp.187
	jne	.L142	#,
.LBE341:
# sub_64_aligned.c:631: }
	.loc 1 631 1 view .LVU715
	popq	%rbx	#
	.cfi_remember_state
	.cfi_def_cfa_offset 24
.LVL202:
	.loc 1 631 1 view .LVU716
	popq	%rbp	#
	.cfi_def_cfa_offset 16
	popq	%r12	#
	.cfi_def_cfa_offset 8
	ret	
.LVL203:
.L145:
	.cfi_restore_state
.LBB342:
.LBI342:
	.loc 1 621 6 is_stmt 1 view .LVU717
.LBB343:
	.loc 1 627 13 view .LVU718
	leaq	.LC15(%rip), %rdi	#, tmp90
	call	perror@PLT	#
.LVL204:
	.loc 1 628 13 view .LVU719
	movl	$1, %edi	#,
	call	exit@PLT	#
.LVL205:
.LBE343:
.LBE342:
	.cfi_endproc
.LFE5788:
	.size	read_perf, .-read_perf
	.section	.rodata.str1.1
.LC16:
	.string	"%llu,"
	.text
	.p2align 4
	.globl	write_perf
	.type	write_perf, @function
write_perf:
.LVL206:
.LFB5789:
	.loc 1 634 1 view -0
	.cfi_startproc
	.loc 1 634 1 is_stmt 0 view .LVU721
	endbr64	
	pushq	%r13	#
	.cfi_def_cfa_offset 16
	.cfi_offset 13, -16
	leaq	48(%rsi), %r13	#, _20
	pushq	%r12	#
	.cfi_def_cfa_offset 24
	.cfi_offset 12, -24
	leaq	.LC16(%rip), %r12	#, tmp89
	pushq	%rbp	#
	.cfi_def_cfa_offset 32
	.cfi_offset 6, -32
	movq	%rdi, %rbp	# tmp90, file
	.loc 1 635 5 is_stmt 1 view .LVU722
.LBB349:
	.loc 1 635 10 view .LVU723
.LVL207:
	.loc 1 635 23 view .LVU724
.LBE349:
# sub_64_aligned.c:634: {
	.loc 1 634 1 is_stmt 0 view .LVU725
	pushq	%rbx	#
	.cfi_def_cfa_offset 40
	.cfi_offset 3, -40
	movq	%rsi, %rbx	# tmp91, ivtmp.198
	subq	$8, %rsp	#,
	.cfi_def_cfa_offset 48
.LVL208:
	.p2align 4,,10
	.p2align 3
.L147:
.LBB354:
	.loc 1 637 9 is_stmt 1 discriminator 3 view .LVU726
.LBB350:
.LBI350:
	.loc 6 103 1 discriminator 3 view .LVU727
.LBB351:
	.loc 6 105 3 discriminator 3 view .LVU728
# /usr/include/x86_64-linux-gnu/bits/stdio2.h:105:   return __fprintf_chk (__stream, __USE_FORTIFY_LEVEL - 1, __fmt,
	.loc 6 105 10 is_stmt 0 discriminator 3 view .LVU729
	movq	(%rbx), %rcx	# MEM[(long long int *)_5],
	movq	%r12, %rdx	# tmp89,
	movl	$1, %esi	#,
	movq	%rbp, %rdi	# file,
	xorl	%eax, %eax	#
.LBE351:
.LBE350:
# sub_64_aligned.c:635:     for (int j = 0; j < MAX_EVENTS; j++)
	.loc 1 635 23 discriminator 3 view .LVU730
	addq	$8, %rbx	#, ivtmp.198
.LVL209:
.LBB353:
.LBB352:
# /usr/include/x86_64-linux-gnu/bits/stdio2.h:105:   return __fprintf_chk (__stream, __USE_FORTIFY_LEVEL - 1, __fmt,
	.loc 6 105 10 discriminator 3 view .LVU731
	call	__fprintf_chk@PLT	#
.LVL210:
	.loc 6 105 10 discriminator 3 view .LVU732
.LBE352:
.LBE353:
	.loc 1 635 38 is_stmt 1 discriminator 3 view .LVU733
	.loc 1 635 23 discriminator 3 view .LVU734
	cmpq	%r13, %rbx	# _20, ivtmp.198
	jne	.L147	#,
.LBE354:
	.loc 1 639 5 view .LVU735
.LVL211:
.LBB355:
.LBI355:
	.loc 6 103 1 view .LVU736
.LBB356:
	.loc 6 105 3 view .LVU737
.LBE356:
.LBE355:
# sub_64_aligned.c:642: }
	.loc 1 642 1 is_stmt 0 view .LVU738
	addq	$8, %rsp	#,
	.cfi_def_cfa_offset 40
.LBB359:
.LBB357:
# /usr/include/x86_64-linux-gnu/bits/stdio2.h:105:   return __fprintf_chk (__stream, __USE_FORTIFY_LEVEL - 1, __fmt,
	.loc 6 105 10 view .LVU739
	movq	%rbp, %rsi	# file,
	movl	$10, %edi	#,
.LBE357:
.LBE359:
# sub_64_aligned.c:642: }
	.loc 1 642 1 view .LVU740
	popq	%rbx	#
	.cfi_def_cfa_offset 32
	popq	%rbp	#
	.cfi_def_cfa_offset 24
.LVL212:
	.loc 1 642 1 view .LVU741
	popq	%r12	#
	.cfi_def_cfa_offset 16
	popq	%r13	#
	.cfi_def_cfa_offset 8
.LVL213:
.LBB360:
.LBB358:
# /usr/include/x86_64-linux-gnu/bits/stdio2.h:105:   return __fprintf_chk (__stream, __USE_FORTIFY_LEVEL - 1, __fmt,
	.loc 6 105 10 view .LVU742
	jmp	fputc@PLT	#
.LVL214:
	.loc 6 105 10 view .LVU743
.LBE358:
.LBE360:
	.cfi_endproc
.LFE5789:
	.size	write_perf, .-write_perf
	.p2align 4
	.globl	start_perf
	.type	start_perf, @function
start_perf:
.LFB5790:
	.loc 1 645 1 is_stmt 1 view -0
	.cfi_startproc
	endbr64	
	.loc 1 646 5 view .LVU745
.LBB362:
	.loc 1 646 10 view .LVU746
.LVL215:
	.loc 1 646 23 view .LVU747
.LBE362:
# sub_64_aligned.c:645: {
	.loc 1 645 1 is_stmt 0 view .LVU748
	pushq	%rbp	#
	.cfi_def_cfa_offset 16
	.cfi_offset 6, -16
	pushq	%rbx	#
	.cfi_def_cfa_offset 24
	.cfi_offset 3, -24
	leaq	fd(%rip), %rbx	#, ivtmp.208
	leaq	24(%rbx), %rbp	#, _17
	subq	$8, %rsp	#,
	.cfi_def_cfa_offset 32
.LVL216:
	.p2align 4,,10
	.p2align 3
.L151:
.LBB363:
	.loc 1 648 9 is_stmt 1 discriminator 3 view .LVU749
	movl	(%rbx), %edi	# MEM[(int *)_14],
	xorl	%edx, %edx	#
	movl	$9219, %esi	#,
	xorl	%eax, %eax	#
# sub_64_aligned.c:646:     for (int j = 0; j < MAX_EVENTS; j++)
	.loc 1 646 23 is_stmt 0 discriminator 3 view .LVU750
	addq	$4, %rbx	#, ivtmp.208
.LVL217:
# sub_64_aligned.c:648:         ioctl(fd[j], PERF_EVENT_IOC_RESET, 0);
	.loc 1 648 9 discriminator 3 view .LVU751
	call	ioctl@PLT	#
.LVL218:
	.loc 1 649 9 is_stmt 1 discriminator 3 view .LVU752
	movl	-4(%rbx), %edi	# MEM[(int *)_14],
	xorl	%edx, %edx	#
	movl	$9216, %esi	#,
	xorl	%eax, %eax	#
	call	ioctl@PLT	#
.LVL219:
	.loc 1 646 38 discriminator 3 view .LVU753
	.loc 1 646 23 discriminator 3 view .LVU754
	cmpq	%rbp, %rbx	# _17, ivtmp.208
	jne	.L151	#,
.LBE363:
# sub_64_aligned.c:651: }
	.loc 1 651 1 is_stmt 0 view .LVU755
	addq	$8, %rsp	#,
	.cfi_def_cfa_offset 24
	popq	%rbx	#
	.cfi_def_cfa_offset 16
	popq	%rbp	#
	.cfi_def_cfa_offset 8
	ret	
	.cfi_endproc
.LFE5790:
	.size	start_perf, .-start_perf
	.section	.rodata.str1.1
.LC17:
	.string	"Error disabling counter"
	.text
	.p2align 4
	.globl	stop_perf
	.type	stop_perf, @function
stop_perf:
.LFB5791:
	.loc 1 654 1 is_stmt 1 view -0
	.cfi_startproc
	endbr64	
	.loc 1 655 5 view .LVU757
.LBB369:
	.loc 1 655 10 view .LVU758
.LVL220:
	.loc 1 655 23 view .LVU759
.LBE369:
# sub_64_aligned.c:654: {
	.loc 1 654 1 is_stmt 0 view .LVU760
	pushq	%rbp	#
	.cfi_def_cfa_offset 16
	.cfi_offset 6, -16
	pushq	%rbx	#
	.cfi_def_cfa_offset 24
	.cfi_offset 3, -24
	leaq	fd(%rip), %rbx	#, ivtmp.218
	leaq	24(%rbx), %rbp	#, _17
	subq	$8, %rsp	#,
	.cfi_def_cfa_offset 32
.LVL221:
	.p2align 4,,10
	.p2align 3
.L156:
.LBB370:
	.loc 1 657 9 is_stmt 1 view .LVU761
# sub_64_aligned.c:657:         if (ioctl(fd[j], PERF_EVENT_IOC_DISABLE, 0) == -1)
	.loc 1 657 13 is_stmt 0 view .LVU762
	movl	(%rbx), %edi	# MEM[(int *)_15],
	xorl	%edx, %edx	#
	xorl	%eax, %eax	#
	movl	$9217, %esi	#,
	call	ioctl@PLT	#
.LVL222:
# sub_64_aligned.c:657:         if (ioctl(fd[j], PERF_EVENT_IOC_DISABLE, 0) == -1)
	.loc 1 657 12 view .LVU763
	cmpl	$-1, %eax	#, tmp88
	je	.L159	#,
	.loc 1 655 38 is_stmt 1 discriminator 2 view .LVU764
.LVL223:
	.loc 1 655 23 discriminator 2 view .LVU765
	addq	$4, %rbx	#, ivtmp.218
.LVL224:
	.loc 1 655 23 is_stmt 0 discriminator 2 view .LVU766
	cmpq	%rbp, %rbx	# _17, ivtmp.218
	jne	.L156	#,
.LBE370:
# sub_64_aligned.c:663: }
	.loc 1 663 1 view .LVU767
	addq	$8, %rsp	#,
	.cfi_remember_state
	.cfi_def_cfa_offset 24
	popq	%rbx	#
	.cfi_def_cfa_offset 16
.LVL225:
	.loc 1 663 1 view .LVU768
	popq	%rbp	#
	.cfi_def_cfa_offset 8
	ret	
.LVL226:
.L159:
	.cfi_restore_state
.LBB371:
.LBI371:
	.loc 1 653 6 is_stmt 1 view .LVU769
.LBB372:
	.loc 1 659 13 view .LVU770
	leaq	.LC17(%rip), %rdi	#, tmp87
	call	perror@PLT	#
.LVL227:
	.loc 1 660 13 view .LVU771
	movl	$1, %edi	#,
	call	exit@PLT	#
.LVL228:
.LBE372:
.LBE371:
	.cfi_endproc
.LFE5791:
	.size	stop_perf, .-stop_perf
	.section	.rodata.str1.1
.LC18:
	.string	"Error getting start time"
	.text
	.p2align 4
	.globl	start_timespec
	.type	start_timespec, @function
start_timespec:
.LVL229:
.LFB5792:
	.loc 1 666 1 view -0
	.cfi_startproc
	.loc 1 666 1 is_stmt 0 view .LVU773
	endbr64	
	.loc 1 667 5 is_stmt 1 view .LVU774
	.loc 1 668 5 view .LVU775
# sub_64_aligned.c:667:     start->tv_sec = 0;
	.loc 1 667 19 is_stmt 0 view .LVU776
	pxor	%xmm0, %xmm0	# tmp84
# sub_64_aligned.c:666: {
	.loc 1 666 1 view .LVU777
	subq	$8, %rsp	#,
	.cfi_def_cfa_offset 16
# sub_64_aligned.c:666: {
	.loc 1 666 1 view .LVU778
	movq	%rdi, %rsi	# tmp86, start
# sub_64_aligned.c:667:     start->tv_sec = 0;
	.loc 1 667 19 view .LVU779
	movups	%xmm0, (%rdi)	# tmp84, MEM <vector(2) long int> [(long int *)start_3(D)]
	.loc 1 669 5 is_stmt 1 view .LVU780
# sub_64_aligned.c:669:     if (clock_gettime(CLOCK_MONOTONIC_RAW, start) == -1)
	.loc 1 669 9 is_stmt 0 view .LVU781
	movl	$4, %edi	#,
.LVL230:
	.loc 1 669 9 view .LVU782
	call	clock_gettime@PLT	#
.LVL231:
# sub_64_aligned.c:669:     if (clock_gettime(CLOCK_MONOTONIC_RAW, start) == -1)
	.loc 1 669 8 view .LVU783
	cmpl	$-1, %eax	#, tmp87
	je	.L163	#,
# sub_64_aligned.c:674: }
	.loc 1 674 1 view .LVU784
	addq	$8, %rsp	#,
	.cfi_remember_state
	.cfi_def_cfa_offset 8
	ret	
.L163:
	.cfi_restore_state
	.loc 1 671 9 is_stmt 1 view .LVU785
	leaq	.LC18(%rip), %rdi	#, tmp85
	call	perror@PLT	#
.LVL232:
	.loc 1 672 9 view .LVU786
	movl	$1, %edi	#,
	call	exit@PLT	#
.LVL233:
	.cfi_endproc
.LFE5792:
	.size	start_timespec, .-start_timespec
	.section	.rodata.str1.1
.LC19:
	.string	"Error getting end time"
	.text
	.p2align 4
	.globl	stop_timespec
	.type	stop_timespec, @function
stop_timespec:
.LVL234:
.LFB5793:
	.loc 1 687 1 view -0
	.cfi_startproc
	.loc 1 687 1 is_stmt 0 view .LVU788
	endbr64	
	.loc 1 689 5 is_stmt 1 view .LVU789
	.loc 1 690 5 view .LVU790
# sub_64_aligned.c:689:     end->tv_sec = 0;
	.loc 1 689 17 is_stmt 0 view .LVU791
	pxor	%xmm0, %xmm0	# tmp84
# sub_64_aligned.c:687: {
	.loc 1 687 1 view .LVU792
	subq	$8, %rsp	#,
	.cfi_def_cfa_offset 16
# sub_64_aligned.c:687: {
	.loc 1 687 1 view .LVU793
	movq	%rdi, %rsi	# tmp86, end
# sub_64_aligned.c:689:     end->tv_sec = 0;
	.loc 1 689 17 view .LVU794
	movups	%xmm0, (%rdi)	# tmp84, MEM <vector(2) long int> [(long int *)end_3(D)]
	.loc 1 691 5 is_stmt 1 view .LVU795
# sub_64_aligned.c:691:     if (clock_gettime(CLOCK_MONOTONIC_RAW, end) == -1)
	.loc 1 691 9 is_stmt 0 view .LVU796
	movl	$4, %edi	#,
.LVL235:
	.loc 1 691 9 view .LVU797
	call	clock_gettime@PLT	#
.LVL236:
# sub_64_aligned.c:691:     if (clock_gettime(CLOCK_MONOTONIC_RAW, end) == -1)
	.loc 1 691 8 view .LVU798
	cmpl	$-1, %eax	#, tmp87
	je	.L167	#,
# sub_64_aligned.c:696: }
	.loc 1 696 1 view .LVU799
	addq	$8, %rsp	#,
	.cfi_remember_state
	.cfi_def_cfa_offset 8
	ret	
.L167:
	.cfi_restore_state
	.loc 1 693 9 is_stmt 1 view .LVU800
	leaq	.LC19(%rip), %rdi	#, tmp85
	call	perror@PLT	#
.LVL237:
	.loc 1 694 9 view .LVU801
	movl	$1, %edi	#,
	call	exit@PLT	#
.LVL238:
	.cfi_endproc
.LFE5793:
	.size	stop_timespec, .-stop_timespec
	.p2align 4
	.globl	calculate_time
	.type	calculate_time, @function
calculate_time:
.LVL239:
.LFB5794:
	.loc 1 699 1 view -0
	.cfi_startproc
	.loc 1 699 1 is_stmt 0 view .LVU803
	endbr64	
	.loc 1 701 5 is_stmt 1 view .LVU804
# sub_64_aligned.c:701:     long long seconds = end.tv_sec - start.tv_sec;
	.loc 1 701 15 is_stmt 0 view .LVU805
	subq	%rdi, %rdx	# tmp105, seconds
.LVL240:
	.loc 1 702 5 is_stmt 1 view .LVU806
	.loc 1 705 5 view .LVU807
# sub_64_aligned.c:705:     if (nanoseconds < 0)
	.loc 1 705 8 is_stmt 0 view .LVU808
	subq	%rsi, %rcx	# tmp106, nanoseconds
.LVL241:
	.loc 1 705 8 view .LVU809
	jns	.L169	#,
	.loc 1 707 9 is_stmt 1 view .LVU810
# sub_64_aligned.c:707:         seconds--;
	.loc 1 707 16 is_stmt 0 view .LVU811
	subq	$1, %rdx	#, seconds
.LVL242:
	.loc 1 708 9 is_stmt 1 view .LVU812
# sub_64_aligned.c:708:         nanoseconds += 1000000000; // 1 second in nanoseconds
	.loc 1 708 21 is_stmt 0 view .LVU813
	addq	$1000000000, %rcx	#, nanoseconds
.LVL243:
.L169:
	.loc 1 712 5 is_stmt 1 view .LVU814
# sub_64_aligned.c:712:     return (seconds * 1000000000LL) + nanoseconds;
	.loc 1 712 21 is_stmt 0 view .LVU815
	imulq	$1000000000, %rdx, %rdx	#, seconds, tmp97
.LVL244:
# sub_64_aligned.c:712:     return (seconds * 1000000000LL) + nanoseconds;
	.loc 1 712 37 view .LVU816
	pxor	%xmm0, %xmm0	# tmp96
	addq	%rcx, %rdx	# nanoseconds, tmp98
	cvtsi2sdq	%rdx, %xmm0	# tmp98, tmp96
# sub_64_aligned.c:713: }
	.loc 1 713 1 view .LVU817
	ret	
	.cfi_endproc
.LFE5794:
	.size	calculate_time, .-calculate_time
	.p2align 4
	.globl	check_result
	.type	check_result, @function
check_result:
.LVL245:
.LFB5795:
	.loc 1 716 1 is_stmt 1 view -0
	.cfi_startproc
	.loc 1 716 1 is_stmt 0 view .LVU819
	endbr64	
	.loc 1 718 5 is_stmt 1 view .LVU820
# sub_64_aligned.c:716: {
	.loc 1 716 1 is_stmt 0 view .LVU821
	pushq	%r13	#
	.cfi_def_cfa_offset 16
	.cfi_offset 13, -16
	pushq	%r12	#
	.cfi_def_cfa_offset 24
	.cfi_offset 12, -24
	movl	%edx, %r12d	# tmp128, result_size
	pushq	%rbp	#
	.cfi_def_cfa_offset 32
	.cfi_offset 6, -32
	movq	%rsi, %rbp	# tmp127, result_gmp
	pushq	%rbx	#
	.cfi_def_cfa_offset 40
	.cfi_offset 3, -40
	movq	%rdi, %rbx	# tmp126, result
	subq	$8, %rsp	#,
	.cfi_def_cfa_offset 48
# sub_64_aligned.c:718:     if (strlen(result) != strlen(result_gmp))
	.loc 1 718 9 view .LVU822
	call	strlen@PLT	#
.LVL246:
# sub_64_aligned.c:718:     if (strlen(result) != strlen(result_gmp))
	.loc 1 718 27 view .LVU823
	movq	%rbp, %rdi	# result_gmp,
# sub_64_aligned.c:718:     if (strlen(result) != strlen(result_gmp))
	.loc 1 718 9 view .LVU824
	movq	%rax, %r13	# tmp129, tmp93
# sub_64_aligned.c:718:     if (strlen(result) != strlen(result_gmp))
	.loc 1 718 27 view .LVU825
	call	strlen@PLT	#
.LVL247:
	movq	%rax, %r8	#, tmp130
# sub_64_aligned.c:723:         return false;
	.loc 1 723 16 view .LVU826
	xorl	%eax, %eax	# <retval>
# sub_64_aligned.c:718:     if (strlen(result) != strlen(result_gmp))
	.loc 1 718 8 view .LVU827
	cmpq	%r8, %r13	# tmp130, tmp93
	jne	.L170	#,
.LVL248:
.LBB373:
	.loc 1 725 23 is_stmt 1 view .LVU828
	testl	%r12d, %r12d	# result_size
	jle	.L174	#,
	movslq	%r12d, %rdx	# result_size, _20
	xorl	%r9d, %r9d	# ivtmp.237
	andl	$7, %r12d	#, tmp103
.LVL249:
	.loc 1 725 23 is_stmt 0 view .LVU829
	je	.L172	#,
	cmpq	$1, %r12	#, tmp103
	je	.L198	#,
	cmpq	$2, %r12	#, tmp103
	je	.L199	#,
	cmpq	$3, %r12	#, tmp103
	je	.L200	#,
	cmpq	$4, %r12	#, tmp103
	je	.L201	#,
	cmpq	$5, %r12	#, tmp103
	je	.L202	#,
	cmpq	$6, %r12	#, tmp103
	je	.L203	#,
	.loc 1 727 9 is_stmt 1 view .LVU830
# sub_64_aligned.c:727:         if (result[i] != result_gmp[i])
	.loc 1 727 12 is_stmt 0 view .LVU831
	movzbl	0(%rbp), %eax	# MEM[(char *)result_gmp_12(D) + ivtmp.237_16 * 1], tmp134
	cmpb	%al, (%rbx)	# tmp134, MEM[(char *)result_11(D) + ivtmp.237_16 * 1]
	jne	.L175	#,
	.loc 1 725 39 is_stmt 1 view .LVU832
.LVL250:
	.loc 1 725 23 view .LVU833
	.loc 1 725 23 is_stmt 0 view .LVU834
	movl	$1, %r9d	#, ivtmp.237
.L203:
	.loc 1 727 9 is_stmt 1 view .LVU835
# sub_64_aligned.c:727:         if (result[i] != result_gmp[i])
	.loc 1 727 12 is_stmt 0 view .LVU836
	movzbl	0(%rbp,%r9), %edi	# MEM[(char *)result_gmp_12(D) + ivtmp.237_16 * 1], tmp135
	cmpb	%dil, (%rbx,%r9)	# tmp135, MEM[(char *)result_11(D) + ivtmp.237_16 * 1]
	jne	.L175	#,
	.loc 1 725 39 is_stmt 1 view .LVU837
	.loc 1 725 23 view .LVU838
.LVL251:
	.loc 1 725 23 is_stmt 0 view .LVU839
	addq	$1, %r9	#, ivtmp.237
.LVL252:
.L202:
	.loc 1 727 9 is_stmt 1 view .LVU840
# sub_64_aligned.c:727:         if (result[i] != result_gmp[i])
	.loc 1 727 12 is_stmt 0 view .LVU841
	movzbl	0(%rbp,%r9), %ecx	# MEM[(char *)result_gmp_12(D) + ivtmp.237_16 * 1], tmp136
	cmpb	%cl, (%rbx,%r9)	# tmp136, MEM[(char *)result_11(D) + ivtmp.237_16 * 1]
	jne	.L175	#,
	.loc 1 725 39 is_stmt 1 view .LVU842
	.loc 1 725 23 view .LVU843
.LVL253:
	.loc 1 725 23 is_stmt 0 view .LVU844
	addq	$1, %r9	#, ivtmp.237
.LVL254:
.L201:
	.loc 1 727 9 is_stmt 1 view .LVU845
# sub_64_aligned.c:727:         if (result[i] != result_gmp[i])
	.loc 1 727 12 is_stmt 0 view .LVU846
	movzbl	0(%rbp,%r9), %esi	# MEM[(char *)result_gmp_12(D) + ivtmp.237_16 * 1], tmp137
	cmpb	%sil, (%rbx,%r9)	# tmp137, MEM[(char *)result_11(D) + ivtmp.237_16 * 1]
	jne	.L175	#,
	.loc 1 725 39 is_stmt 1 view .LVU847
	.loc 1 725 23 view .LVU848
.LVL255:
	.loc 1 725 23 is_stmt 0 view .LVU849
	addq	$1, %r9	#, ivtmp.237
.LVL256:
.L200:
	.loc 1 727 9 is_stmt 1 view .LVU850
# sub_64_aligned.c:727:         if (result[i] != result_gmp[i])
	.loc 1 727 12 is_stmt 0 view .LVU851
	movzbl	0(%rbp,%r9), %r10d	# MEM[(char *)result_gmp_12(D) + ivtmp.237_16 * 1], tmp138
	cmpb	%r10b, (%rbx,%r9)	# tmp138, MEM[(char *)result_11(D) + ivtmp.237_16 * 1]
	jne	.L175	#,
	.loc 1 725 39 is_stmt 1 view .LVU852
	.loc 1 725 23 view .LVU853
.LVL257:
	.loc 1 725 23 is_stmt 0 view .LVU854
	addq	$1, %r9	#, ivtmp.237
.LVL258:
.L199:
	.loc 1 727 9 is_stmt 1 view .LVU855
# sub_64_aligned.c:727:         if (result[i] != result_gmp[i])
	.loc 1 727 12 is_stmt 0 view .LVU856
	movzbl	0(%rbp,%r9), %r11d	# MEM[(char *)result_gmp_12(D) + ivtmp.237_16 * 1], tmp139
	cmpb	%r11b, (%rbx,%r9)	# tmp139, MEM[(char *)result_11(D) + ivtmp.237_16 * 1]
	jne	.L175	#,
	.loc 1 725 39 is_stmt 1 view .LVU857
	.loc 1 725 23 view .LVU858
.LVL259:
	.loc 1 725 23 is_stmt 0 view .LVU859
	addq	$1, %r9	#, ivtmp.237
.LVL260:
.L198:
	.loc 1 727 9 is_stmt 1 view .LVU860
# sub_64_aligned.c:727:         if (result[i] != result_gmp[i])
	.loc 1 727 12 is_stmt 0 view .LVU861
	movzbl	0(%rbp,%r9), %r12d	# MEM[(char *)result_gmp_12(D) + ivtmp.237_16 * 1], tmp140
	cmpb	%r12b, (%rbx,%r9)	# tmp140, MEM[(char *)result_11(D) + ivtmp.237_16 * 1]
	jne	.L175	#,
	.loc 1 725 39 is_stmt 1 view .LVU862
	.loc 1 725 23 view .LVU863
.LVL261:
	.loc 1 725 23 is_stmt 0 view .LVU864
	addq	$1, %r9	#, ivtmp.237
.LVL262:
	.loc 1 725 23 view .LVU865
	cmpq	%rdx, %r9	# _20, ivtmp.237
	je	.L174	#,
.LVL263:
.L172:
	.loc 1 727 9 is_stmt 1 view .LVU866
# sub_64_aligned.c:727:         if (result[i] != result_gmp[i])
	.loc 1 727 12 is_stmt 0 view .LVU867
	movzbl	0(%rbp,%r9), %r13d	# MEM[(char *)result_gmp_12(D) + ivtmp.237_16 * 1], tmp132
	cmpb	%r13b, (%rbx,%r9)	# tmp132, MEM[(char *)result_11(D) + ivtmp.237_16 * 1]
	jne	.L175	#,
	.loc 1 725 39 is_stmt 1 discriminator 2 view .LVU868
	.loc 1 725 23 discriminator 2 view .LVU869
	.loc 1 727 9 discriminator 2 view .LVU870
# sub_64_aligned.c:727:         if (result[i] != result_gmp[i])
	.loc 1 727 12 is_stmt 0 discriminator 2 view .LVU871
	movzbl	1(%rbp,%r9), %r8d	# MEM[(char *)result_gmp_12(D) + ivtmp.237_16 * 1], tmp133
	cmpb	%r8b, 1(%rbx,%r9)	# tmp133, MEM[(char *)result_11(D) + ivtmp.237_16 * 1]
	jne	.L175	#,
	.loc 1 725 39 is_stmt 1 view .LVU872
	.loc 1 725 23 view .LVU873
	.loc 1 727 9 view .LVU874
# sub_64_aligned.c:727:         if (result[i] != result_gmp[i])
	.loc 1 727 12 is_stmt 0 view .LVU875
	movzbl	2(%rbp,%r9), %eax	# MEM[(char *)result_gmp_12(D) + ivtmp.237_16 * 1], tmp141
	cmpb	%al, 2(%rbx,%r9)	# tmp141, MEM[(char *)result_11(D) + ivtmp.237_16 * 1]
	jne	.L175	#,
	.loc 1 725 39 is_stmt 1 view .LVU876
	.loc 1 725 23 view .LVU877
	.loc 1 727 9 view .LVU878
# sub_64_aligned.c:727:         if (result[i] != result_gmp[i])
	.loc 1 727 12 is_stmt 0 view .LVU879
	movzbl	3(%rbp,%r9), %edi	# MEM[(char *)result_gmp_12(D) + ivtmp.237_16 * 1], tmp142
	cmpb	%dil, 3(%rbx,%r9)	# tmp142, MEM[(char *)result_11(D) + ivtmp.237_16 * 1]
	jne	.L175	#,
	.loc 1 725 39 is_stmt 1 view .LVU880
	.loc 1 725 23 view .LVU881
	.loc 1 727 9 view .LVU882
# sub_64_aligned.c:727:         if (result[i] != result_gmp[i])
	.loc 1 727 12 is_stmt 0 view .LVU883
	movzbl	4(%rbp,%r9), %ecx	# MEM[(char *)result_gmp_12(D) + ivtmp.237_16 * 1], tmp143
	cmpb	%cl, 4(%rbx,%r9)	# tmp143, MEM[(char *)result_11(D) + ivtmp.237_16 * 1]
	jne	.L175	#,
	.loc 1 725 39 is_stmt 1 view .LVU884
	.loc 1 725 23 view .LVU885
	.loc 1 727 9 view .LVU886
# sub_64_aligned.c:727:         if (result[i] != result_gmp[i])
	.loc 1 727 12 is_stmt 0 view .LVU887
	movzbl	5(%rbp,%r9), %esi	# MEM[(char *)result_gmp_12(D) + ivtmp.237_16 * 1], tmp144
	cmpb	%sil, 5(%rbx,%r9)	# tmp144, MEM[(char *)result_11(D) + ivtmp.237_16 * 1]
	jne	.L175	#,
	.loc 1 725 39 is_stmt 1 view .LVU888
	.loc 1 725 23 view .LVU889
	.loc 1 727 9 view .LVU890
# sub_64_aligned.c:727:         if (result[i] != result_gmp[i])
	.loc 1 727 12 is_stmt 0 view .LVU891
	movzbl	6(%rbp,%r9), %r10d	# MEM[(char *)result_gmp_12(D) + ivtmp.237_16 * 1], tmp145
	cmpb	%r10b, 6(%rbx,%r9)	# tmp145, MEM[(char *)result_11(D) + ivtmp.237_16 * 1]
	jne	.L175	#,
	.loc 1 725 39 is_stmt 1 view .LVU892
	.loc 1 725 23 view .LVU893
	.loc 1 727 9 view .LVU894
# sub_64_aligned.c:727:         if (result[i] != result_gmp[i])
	.loc 1 727 12 is_stmt 0 view .LVU895
	movzbl	7(%rbp,%r9), %r11d	# MEM[(char *)result_gmp_12(D) + ivtmp.237_16 * 1], tmp146
	cmpb	%r11b, 7(%rbx,%r9)	# tmp146, MEM[(char *)result_11(D) + ivtmp.237_16 * 1]
	jne	.L175	#,
	.loc 1 725 39 is_stmt 1 view .LVU896
	.loc 1 725 23 view .LVU897
	addq	$8, %r9	#, ivtmp.237
	cmpq	%rdx, %r9	# _20, ivtmp.237
	jne	.L172	#,
.LVL264:
.L174:
	.loc 1 725 23 is_stmt 0 view .LVU898
.LBE373:
# sub_64_aligned.c:736:     return true;
	.loc 1 736 12 view .LVU899
	movl	$1, %eax	#, <retval>
.L170:
# sub_64_aligned.c:737: }
	.loc 1 737 1 view .LVU900
	addq	$8, %rsp	#,
	.cfi_remember_state
	.cfi_def_cfa_offset 40
	popq	%rbx	#
	.cfi_def_cfa_offset 32
.LVL265:
	.loc 1 737 1 view .LVU901
	popq	%rbp	#
	.cfi_def_cfa_offset 24
.LVL266:
	.loc 1 737 1 view .LVU902
	popq	%r12	#
	.cfi_def_cfa_offset 16
	popq	%r13	#
	.cfi_def_cfa_offset 8
	ret	
.LVL267:
	.p2align 4,,10
	.p2align 3
.L175:
	.cfi_restore_state
	.loc 1 737 1 view .LVU903
	addq	$8, %rsp	#,
	.cfi_def_cfa_offset 40
# sub_64_aligned.c:723:         return false;
	.loc 1 723 16 view .LVU904
	xorl	%eax, %eax	# <retval>
# sub_64_aligned.c:737: }
	.loc 1 737 1 view .LVU905
	popq	%rbx	#
	.cfi_def_cfa_offset 32
.LVL268:
	.loc 1 737 1 view .LVU906
	popq	%rbp	#
	.cfi_def_cfa_offset 24
.LVL269:
	.loc 1 737 1 view .LVU907
	popq	%r12	#
	.cfi_def_cfa_offset 16
	popq	%r13	#
	.cfi_def_cfa_offset 8
	ret	
	.cfi_endproc
.LFE5795:
	.size	check_result, .-check_result
	.section	.rodata.str1.8
	.align 8
.LC20:
	.string	"Memory allocation failed for a or b\n"
	.text
	.p2align 4
	.globl	generate_no_borrow_propagation
	.type	generate_no_borrow_propagation, @function
generate_no_borrow_propagation:
.LVL270:
.LFB5796:
	.loc 1 745 1 is_stmt 1 view -0
	.cfi_startproc
	.loc 1 745 1 is_stmt 0 view .LVU909
	endbr64	
	pushq	%r15	#
	.cfi_def_cfa_offset 16
	.cfi_offset 15, -16
	movq	%rdi, %r15	# tmp277, a
	pushq	%r14	#
	.cfi_def_cfa_offset 24
	.cfi_offset 14, -24
	movq	%rsi, %r14	# tmp278, b
	pushq	%r13	#
	.cfi_def_cfa_offset 32
	.cfi_offset 13, -32
	pushq	%r12	#
	.cfi_def_cfa_offset 40
	.cfi_offset 12, -40
	movslq	%edx, %r12	# tmp279,
	pushq	%rbp	#
	.cfi_def_cfa_offset 48
	.cfi_offset 6, -48
	pushq	%rbx	#
	.cfi_def_cfa_offset 56
	.cfi_offset 3, -56
	movq	%r12, %rbx	#,
# sub_64_aligned.c:747:     *a = (uint64_t *)_mm_malloc(n * sizeof(uint64_t), 64);
	.loc 1 747 22 view .LVU910
	salq	$3, %r12	#, _2
.LBB382:
.LBB383:
# /usr/lib/gcc/x86_64-linux-gnu/11/include/mm_malloc.h:45:   if (posix_memalign (&__ptr, __alignment, __size) == 0)
	.loc 5 45 7 view .LVU911
	movq	%r12, %rdx	# _2,
.LVL271:
	.loc 5 45 7 view .LVU912
.LBE383:
.LBE382:
# sub_64_aligned.c:745: {
	.loc 1 745 1 view .LVU913
	subq	$88, %rsp	#,
	.cfi_def_cfa_offset 144
# sub_64_aligned.c:745: {
	.loc 1 745 1 view .LVU914
	movq	%rsi, 40(%rsp)	# b, %sfp
.LBB386:
.LBB384:
# /usr/lib/gcc/x86_64-linux-gnu/11/include/mm_malloc.h:45:   if (posix_memalign (&__ptr, __alignment, __size) == 0)
	.loc 5 45 7 view .LVU915
	leaq	64(%rsp), %rdi	#, tmp213
.LVL272:
	.loc 5 45 7 view .LVU916
	movl	$64, %esi	#,
.LVL273:
	.loc 5 45 7 view .LVU917
.LBE384:
.LBE386:
# sub_64_aligned.c:745: {
	.loc 1 745 1 view .LVU918
	movq	%fs:40, %rax	# MEM[(<address-space-1> long unsigned int *)40B], tmp288
	movq	%rax, 72(%rsp)	# tmp288, D.39620
	xorl	%eax, %eax	# tmp288
	.loc 1 747 5 is_stmt 1 view .LVU919
.LVL274:
.LBB387:
.LBI382:
	.loc 5 38 1 view .LVU920
.LBB385:
	.loc 5 40 3 view .LVU921
	.loc 5 41 3 view .LVU922
	.loc 5 43 3 view .LVU923
	.loc 5 45 3 view .LVU924
# /usr/lib/gcc/x86_64-linux-gnu/11/include/mm_malloc.h:45:   if (posix_memalign (&__ptr, __alignment, __size) == 0)
	.loc 5 45 7 is_stmt 0 view .LVU925
	call	posix_memalign@PLT	#
.LVL275:
	.loc 5 45 7 view .LVU926
.LBE385:
.LBE387:
.LBB388:
.LBB389:
	leaq	56(%rsp), %rdi	#, tmp214
	movq	%r12, %rdx	# _2,
	movl	$64, %esi	#,
	testl	%eax, %eax	# tmp280
	movl	$0, %eax	#, tmp276
	cmove	64(%rsp), %rax	# D.39595,, _82
.LVL276:
	.loc 5 45 7 view .LVU927
.LBE389:
.LBE388:
# sub_64_aligned.c:747:     *a = (uint64_t *)_mm_malloc(n * sizeof(uint64_t), 64);
	.loc 1 747 8 view .LVU928
	movq	%rax, (%r15)	# _82, *a_44(D)
	.loc 1 748 5 is_stmt 1 view .LVU929
.LVL277:
.LBB391:
.LBI388:
	.loc 5 38 1 view .LVU930
.LBB390:
	.loc 5 40 3 view .LVU931
	.loc 5 41 3 view .LVU932
	.loc 5 43 3 view .LVU933
	.loc 5 45 3 view .LVU934
# /usr/lib/gcc/x86_64-linux-gnu/11/include/mm_malloc.h:45:   if (posix_memalign (&__ptr, __alignment, __size) == 0)
	.loc 5 45 7 is_stmt 0 view .LVU935
	call	posix_memalign@PLT	#
.LVL278:
	testl	%eax, %eax	# tmp281
	je	.L270	#,
	.loc 5 48 5 is_stmt 1 view .LVU936
.LVL279:
	.loc 5 48 5 is_stmt 0 view .LVU937
.LBE390:
.LBE391:
# sub_64_aligned.c:748:     *b = (uint64_t *)_mm_malloc(n * sizeof(uint64_t), 64);
	.loc 1 748 8 view .LVU938
	movq	40(%rsp), %rdx	# %sfp, b
	movq	$0, (%rdx)	#, *b_47(D)
	.loc 1 750 5 is_stmt 1 view .LVU939
.L228:
	.loc 1 752 9 view .LVU940
	leaq	.LC20(%rip), %rdi	#, tmp219
	call	perror@PLT	#
.LVL280:
	.loc 1 753 9 view .LVU941
	movl	$1, %edi	#,
	call	exit@PLT	#
.LVL281:
	.p2align 4,,10
	.p2align 3
.L270:
	.loc 1 753 9 is_stmt 0 view .LVU942
	movq	56(%rsp), %rcx	# D.39589, _70
.LVL282:
# sub_64_aligned.c:748:     *b = (uint64_t *)_mm_malloc(n * sizeof(uint64_t), 64);
	.loc 1 748 8 view .LVU943
	movq	%rcx, (%r14)	# _70, *b_47(D)
	.loc 1 750 5 is_stmt 1 view .LVU944
# sub_64_aligned.c:750:     if (*a == NULL || *b == NULL)
	.loc 1 750 20 is_stmt 0 view .LVU945
	cmpq	$0, (%r15)	#, *a_44(D)
	je	.L228	#,
	testq	%rcx, %rcx	# _70
	je	.L228	#,
	.loc 1 757 5 is_stmt 1 view .LVU946
# sub_64_aligned.c:757:     int seed = generate_seed();
	.loc 1 757 16 is_stmt 0 view .LVU947
	xorl	%eax, %eax	#
	call	generate_seed	#
.LVL283:
	.loc 1 758 5 is_stmt 1 view .LVU948
	movl	%eax, %edi	# tmp282, _6
	call	srand@PLT	#
.LVL284:
	.loc 1 762 5 view .LVU949
	.loc 1 763 5 view .LVU950
	.loc 1 764 5 view .LVU951
.LBB392:
	.loc 1 764 10 view .LVU952
	.loc 1 764 27 view .LVU953
	subl	$1, %ebx	#, n
.LVL285:
	.loc 1 764 27 is_stmt 0 view .LVU954
	movl	%ebx, %r14d	# n, _9
.LVL286:
	.loc 1 764 27 view .LVU955
	js	.L215	#,
.LVL287:
	.p2align 4,,10
	.p2align 3
.L220:
.LBB393:
	.loc 1 767 9 is_stmt 1 view .LVU956
# sub_64_aligned.c:767:         int group_size = (i >= 8) ? 9 : (i + 1);
	.loc 1 767 39 is_stmt 0 view .LVU957
	movl	$8, %ebp	#, tmp287
	movl	%r14d, 16(%rsp)	# _9, %sfp
	cmpl	%ebp, %r14d	# tmp287, _9
	cmovle	%r14d, %ebp	# _9,, tmp287
# sub_64_aligned.c:767:         int group_size = (i >= 8) ? 9 : (i + 1);
	.loc 1 767 13 view .LVU958
	leal	1(%rbp), %esi	#, _91
# sub_64_aligned.c:767:         int group_size = (i >= 8) ? 9 : (i + 1);
	.loc 1 767 39 view .LVU959
	movl	%ebp, 20(%rsp)	# _8, %sfp
	addl	$2, %ebp	#, tmp233
# sub_64_aligned.c:768:         int start_index = i - group_size + 1;
	.loc 1 768 29 view .LVU960
	subl	%esi, %r14d	# _91, _9
.LVL288:
# sub_64_aligned.c:767:         int group_size = (i >= 8) ? 9 : (i + 1);
	.loc 1 767 13 view .LVU961
	movl	%esi, 12(%rsp)	# _91, %sfp
.LVL289:
	.loc 1 768 9 is_stmt 1 view .LVU962
	movslq	%ebp, %rbp	# tmp233, tmp234
# sub_64_aligned.c:772:         uint64_t start_value = rand() % 10;
	.loc 1 772 32 is_stmt 0 view .LVU963
	call	rand@PLT	#
.LVL290:
# sub_64_aligned.c:768:         int start_index = i - group_size + 1;
	.loc 1 768 13 view .LVU964
	leal	1(%r14), %ebx	#, start_index
.LVL291:
	.loc 1 772 9 is_stmt 1 view .LVU965
# sub_64_aligned.c:772:         uint64_t start_value = rand() % 10;
	.loc 1 772 39 is_stmt 0 view .LVU966
	movslq	%eax, %r8	# _10, _10
	movl	%eax, %r10d	# _10, tmp226
	movslq	%ebx, %r12	# start_index, start_index
# sub_64_aligned.c:772:         uint64_t start_value = rand() % 10;
	.loc 1 772 32 view .LVU967
	movl	%eax, %edi	# tmp283, _10
# sub_64_aligned.c:772:         uint64_t start_value = rand() % 10;
	.loc 1 772 39 view .LVU968
	imulq	$1717986919, %r8, %r9	#, _10, tmp223
	sarl	$31, %r10d	#, tmp226
	movq	%r12, 24(%rsp)	# start_index, %sfp
	movslq	%r14d, %rax	# _9, _9
	leaq	0(,%r12,8), %r12	#, ivtmp.260
	addq	%rax, %rbp	# _9, tmp236
	movq	%r12, 32(%rsp)	# ivtmp.260, %sfp
	salq	$3, %rbp	#, _129
	sarq	$34, %r9	#, tmp225
	subl	%r10d, %r9d	# tmp226, tmp221
	leal	(%r9,%r9,4), %r11d	#, tmp229
	addl	%r11d, %r11d	# tmp230
	subl	%r11d, %edi	# tmp230, tmp231
# sub_64_aligned.c:772:         uint64_t start_value = rand() % 10;
	.loc 1 772 18 view .LVU969
	movslq	%edi, %r13	# tmp231, start_value
.LVL292:
	.loc 1 773 9 is_stmt 1 view .LVU970
.LBB394:
	.loc 1 773 14 view .LVU971
	.loc 1 773 27 view .LVU972
	.p2align 4,,10
	.p2align 3
.L222:
	.loc 1 775 13 view .LVU973
# sub_64_aligned.c:775:             (*a)[start_index + j] = start_value;
	.loc 1 775 35 is_stmt 0 view .LVU974
	movq	(%r15), %rdx	# *a_44(D), *a_44(D)
	movq	%r13, (%rdx,%r12)	# start_value, *_16
	.loc 1 777 13 is_stmt 1 view .LVU975
# sub_64_aligned.c:777:             if (rand() % 2 == 0 && start_value > 0)
	.loc 1 777 17 is_stmt 0 view .LVU976
	call	rand@PLT	#
.LVL293:
# sub_64_aligned.c:777:             if (rand() % 2 == 0 && start_value > 0)
	.loc 1 777 16 view .LVU977
	testb	$1, %al	#, tmp284
	jne	.L221	#,
# sub_64_aligned.c:779:                 start_value--;
	.loc 1 779 28 discriminator 1 view .LVU978
	cmpq	$1, %r13	#, start_value
	adcq	$-1, %r13	#, start_value
.LVL294:
.L221:
	.loc 1 773 42 is_stmt 1 discriminator 2 view .LVU979
	.loc 1 773 27 discriminator 2 view .LVU980
	addq	$8, %r12	#, ivtmp.260
	.loc 1 773 27 is_stmt 0 discriminator 2 view .LVU981
	cmpq	%rbp, %r12	# _129, ivtmp.260
	jne	.L222	#,
.LBE394:
.LBB395:
# sub_64_aligned.c:786:             (*b)[start_index + j] = (*a)[start_index + group_size - 1 - j];
	.loc 1 786 67 view .LVU982
	movl	12(%rsp), %r11d	# %sfp, _91
	movslq	20(%rsp), %rdi	# %sfp,
# sub_64_aligned.c:786:             (*b)[start_index + j] = (*a)[start_index + group_size - 1 - j];
	.loc 1 786 14 view .LVU983
	movq	40(%rsp), %rcx	# %sfp, b
	movslq	16(%rsp), %r12	# %sfp, _114
	.loc 1 786 14 view .LVU984
	movl	%r11d, %edx	# _91, _89
# sub_64_aligned.c:786:             (*b)[start_index + j] = (*a)[start_index + group_size - 1 - j];
	.loc 1 786 38 view .LVU985
	movq	(%r15), %rsi	# *a_44(D), _20
	movq	%rdi, %rbp	#,
# sub_64_aligned.c:786:             (*b)[start_index + j] = (*a)[start_index + group_size - 1 - j];
	.loc 1 786 67 view .LVU986
	leal	-1(%rbx,%r11), %eax	#, _112
	movq	%rdx, %r10	# _89, tmp244
# sub_64_aligned.c:786:             (*b)[start_index + j] = (*a)[start_index + group_size - 1 - j];
	.loc 1 786 14 view .LVU987
	movq	(%rcx), %r13	# *b_47(D), _27
.LVL295:
	.loc 1 786 14 view .LVU988
	leaq	8(,%r12,8), %r9	#, _110
	subq	%rdi, %r12	# _8, _106
	negq	%r10	# tmp244
	addq	%r12, %rdx	# _106, tmp248
	leaq	(%rsi,%r9), %rdi	#, tmp253
	leaq	(%r9,%r10,8), %rcx	#, tmp246
	leaq	0(%r13,%r12,8), %r8	#, _99
	addq	%rsi, %rcx	# _20, tmp247
	leaq	0(%r13,%rdx,8), %r12	#, tmp250
	cmpq	%r12, %rcx	# tmp250, tmp247
	setnb	%dl	#, tmp252
	cmpq	%rdi, %r8	# tmp253, _99
	setnb	%r10b	#, tmp255
	orb	%r10b, %dl	# tmp255, tmp289
	je	.L223	#,
	cmpl	$2, %ebp	#, _8
	jbe	.L223	#,
	leaq	-16(%rsi,%r9), %r9	#, vectp.251
	.loc 1 786 13 is_stmt 1 view .LVU989
	shrl	%r11d	# bnd.247
# sub_64_aligned.c:786:             (*b)[start_index + j] = (*a)[start_index + group_size - 1 - j];
	.loc 1 786 41 is_stmt 0 view .LVU990
	movdqu	(%r9), %xmm0	# MEM <vector(2) long unsigned int> [(uint64_t *)vectp.251_149], vect__32.253
	shufpd	$1, %xmm0, %xmm0	#, tmp319, vect__32.253
# sub_64_aligned.c:786:             (*b)[start_index + j] = (*a)[start_index + group_size - 1 - j];
	.loc 1 786 35 view .LVU991
	movups	%xmm0, (%r8)	# vect__32.253, MEM <vector(2) long unsigned int> [(uint64_t *)_99]
	.loc 1 784 42 is_stmt 1 view .LVU992
	.loc 1 784 27 view .LVU993
	cmpl	$1, %r11d	#, bnd.247
	je	.L224	#,
	.loc 1 786 13 view .LVU994
# sub_64_aligned.c:786:             (*b)[start_index + j] = (*a)[start_index + group_size - 1 - j];
	.loc 1 786 41 is_stmt 0 view .LVU995
	movdqu	-16(%r9), %xmm3	# MEM <vector(2) long unsigned int> [(uint64_t *)vectp.251_149 + -16B], vect__32.253
	shufpd	$1, %xmm3, %xmm3	#, tmp321, vect__32.253
# sub_64_aligned.c:786:             (*b)[start_index + j] = (*a)[start_index + group_size - 1 - j];
	.loc 1 786 35 view .LVU996
	movups	%xmm3, 16(%r8)	# vect__32.253, MEM <vector(2) long unsigned int> [(uint64_t *)_99 + 16B]
	.loc 1 784 42 is_stmt 1 view .LVU997
	.loc 1 784 27 view .LVU998
	cmpl	$2, %r11d	#, bnd.247
	je	.L224	#,
	.loc 1 786 13 view .LVU999
# sub_64_aligned.c:786:             (*b)[start_index + j] = (*a)[start_index + group_size - 1 - j];
	.loc 1 786 41 is_stmt 0 view .LVU1000
	movdqu	-32(%r9), %xmm4	# MEM <vector(2) long unsigned int> [(uint64_t *)vectp.251_149 + -32B], vect__32.253
	shufpd	$1, %xmm4, %xmm4	#, tmp323, vect__32.253
# sub_64_aligned.c:786:             (*b)[start_index + j] = (*a)[start_index + group_size - 1 - j];
	.loc 1 786 35 view .LVU1001
	movups	%xmm4, 32(%r8)	# vect__32.253, MEM <vector(2) long unsigned int> [(uint64_t *)_99 + 32B]
	.loc 1 784 42 is_stmt 1 view .LVU1002
	.loc 1 784 27 view .LVU1003
	cmpl	$4, %r11d	#, bnd.247
	jne	.L224	#,
	.loc 1 786 13 discriminator 3 view .LVU1004
# sub_64_aligned.c:786:             (*b)[start_index + j] = (*a)[start_index + group_size - 1 - j];
	.loc 1 786 41 is_stmt 0 discriminator 3 view .LVU1005
	movdqu	-48(%r9), %xmm6	# MEM <vector(2) long unsigned int> [(uint64_t *)vectp.251_149 + -48B], MEM <vector(2) long unsigned int> [(uint64_t *)vectp.251_149 + -48B]
	shufpd	$1, %xmm6, %xmm6	#, MEM <vector(2) long unsigned int> [(uint64_t *)vectp.251_149 + -48B], vect__32.253
# sub_64_aligned.c:786:             (*b)[start_index + j] = (*a)[start_index + group_size - 1 - j];
	.loc 1 786 35 discriminator 3 view .LVU1006
	movups	%xmm6, 48(%r8)	# vect__32.253, MEM <vector(2) long unsigned int> [(uint64_t *)_99 + 48B]
	.loc 1 784 42 is_stmt 1 discriminator 3 view .LVU1007
	.loc 1 784 27 discriminator 3 view .LVU1008
.L224:
	movl	12(%rsp), %ebp	# %sfp, _91
	movl	%ebp, %r8d	# _91, niters_vector_mult_vf.248
	andl	$-2, %r8d	#, niters_vector_mult_vf.248
	andl	$1, %ebp	#, _91
	je	.L226	#,
.LVL296:
	.loc 1 786 13 view .LVU1009
# sub_64_aligned.c:786:             (*b)[start_index + j] = (*a)[start_index + group_size - 1 - j];
	.loc 1 786 71 is_stmt 0 view .LVU1010
	subl	%r8d, %eax	# niters_vector_mult_vf.248, tmp268
# sub_64_aligned.c:786:             (*b)[start_index + j] = (*a)[start_index + group_size - 1 - j];
	.loc 1 786 30 view .LVU1011
	addl	%r8d, %ebx	# niters_vector_mult_vf.248, tmp270
.LVL297:
# sub_64_aligned.c:786:             (*b)[start_index + j] = (*a)[start_index + group_size - 1 - j];
	.loc 1 786 71 view .LVU1012
	cltq
# sub_64_aligned.c:786:             (*b)[start_index + j] = (*a)[start_index + group_size - 1 - j];
	.loc 1 786 30 view .LVU1013
	movslq	%ebx, %rbx	# tmp270, tmp271
# sub_64_aligned.c:786:             (*b)[start_index + j] = (*a)[start_index + group_size - 1 - j];
	.loc 1 786 41 view .LVU1014
	movq	(%rsi,%rax,8), %rsi	# *_136, _141
# sub_64_aligned.c:786:             (*b)[start_index + j] = (*a)[start_index + group_size - 1 - j];
	.loc 1 786 35 view .LVU1015
	movq	%rsi, 0(%r13,%rbx,8)	# _141, *_140
	.loc 1 784 42 is_stmt 1 view .LVU1016
.LVL298:
	.loc 1 784 27 view .LVU1017
.L226:
	.loc 1 784 27 is_stmt 0 view .LVU1018
.LBE395:
.LBE393:
	.loc 1 764 27 is_stmt 1 discriminator 1 view .LVU1019
	testl	%r14d, %r14d	# _9
	jns	.L220	#,
.LVL299:
.L215:
	.loc 1 764 27 is_stmt 0 discriminator 1 view .LVU1020
.LBE392:
# sub_64_aligned.c:791: }
	.loc 1 791 1 view .LVU1021
	movq	72(%rsp), %rax	# D.39620, tmp290
	subq	%fs:40, %rax	# MEM[(<address-space-1> long unsigned int *)40B], tmp290
	jne	.L271	#,
	addq	$88, %rsp	#,
	.cfi_remember_state
	.cfi_def_cfa_offset 56
	popq	%rbx	#
	.cfi_def_cfa_offset 48
	popq	%rbp	#
	.cfi_def_cfa_offset 40
	popq	%r12	#
	.cfi_def_cfa_offset 32
	popq	%r13	#
	.cfi_def_cfa_offset 24
	popq	%r14	#
	.cfi_def_cfa_offset 16
.LVL300:
	.loc 1 791 1 view .LVU1022
	popq	%r15	#
	.cfi_def_cfa_offset 8
.LVL301:
	.loc 1 791 1 view .LVU1023
	ret	
.LVL302:
	.p2align 4,,10
	.p2align 3
.L223:
	.cfi_restore_state
.LBB398:
.LBB397:
.LBB396:
	.loc 1 786 13 is_stmt 1 view .LVU1024
# sub_64_aligned.c:786:             (*b)[start_index + j] = (*a)[start_index + group_size - 1 - j];
	.loc 1 786 71 is_stmt 0 view .LVU1025
	cltq
# sub_64_aligned.c:786:             (*b)[start_index + j] = (*a)[start_index + group_size - 1 - j];
	.loc 1 786 35 view .LVU1026
	movq	24(%rsp), %r12	# %sfp, start_index
# sub_64_aligned.c:784:         for (int j = 0; j < group_size; j++)
	.loc 1 784 27 view .LVU1027
	movl	16(%rsp), %edx	# %sfp, i
# sub_64_aligned.c:786:             (*b)[start_index + j] = (*a)[start_index + group_size - 1 - j];
	.loc 1 786 41 view .LVU1028
	leaq	0(,%rax,8), %rcx	#, _26
	movq	(%rsi,%rax,8), %rax	# *_28, _57
# sub_64_aligned.c:786:             (*b)[start_index + j] = (*a)[start_index + group_size - 1 - j];
	.loc 1 786 35 view .LVU1029
	movq	%rax, 0(%r13,%r12,8)	# _57, *_32
	.loc 1 784 42 is_stmt 1 view .LVU1030
.LVL303:
	.loc 1 784 27 view .LVU1031
	testl	%edx, %edx	# i
	je	.L226	#,
	.loc 1 786 13 view .LVU1032
# sub_64_aligned.c:786:             (*b)[start_index + j] = (*a)[start_index + group_size - 1 - j];
	.loc 1 786 41 is_stmt 0 view .LVU1033
	movq	-8(%rsi,%rcx), %rdi	# *_167, _172
# sub_64_aligned.c:786:             (*b)[start_index + j] = (*a)[start_index + group_size - 1 - j];
	.loc 1 786 35 view .LVU1034
	movq	32(%rsp), %r10	# %sfp, ivtmp.260
	movq	%rdi, 8(%r13,%r10)	# _172, *_171
	.loc 1 784 42 is_stmt 1 view .LVU1035
.LVL304:
	.loc 1 784 27 view .LVU1036
	cmpl	$1, %edx	#, i
	je	.L226	#,
	.loc 1 786 13 view .LVU1037
# sub_64_aligned.c:786:             (*b)[start_index + j] = (*a)[start_index + group_size - 1 - j];
	.loc 1 786 41 is_stmt 0 view .LVU1038
	movq	-16(%rsi,%rcx), %r11	# *_180, _185
# sub_64_aligned.c:786:             (*b)[start_index + j] = (*a)[start_index + group_size - 1 - j];
	.loc 1 786 35 view .LVU1039
	movq	%r11, 16(%r13,%r10)	# _185, *_184
	.loc 1 784 42 is_stmt 1 view .LVU1040
.LVL305:
	.loc 1 784 27 view .LVU1041
	cmpl	$2, %edx	#, i
	je	.L226	#,
	.loc 1 786 13 view .LVU1042
# sub_64_aligned.c:786:             (*b)[start_index + j] = (*a)[start_index + group_size - 1 - j];
	.loc 1 786 41 is_stmt 0 view .LVU1043
	movq	-24(%rsi,%rcx), %r9	# *_193, _198
# sub_64_aligned.c:786:             (*b)[start_index + j] = (*a)[start_index + group_size - 1 - j];
	.loc 1 786 35 view .LVU1044
	movq	%r9, 24(%r13,%r10)	# _198, *_197
	.loc 1 784 42 is_stmt 1 view .LVU1045
.LVL306:
	.loc 1 784 27 view .LVU1046
	cmpl	$3, %edx	#, i
	je	.L226	#,
	.loc 1 786 13 view .LVU1047
# sub_64_aligned.c:786:             (*b)[start_index + j] = (*a)[start_index + group_size - 1 - j];
	.loc 1 786 41 is_stmt 0 view .LVU1048
	movq	-32(%rsi,%rcx), %rbp	# *_206, _211
# sub_64_aligned.c:786:             (*b)[start_index + j] = (*a)[start_index + group_size - 1 - j];
	.loc 1 786 35 view .LVU1049
	movq	%rbp, 32(%r13,%r10)	# _211, *_210
	.loc 1 784 42 is_stmt 1 view .LVU1050
.LVL307:
	.loc 1 784 27 view .LVU1051
	cmpl	$4, %edx	#, i
	je	.L226	#,
	.loc 1 786 13 view .LVU1052
# sub_64_aligned.c:786:             (*b)[start_index + j] = (*a)[start_index + group_size - 1 - j];
	.loc 1 786 41 is_stmt 0 view .LVU1053
	movq	-40(%rsi,%rcx), %r8	# *_219, _224
# sub_64_aligned.c:786:             (*b)[start_index + j] = (*a)[start_index + group_size - 1 - j];
	.loc 1 786 35 view .LVU1054
	movq	%r8, 40(%r13,%r10)	# _224, *_223
	.loc 1 784 42 is_stmt 1 view .LVU1055
.LVL308:
	.loc 1 784 27 view .LVU1056
	cmpl	$5, %edx	#, i
	je	.L226	#,
	.loc 1 786 13 view .LVU1057
# sub_64_aligned.c:786:             (*b)[start_index + j] = (*a)[start_index + group_size - 1 - j];
	.loc 1 786 41 is_stmt 0 view .LVU1058
	movq	-48(%rsi,%rcx), %rbx	# *_232, _237
.LVL309:
# sub_64_aligned.c:786:             (*b)[start_index + j] = (*a)[start_index + group_size - 1 - j];
	.loc 1 786 35 view .LVU1059
	movq	%rbx, 48(%r13,%r10)	# _237, *_236
	.loc 1 784 42 is_stmt 1 view .LVU1060
.LVL310:
	.loc 1 784 27 view .LVU1061
	cmpl	$6, %edx	#, i
	je	.L226	#,
	.loc 1 786 13 view .LVU1062
# sub_64_aligned.c:786:             (*b)[start_index + j] = (*a)[start_index + group_size - 1 - j];
	.loc 1 786 41 is_stmt 0 view .LVU1063
	movq	-56(%rsi,%rcx), %rax	# *_245, _250
# sub_64_aligned.c:786:             (*b)[start_index + j] = (*a)[start_index + group_size - 1 - j];
	.loc 1 786 35 view .LVU1064
	movq	%rax, 56(%r13,%r10)	# _250, *_249
	.loc 1 784 42 is_stmt 1 view .LVU1065
.LVL311:
	.loc 1 784 27 view .LVU1066
	cmpl	$7, %edx	#, i
	jle	.L226	#,
	.loc 1 786 13 view .LVU1067
# sub_64_aligned.c:786:             (*b)[start_index + j] = (*a)[start_index + group_size - 1 - j];
	.loc 1 786 41 is_stmt 0 view .LVU1068
	movq	-64(%rsi,%rcx), %rsi	# *_21, _124
# sub_64_aligned.c:786:             (*b)[start_index + j] = (*a)[start_index + group_size - 1 - j];
	.loc 1 786 35 view .LVU1069
	movq	%rsi, 64(%r13,%r10)	# _124, *_123
	.loc 1 784 42 is_stmt 1 view .LVU1070
.LVL312:
	.loc 1 784 27 view .LVU1071
	jmp	.L226	#
.LVL313:
.L271:
	.loc 1 784 27 is_stmt 0 view .LVU1072
.LBE396:
.LBE397:
.LBE398:
# sub_64_aligned.c:791: }
	.loc 1 791 1 view .LVU1073
	call	__stack_chk_fail@PLT	#
.LVL314:
	.cfi_endproc
.LFE5796:
	.size	generate_no_borrow_propagation, .-generate_no_borrow_propagation
	.section	.rodata.str1.1
.LC21:
	.string	"Time, RDTSC\n"
	.text
	.p2align 4
	.globl	open_time_file
	.type	open_time_file, @function
open_time_file:
.LVL315:
.LFB5797:
	.loc 1 794 1 is_stmt 1 view -0
	.cfi_startproc
	.loc 1 794 1 is_stmt 0 view .LVU1075
	endbr64	
	.loc 1 795 5 is_stmt 1 view .LVU1076
# sub_64_aligned.c:794: {
	.loc 1 794 1 is_stmt 0 view .LVU1077
	pushq	%rbx	#
	.cfi_def_cfa_offset 16
	.cfi_offset 3, -16
# sub_64_aligned.c:794: {
	.loc 1 794 1 view .LVU1078
	movq	%rsi, %rbx	# tmp90, file
# sub_64_aligned.c:795:     *file = fopen(filename, "w");
	.loc 1 795 13 view .LVU1079
	leaq	.LC13(%rip), %rsi	#, tmp85
.LVL316:
	.loc 1 795 13 view .LVU1080
	call	fopen@PLT	#
.LVL317:
# sub_64_aligned.c:795:     *file = fopen(filename, "w");
	.loc 1 795 11 view .LVU1081
	movq	%rax, (%rbx)	# tmp86, *file_5(D)
	.loc 1 797 5 is_stmt 1 view .LVU1082
# sub_64_aligned.c:797:     if (*file == NULL)
	.loc 1 797 8 is_stmt 0 view .LVU1083
	testq	%rax, %rax	# tmp86
	je	.L275	#,
	movq	%rax, %rcx	# tmp91, tmp86
	.loc 1 805 5 is_stmt 1 view .LVU1084
.LVL318:
.LBB399:
.LBI399:
	.loc 6 103 1 view .LVU1085
.LBB400:
	.loc 6 105 3 view .LVU1086
# /usr/include/x86_64-linux-gnu/bits/stdio2.h:105:   return __fprintf_chk (__stream, __USE_FORTIFY_LEVEL - 1, __fmt,
	.loc 6 105 10 is_stmt 0 view .LVU1087
	movl	$12, %edx	#,
	movl	$1, %esi	#,
.LBE400:
.LBE399:
# sub_64_aligned.c:806: }
	.loc 1 806 1 view .LVU1088
	popq	%rbx	#
	.cfi_remember_state
	.cfi_def_cfa_offset 8
.LVL319:
.LBB402:
.LBB401:
# /usr/include/x86_64-linux-gnu/bits/stdio2.h:105:   return __fprintf_chk (__stream, __USE_FORTIFY_LEVEL - 1, __fmt,
	.loc 6 105 10 view .LVU1089
	leaq	.LC21(%rip), %rdi	#, tmp88
	jmp	fwrite@PLT	#
.LVL320:
.L275:
	.cfi_restore_state
	.loc 6 105 10 view .LVU1090
.LBE401:
.LBE402:
	.loc 1 799 9 is_stmt 1 view .LVU1091
	leaq	.LC0(%rip), %rdi	#, tmp87
	call	perror@PLT	#
.LVL321:
	.loc 1 800 9 view .LVU1092
	movl	$1, %edi	#,
	call	exit@PLT	#
.LVL322:
	.cfi_endproc
.LFE5797:
	.size	open_time_file, .-open_time_file
	.section	.rodata.str1.1
.LC22:
	.string	"%lf, %llu\n"
	.text
	.p2align 4
	.globl	write_time
	.type	write_time, @function
write_time:
.LVL323:
.LFB5798:
	.loc 1 809 1 view -0
	.cfi_startproc
	.loc 1 809 1 is_stmt 0 view .LVU1094
	endbr64	
	.loc 1 810 5 is_stmt 1 view .LVU1095
.LVL324:
.LBB403:
.LBI403:
	.loc 6 103 1 view .LVU1096
.LBB404:
	.loc 6 105 3 view .LVU1097
.LBE404:
.LBE403:
# sub_64_aligned.c:809: {
	.loc 1 809 1 is_stmt 0 view .LVU1098
	movq	%rsi, %rcx	# tmp88, rdtsc
.LBB406:
.LBB405:
# /usr/include/x86_64-linux-gnu/bits/stdio2.h:105:   return __fprintf_chk (__stream, __USE_FORTIFY_LEVEL - 1, __fmt,
	.loc 6 105 10 view .LVU1099
	leaq	.LC22(%rip), %rdx	#, tmp85
	movl	$1, %esi	#,
.LVL325:
	.loc 6 105 10 view .LVU1100
	movl	$1, %eax	#,
	jmp	__fprintf_chk@PLT	#
.LVL326:
	.loc 6 105 10 view .LVU1101
.LBE405:
.LBE406:
	.cfi_endproc
.LFE5798:
	.size	write_time, .-write_time
	.section	.rodata.str1.8
	.align 8
.LC23:
	.string	"Memory allocation failed for str\n"
	.text
	.p2align 4
	.globl	convert_digits_to_string
	.type	convert_digits_to_string, @function
convert_digits_to_string:
.LVL327:
.LFB5799:
	.loc 1 815 1 is_stmt 1 view -0
	.cfi_startproc
	.loc 1 815 1 is_stmt 0 view .LVU1103
	endbr64	
	pushq	%rbp	#
	.cfi_def_cfa_offset 16
	.cfi_offset 6, -16
	movq	%rdi, %rbp	# tmp401, digits
	.loc 1 816 5 is_stmt 1 view .LVU1104
# sub_64_aligned.c:815: {
	.loc 1 815 1 is_stmt 0 view .LVU1105
	pushq	%rbx	#
	.cfi_def_cfa_offset 24
	.cfi_offset 3, -24
	movslq	%esi, %rbx	# tmp402,
# sub_64_aligned.c:816:     char *str = (char *)calloc(n + 1, sizeof(char));
	.loc 1 816 25 view .LVU1106
	movl	$1, %esi	#,
.LVL328:
# sub_64_aligned.c:816:     char *str = (char *)calloc(n + 1, sizeof(char));
	.loc 1 816 34 view .LVU1107
	leal	1(%rbx), %edi	#, tmp254
.LVL329:
# sub_64_aligned.c:816:     char *str = (char *)calloc(n + 1, sizeof(char));
	.loc 1 816 25 view .LVU1108
	movslq	%edi, %rdi	# tmp254, tmp255
# sub_64_aligned.c:815: {
	.loc 1 815 1 view .LVU1109
	subq	$8, %rsp	#,
	.cfi_def_cfa_offset 32
# sub_64_aligned.c:816:     char *str = (char *)calloc(n + 1, sizeof(char));
	.loc 1 816 25 view .LVU1110
	call	calloc@PLT	#
.LVL330:
	.loc 1 817 5 is_stmt 1 view .LVU1111
# sub_64_aligned.c:817:     if (str == NULL)
	.loc 1 817 8 is_stmt 0 view .LVU1112
	testq	%rax, %rax	# <retval>
	je	.L278	#,
	movq	%rax, %r8	# tmp403, <retval>
.LVL331:
.LBB412:
	.loc 1 822 23 is_stmt 1 view .LVU1113
	testl	%ebx, %ebx	# n
	jle	.L280	#,
	leal	-1(%rbx), %eax	#, tmp258
.LVL332:
	.loc 1 822 23 is_stmt 0 view .LVU1114
	cmpl	$14, %eax	#, tmp258
	jbe	.L284	#,
	movl	%ebx, %edx	# n, bnd.272
	leaq	128(%rbp), %r9	#, tmp263
	movq	%rbp, %r11	# digits, ivtmp.295
	movq	%r8, %rcx	# <retval>, ivtmp.298
	shrl	$4, %edx	#, bnd.272
	movdqa	.LC24(%rip), %xmm1	#, tmp334
	movdqa	.LC25(%rip), %xmm2	#, tmp335
	leal	-1(%rdx), %esi	#, tmp261
	salq	$7, %rsi	#, tmp262
	addq	%r9, %rsi	# tmp263, _238
	movq	%rsi, %r10	# _238, tmp337
	subq	%rbp, %r10	# digits, tmp337
	andl	$128, %r10d	#, tmp337
	je	.L282	#,
.LVL333:
	.loc 1 824 9 is_stmt 1 view .LVU1115
# sub_64_aligned.c:824:         str[i] = digits[i] + '0';
	.loc 1 824 28 is_stmt 0 view .LVU1116
	movdqu	0(%rbp), %xmm0	# MEM <vector(2) long unsigned int> [(uint64_t *)_128], vect__7.287
	movdqu	16(%rbp), %xmm7	# MEM <vector(2) long unsigned int> [(uint64_t *)_128 + 16B], tmp445
	movq	%r9, %r11	# tmp263, ivtmp.295
	leaq	16(%r8), %rcx	#, ivtmp.298
	movdqu	32(%rbp), %xmm3	# MEM <vector(2) long unsigned int> [(uint64_t *)_128 + 32B], vect__7.287
	movdqu	48(%rbp), %xmm4	# MEM <vector(2) long unsigned int> [(uint64_t *)_128 + 48B], tmp447
	movdqu	64(%rbp), %xmm8	# MEM <vector(2) long unsigned int> [(uint64_t *)_128 + 64B], vect__7.287
	movdqu	80(%rbp), %xmm9	# MEM <vector(2) long unsigned int> [(uint64_t *)_128 + 80B], tmp451
	shufps	$136, %xmm7, %xmm0	#, tmp445, vect__7.287
	movdqa	%xmm0, %xmm5	# vect__7.287, tmp381
	movdqu	96(%rbp), %xmm10	# MEM <vector(2) long unsigned int> [(uint64_t *)_128 + 96B], vect__7.287
	movdqu	112(%rbp), %xmm11	# MEM <vector(2) long unsigned int> [(uint64_t *)_128 + 112B], tmp453
	shufps	$136, %xmm4, %xmm3	#, tmp447, vect__7.287
	punpcklwd	%xmm3, %xmm0	# vect__7.287, vect__7.286
	shufps	$136, %xmm9, %xmm8	#, tmp451, vect__7.287
	movdqa	%xmm8, %xmm12	# vect__7.287, tmp392
	punpckhwd	%xmm3, %xmm5	# vect__7.287, tmp381
	movdqa	%xmm0, %xmm6	# vect__7.286, tmp383
	shufps	$136, %xmm11, %xmm10	#, tmp453, vect__7.287
	punpcklwd	%xmm10, %xmm8	# vect__7.287, vect__7.286
	punpckhwd	%xmm10, %xmm12	# vect__7.287, tmp392
	punpckhwd	%xmm5, %xmm6	# tmp381, tmp383
	movdqa	%xmm8, %xmm13	# vect__7.286, tmp394
	punpcklwd	%xmm5, %xmm0	# tmp381, vect__7.286
	punpcklwd	%xmm12, %xmm8	# tmp392, vect__7.286
	punpckhwd	%xmm12, %xmm13	# tmp392, tmp394
	punpcklwd	%xmm6, %xmm0	# tmp383, vect__7.286
	punpcklwd	%xmm13, %xmm8	# tmp394, vect__7.286
	pand	%xmm1, %xmm0	# tmp334, tmp397
	pand	%xmm1, %xmm8	# tmp334, tmp398
	packuswb	%xmm8, %xmm0	# tmp398, vect__7.285
	paddb	%xmm2, %xmm0	# tmp335, vect__8.288
# sub_64_aligned.c:824:         str[i] = digits[i] + '0';
	.loc 1 824 16 view .LVU1117
	movups	%xmm0, (%r8)	# vect__8.288, MEM <vector(16) char> [(char *)_224]
	.loc 1 822 29 is_stmt 1 view .LVU1118
	.loc 1 822 23 view .LVU1119
	cmpq	%rsi, %r9	# _238, ivtmp.295
	je	.L291	#,
	.p2align 4,,10
	.p2align 3
.L282:
	.loc 1 824 9 discriminator 3 view .LVU1120
# sub_64_aligned.c:824:         str[i] = digits[i] + '0';
	.loc 1 824 28 is_stmt 0 discriminator 3 view .LVU1121
	movdqu	16(%r11), %xmm15	# MEM <vector(2) long unsigned int> [(uint64_t *)_128 + 16B], tmp408
	movdqu	48(%r11), %xmm7	# MEM <vector(2) long unsigned int> [(uint64_t *)_128 + 48B], tmp410
	addq	$32, %rcx	#, ivtmp.298
	addq	$256, %r11	#, ivtmp.295
	movdqu	-176(%r11), %xmm5	# MEM <vector(2) long unsigned int> [(uint64_t *)_128 + 80B], tmp414
	movdqu	-128(%r11), %xmm12	# MEM <vector(2) long unsigned int> [(uint64_t *)_128], vect__7.287
	movdqu	-144(%r11), %xmm9	# MEM <vector(2) long unsigned int> [(uint64_t *)_128 + 112B], tmp416
	movdqu	-112(%r11), %xmm13	# MEM <vector(2) long unsigned int> [(uint64_t *)_128 + 16B], tmp420
	movdqu	-256(%r11), %xmm14	# MEM <vector(2) long unsigned int> [(uint64_t *)_128], vect__7.287
	movdqu	-224(%r11), %xmm0	# MEM <vector(2) long unsigned int> [(uint64_t *)_128 + 32B], vect__7.287
	movdqu	-192(%r11), %xmm8	# MEM <vector(2) long unsigned int> [(uint64_t *)_128 + 64B], vect__7.287
	shufps	$136, %xmm13, %xmm12	#, tmp420, vect__7.287
	movdqu	-160(%r11), %xmm6	# MEM <vector(2) long unsigned int> [(uint64_t *)_128 + 96B], vect__7.287
	shufps	$136, %xmm7, %xmm0	#, tmp410, vect__7.287
	shufps	$136, %xmm15, %xmm14	#, tmp408, vect__7.287
	movdqa	%xmm14, %xmm4	# vect__7.287, tmp271
	punpcklwd	%xmm0, %xmm14	# vect__7.287, vect__7.286
	shufps	$136, %xmm9, %xmm6	#, tmp416, vect__7.287
	shufps	$136, %xmm5, %xmm8	#, tmp414, vect__7.287
	movdqa	%xmm8, %xmm10	# vect__7.287, tmp280
	punpcklwd	%xmm6, %xmm8	# vect__7.287, vect__7.286
	punpckhwd	%xmm0, %xmm4	# vect__7.287, tmp271
	punpckhwd	%xmm6, %xmm10	# vect__7.287, tmp280
	movdqa	%xmm14, %xmm3	# vect__7.286, tmp272
	movdqu	-80(%r11), %xmm15	# MEM <vector(2) long unsigned int> [(uint64_t *)_128 + 48B], tmp422
	movdqa	%xmm8, %xmm11	# vect__7.286, tmp281
	punpckhwd	%xmm4, %xmm3	# tmp271, tmp272
	punpcklwd	%xmm4, %xmm14	# tmp271, vect__7.286
# sub_64_aligned.c:824:         str[i] = digits[i] + '0';
	.loc 1 824 24 discriminator 3 view .LVU1122
	movdqu	-16(%r11), %xmm5	# MEM <vector(2) long unsigned int> [(uint64_t *)_128 + 112B], vect__6.284
# sub_64_aligned.c:824:         str[i] = digits[i] + '0';
	.loc 1 824 28 discriminator 3 view .LVU1123
	punpckhwd	%xmm10, %xmm11	# tmp280, tmp281
	punpcklwd	%xmm10, %xmm8	# tmp280, vect__7.286
	punpcklwd	%xmm3, %xmm14	# tmp272, vect__7.286
	movdqu	-48(%r11), %xmm4	# MEM <vector(2) long unsigned int> [(uint64_t *)_128 + 80B], tmp426
	punpcklwd	%xmm11, %xmm8	# tmp281, vect__7.286
	pand	%xmm1, %xmm14	# tmp334, tmp283
	movdqu	-64(%r11), %xmm3	# MEM <vector(2) long unsigned int> [(uint64_t *)_128 + 64B], vect__7.287
	movdqa	%xmm12, %xmm0	# vect__7.287, tmp355
	pand	%xmm1, %xmm8	# tmp334, tmp284
	packuswb	%xmm8, %xmm14	# tmp284, vect__7.285
# sub_64_aligned.c:824:         str[i] = digits[i] + '0';
	.loc 1 824 24 discriminator 3 view .LVU1124
	movdqu	-32(%r11), %xmm8	# MEM <vector(2) long unsigned int> [(uint64_t *)_128 + 96B], vect__6.283
# sub_64_aligned.c:824:         str[i] = digits[i] + '0';
	.loc 1 824 28 discriminator 3 view .LVU1125
	shufps	$136, %xmm4, %xmm3	#, tmp426, vect__7.287
	movdqa	%xmm3, %xmm6	# vect__7.287, tmp366
	paddb	%xmm2, %xmm14	# tmp335, vect__8.288
# sub_64_aligned.c:824:         str[i] = digits[i] + '0';
	.loc 1 824 16 discriminator 3 view .LVU1126
	movups	%xmm14, -32(%rcx)	# vect__8.288, MEM <vector(16) char> [(char *)_224]
	.loc 1 822 29 is_stmt 1 discriminator 3 view .LVU1127
	.loc 1 822 23 discriminator 3 view .LVU1128
	.loc 1 824 9 discriminator 3 view .LVU1129
# sub_64_aligned.c:824:         str[i] = digits[i] + '0';
	.loc 1 824 28 is_stmt 0 discriminator 3 view .LVU1130
	movdqu	-96(%r11), %xmm14	# MEM <vector(2) long unsigned int> [(uint64_t *)_128 + 32B], vect__7.287
	shufps	$136, %xmm5, %xmm8	#, vect__6.284, vect__7.287
	punpcklwd	%xmm8, %xmm3	# vect__7.287, vect__7.286
	punpckhwd	%xmm8, %xmm6	# vect__7.287, tmp366
	movdqa	%xmm3, %xmm9	# vect__7.286, tmp368
	shufps	$136, %xmm15, %xmm14	#, tmp422, vect__7.287
	punpcklwd	%xmm14, %xmm12	# vect__7.287, vect__7.286
	punpckhwd	%xmm14, %xmm0	# vect__7.287, tmp355
	punpckhwd	%xmm6, %xmm9	# tmp366, tmp368
	movdqa	%xmm12, %xmm7	# vect__7.286, tmp357
	punpcklwd	%xmm6, %xmm3	# tmp366, vect__7.286
	punpcklwd	%xmm0, %xmm12	# tmp355, vect__7.286
	punpckhwd	%xmm0, %xmm7	# tmp355, tmp357
	punpcklwd	%xmm9, %xmm3	# tmp368, vect__7.286
	punpcklwd	%xmm7, %xmm12	# tmp357, vect__7.286
	pand	%xmm1, %xmm3	# tmp334, tmp372
	pand	%xmm1, %xmm12	# tmp334, tmp371
	packuswb	%xmm3, %xmm12	# tmp372, vect__7.285
	paddb	%xmm2, %xmm12	# tmp335, vect__8.288
# sub_64_aligned.c:824:         str[i] = digits[i] + '0';
	.loc 1 824 16 discriminator 3 view .LVU1131
	movups	%xmm12, -16(%rcx)	# vect__8.288, MEM <vector(16) char> [(char *)_224]
	.loc 1 822 29 is_stmt 1 discriminator 3 view .LVU1132
	.loc 1 822 23 discriminator 3 view .LVU1133
	cmpq	%rsi, %r11	# _238, ivtmp.295
	jne	.L282	#,
.L291:
	movl	%ebx, %eax	# n, tmp.274
	andl	$-16, %eax	#, tmp.274
	testb	$15, %bl	#, n
	je	.L280	#,
.L281:
.LVL334:
	.loc 1 824 9 view .LVU1134
# sub_64_aligned.c:824:         str[i] = digits[i] + '0';
	.loc 1 824 24 is_stmt 0 view .LVU1135
	movslq	%eax, %r9	# tmp.274, _4
# sub_64_aligned.c:822:     for (int i = 0; i < n; i++)
	.loc 1 822 29 view .LVU1136
	leal	1(%rax), %r10d	#, i
# sub_64_aligned.c:824:         str[i] = digits[i] + '0';
	.loc 1 824 28 view .LVU1137
	movzbl	0(%rbp,%r9,8), %edi	# *_6, tmp430
# sub_64_aligned.c:824:         str[i] = digits[i] + '0';
	.loc 1 824 24 view .LVU1138
	leaq	0(,%r9,8), %rdx	#, _5
# sub_64_aligned.c:824:         str[i] = digits[i] + '0';
	.loc 1 824 28 view .LVU1139
	leal	48(%rdi), %esi	#, tmp289
	movb	%sil, (%r8,%r9)	# tmp289, *_11
	.loc 1 822 29 is_stmt 1 view .LVU1140
.LVL335:
	.loc 1 822 23 view .LVU1141
	cmpl	%r10d, %ebx	# i, n
	jle	.L280	#,
	.loc 1 824 9 view .LVU1142
# sub_64_aligned.c:824:         str[i] = digits[i] + '0';
	.loc 1 824 28 is_stmt 0 view .LVU1143
	movzbl	8(%rbp,%rdx), %ecx	# *_84, tmp431
# sub_64_aligned.c:824:         str[i] = digits[i] + '0';
	.loc 1 824 24 view .LVU1144
	movslq	%r10d, %r11	# i, i
# sub_64_aligned.c:822:     for (int i = 0; i < n; i++)
	.loc 1 822 29 view .LVU1145
	leal	2(%rax), %edi	#, i
# sub_64_aligned.c:824:         str[i] = digits[i] + '0';
	.loc 1 824 28 view .LVU1146
	leal	48(%rcx), %r9d	#, tmp292
	movb	%r9b, (%r8,%r11)	# tmp292, *_88
	.loc 1 822 29 is_stmt 1 view .LVU1147
.LVL336:
	.loc 1 822 23 view .LVU1148
	cmpl	%edi, %ebx	# i, n
	jle	.L280	#,
	.loc 1 824 9 view .LVU1149
# sub_64_aligned.c:824:         str[i] = digits[i] + '0';
	.loc 1 824 28 is_stmt 0 view .LVU1150
	movzbl	16(%rbp,%rdx), %esi	# *_96, tmp432
# sub_64_aligned.c:824:         str[i] = digits[i] + '0';
	.loc 1 824 24 view .LVU1151
	movslq	%edi, %r10	# i, i
# sub_64_aligned.c:822:     for (int i = 0; i < n; i++)
	.loc 1 822 29 view .LVU1152
	leal	3(%rax), %ecx	#, i
# sub_64_aligned.c:824:         str[i] = digits[i] + '0';
	.loc 1 824 28 view .LVU1153
	leal	48(%rsi), %r11d	#, tmp295
	movb	%r11b, (%r8,%r10)	# tmp295, *_100
	.loc 1 822 29 is_stmt 1 view .LVU1154
.LVL337:
	.loc 1 822 23 view .LVU1155
	cmpl	%ecx, %ebx	# i, n
	jle	.L280	#,
	.loc 1 824 9 view .LVU1156
# sub_64_aligned.c:824:         str[i] = digits[i] + '0';
	.loc 1 824 28 is_stmt 0 view .LVU1157
	movzbl	24(%rbp,%rdx), %edi	# *_108, tmp433
# sub_64_aligned.c:824:         str[i] = digits[i] + '0';
	.loc 1 824 24 view .LVU1158
	movslq	%ecx, %r9	# i, i
# sub_64_aligned.c:822:     for (int i = 0; i < n; i++)
	.loc 1 822 29 view .LVU1159
	leal	4(%rax), %esi	#, i
# sub_64_aligned.c:824:         str[i] = digits[i] + '0';
	.loc 1 824 28 view .LVU1160
	leal	48(%rdi), %r10d	#, tmp298
	movb	%r10b, (%r8,%r9)	# tmp298, *_112
	.loc 1 822 29 is_stmt 1 view .LVU1161
.LVL338:
	.loc 1 822 23 view .LVU1162
	cmpl	%esi, %ebx	# i, n
	jle	.L280	#,
	.loc 1 824 9 view .LVU1163
# sub_64_aligned.c:824:         str[i] = digits[i] + '0';
	.loc 1 824 28 is_stmt 0 view .LVU1164
	movzbl	32(%rbp,%rdx), %ecx	# *_120, tmp434
# sub_64_aligned.c:824:         str[i] = digits[i] + '0';
	.loc 1 824 24 view .LVU1165
	movslq	%esi, %r11	# i, i
# sub_64_aligned.c:822:     for (int i = 0; i < n; i++)
	.loc 1 822 29 view .LVU1166
	leal	5(%rax), %edi	#, i
# sub_64_aligned.c:824:         str[i] = digits[i] + '0';
	.loc 1 824 28 view .LVU1167
	leal	48(%rcx), %r9d	#, tmp301
	movb	%r9b, (%r8,%r11)	# tmp301, *_124
	.loc 1 822 29 is_stmt 1 view .LVU1168
.LVL339:
	.loc 1 822 23 view .LVU1169
	cmpl	%edi, %ebx	# i, n
	jle	.L280	#,
	.loc 1 824 9 view .LVU1170
# sub_64_aligned.c:824:         str[i] = digits[i] + '0';
	.loc 1 824 28 is_stmt 0 view .LVU1171
	movzbl	40(%rbp,%rdx), %esi	# *_132, tmp435
# sub_64_aligned.c:824:         str[i] = digits[i] + '0';
	.loc 1 824 24 view .LVU1172
	movslq	%edi, %r10	# i, i
# sub_64_aligned.c:822:     for (int i = 0; i < n; i++)
	.loc 1 822 29 view .LVU1173
	leal	6(%rax), %ecx	#, i
# sub_64_aligned.c:824:         str[i] = digits[i] + '0';
	.loc 1 824 28 view .LVU1174
	leal	48(%rsi), %r11d	#, tmp304
	movb	%r11b, (%r8,%r10)	# tmp304, *_136
	.loc 1 822 29 is_stmt 1 view .LVU1175
.LVL340:
	.loc 1 822 23 view .LVU1176
	cmpl	%ecx, %ebx	# i, n
	jle	.L280	#,
	.loc 1 824 9 view .LVU1177
# sub_64_aligned.c:824:         str[i] = digits[i] + '0';
	.loc 1 824 28 is_stmt 0 view .LVU1178
	movzbl	48(%rbp,%rdx), %edi	# *_144, tmp436
# sub_64_aligned.c:824:         str[i] = digits[i] + '0';
	.loc 1 824 24 view .LVU1179
	movslq	%ecx, %r9	# i, i
# sub_64_aligned.c:822:     for (int i = 0; i < n; i++)
	.loc 1 822 29 view .LVU1180
	leal	7(%rax), %esi	#, i
# sub_64_aligned.c:824:         str[i] = digits[i] + '0';
	.loc 1 824 28 view .LVU1181
	leal	48(%rdi), %r10d	#, tmp307
	movb	%r10b, (%r8,%r9)	# tmp307, *_148
	.loc 1 822 29 is_stmt 1 view .LVU1182
.LVL341:
	.loc 1 822 23 view .LVU1183
	cmpl	%esi, %ebx	# i, n
	jle	.L280	#,
	.loc 1 824 9 view .LVU1184
# sub_64_aligned.c:824:         str[i] = digits[i] + '0';
	.loc 1 824 28 is_stmt 0 view .LVU1185
	movzbl	56(%rbp,%rdx), %ecx	# *_156, tmp437
# sub_64_aligned.c:824:         str[i] = digits[i] + '0';
	.loc 1 824 24 view .LVU1186
	movslq	%esi, %r11	# i, i
# sub_64_aligned.c:822:     for (int i = 0; i < n; i++)
	.loc 1 822 29 view .LVU1187
	leal	8(%rax), %edi	#, i
# sub_64_aligned.c:824:         str[i] = digits[i] + '0';
	.loc 1 824 28 view .LVU1188
	leal	48(%rcx), %r9d	#, tmp310
	movb	%r9b, (%r8,%r11)	# tmp310, *_160
	.loc 1 822 29 is_stmt 1 view .LVU1189
.LVL342:
	.loc 1 822 23 view .LVU1190
	cmpl	%edi, %ebx	# i, n
	jle	.L280	#,
	.loc 1 824 9 view .LVU1191
# sub_64_aligned.c:824:         str[i] = digits[i] + '0';
	.loc 1 824 28 is_stmt 0 view .LVU1192
	movzbl	64(%rbp,%rdx), %esi	# *_168, tmp438
# sub_64_aligned.c:824:         str[i] = digits[i] + '0';
	.loc 1 824 24 view .LVU1193
	movslq	%edi, %r10	# i, i
# sub_64_aligned.c:822:     for (int i = 0; i < n; i++)
	.loc 1 822 29 view .LVU1194
	leal	9(%rax), %ecx	#, i
# sub_64_aligned.c:824:         str[i] = digits[i] + '0';
	.loc 1 824 28 view .LVU1195
	leal	48(%rsi), %r11d	#, tmp313
	movb	%r11b, (%r8,%r10)	# tmp313, *_172
	.loc 1 822 29 is_stmt 1 view .LVU1196
.LVL343:
	.loc 1 822 23 view .LVU1197
	cmpl	%ecx, %ebx	# i, n
	jle	.L280	#,
	.loc 1 824 9 view .LVU1198
# sub_64_aligned.c:824:         str[i] = digits[i] + '0';
	.loc 1 824 28 is_stmt 0 view .LVU1199
	movzbl	72(%rbp,%rdx), %edi	# *_180, tmp439
# sub_64_aligned.c:824:         str[i] = digits[i] + '0';
	.loc 1 824 24 view .LVU1200
	movslq	%ecx, %r9	# i, i
# sub_64_aligned.c:822:     for (int i = 0; i < n; i++)
	.loc 1 822 29 view .LVU1201
	leal	10(%rax), %esi	#, i
# sub_64_aligned.c:824:         str[i] = digits[i] + '0';
	.loc 1 824 28 view .LVU1202
	leal	48(%rdi), %r10d	#, tmp316
	movb	%r10b, (%r8,%r9)	# tmp316, *_184
	.loc 1 822 29 is_stmt 1 view .LVU1203
.LVL344:
	.loc 1 822 23 view .LVU1204
	cmpl	%esi, %ebx	# i, n
	jle	.L280	#,
	.loc 1 824 9 view .LVU1205
# sub_64_aligned.c:824:         str[i] = digits[i] + '0';
	.loc 1 824 28 is_stmt 0 view .LVU1206
	movzbl	80(%rbp,%rdx), %ecx	# *_192, tmp440
# sub_64_aligned.c:824:         str[i] = digits[i] + '0';
	.loc 1 824 24 view .LVU1207
	movslq	%esi, %r11	# i, i
# sub_64_aligned.c:822:     for (int i = 0; i < n; i++)
	.loc 1 822 29 view .LVU1208
	leal	11(%rax), %edi	#, i
# sub_64_aligned.c:824:         str[i] = digits[i] + '0';
	.loc 1 824 28 view .LVU1209
	leal	48(%rcx), %r9d	#, tmp319
	movb	%r9b, (%r8,%r11)	# tmp319, *_196
	.loc 1 822 29 is_stmt 1 view .LVU1210
.LVL345:
	.loc 1 822 23 view .LVU1211
	cmpl	%edi, %ebx	# i, n
	jle	.L280	#,
	.loc 1 824 9 view .LVU1212
# sub_64_aligned.c:824:         str[i] = digits[i] + '0';
	.loc 1 824 28 is_stmt 0 view .LVU1213
	movzbl	88(%rbp,%rdx), %esi	# *_204, tmp441
# sub_64_aligned.c:824:         str[i] = digits[i] + '0';
	.loc 1 824 24 view .LVU1214
	movslq	%edi, %r10	# i, i
# sub_64_aligned.c:822:     for (int i = 0; i < n; i++)
	.loc 1 822 29 view .LVU1215
	leal	12(%rax), %ecx	#, i
# sub_64_aligned.c:824:         str[i] = digits[i] + '0';
	.loc 1 824 28 view .LVU1216
	leal	48(%rsi), %r11d	#, tmp322
	movb	%r11b, (%r8,%r10)	# tmp322, *_208
	.loc 1 822 29 is_stmt 1 view .LVU1217
.LVL346:
	.loc 1 822 23 view .LVU1218
	cmpl	%ecx, %ebx	# i, n
	jle	.L280	#,
	.loc 1 824 9 view .LVU1219
# sub_64_aligned.c:824:         str[i] = digits[i] + '0';
	.loc 1 824 28 is_stmt 0 view .LVU1220
	movzbl	96(%rbp,%rdx), %edi	# *_216, tmp442
# sub_64_aligned.c:824:         str[i] = digits[i] + '0';
	.loc 1 824 24 view .LVU1221
	movslq	%ecx, %r9	# i, i
# sub_64_aligned.c:822:     for (int i = 0; i < n; i++)
	.loc 1 822 29 view .LVU1222
	leal	13(%rax), %r10d	#, i
# sub_64_aligned.c:824:         str[i] = digits[i] + '0';
	.loc 1 824 28 view .LVU1223
	addl	$48, %edi	#, tmp325
	movb	%dil, (%r8,%r9)	# tmp325, *_220
	.loc 1 822 29 is_stmt 1 view .LVU1224
.LVL347:
	.loc 1 822 23 view .LVU1225
	cmpl	%r10d, %ebx	# i, n
	jle	.L280	#,
	.loc 1 824 9 view .LVU1226
# sub_64_aligned.c:824:         str[i] = digits[i] + '0';
	.loc 1 824 28 is_stmt 0 view .LVU1227
	movzbl	104(%rbp,%rdx), %esi	# *_228, tmp443
# sub_64_aligned.c:824:         str[i] = digits[i] + '0';
	.loc 1 824 24 view .LVU1228
	movslq	%r10d, %r11	# i, i
# sub_64_aligned.c:822:     for (int i = 0; i < n; i++)
	.loc 1 822 29 view .LVU1229
	addl	$14, %eax	#, i
# sub_64_aligned.c:824:         str[i] = digits[i] + '0';
	.loc 1 824 28 view .LVU1230
	leal	48(%rsi), %ecx	#, tmp328
	movb	%cl, (%r8,%r11)	# tmp328, *_232
	.loc 1 822 29 is_stmt 1 view .LVU1231
.LVL348:
	.loc 1 822 23 view .LVU1232
	cmpl	%eax, %ebx	# i, n
	jle	.L280	#,
	.loc 1 824 9 view .LVU1233
# sub_64_aligned.c:824:         str[i] = digits[i] + '0';
	.loc 1 824 28 is_stmt 0 view .LVU1234
	movq	112(%rbp,%rdx), %rbp	# *_34, *_34
.LVL349:
# sub_64_aligned.c:824:         str[i] = digits[i] + '0';
	.loc 1 824 24 view .LVU1235
	cltq
# sub_64_aligned.c:824:         str[i] = digits[i] + '0';
	.loc 1 824 28 view .LVU1236
	addl	$48, %ebp	#, tmp331
	movb	%bpl, (%r8,%rax)	# tmp331, *_30
	.loc 1 822 29 is_stmt 1 view .LVU1237
	.loc 1 822 23 view .LVU1238
.L280:
	.loc 1 822 23 is_stmt 0 view .LVU1239
.LBE412:
	.loc 1 826 5 is_stmt 1 view .LVU1240
# sub_64_aligned.c:826:     str[n] = '\0';
	.loc 1 826 12 is_stmt 0 view .LVU1241
	movb	$0, (%r8,%rbx)	#, *_13
	.loc 1 827 5 is_stmt 1 view .LVU1242
# sub_64_aligned.c:828: }
	.loc 1 828 1 is_stmt 0 view .LVU1243
	addq	$8, %rsp	#,
	.cfi_remember_state
	.cfi_def_cfa_offset 24
	movq	%r8, %rax	# <retval>,
	popq	%rbx	#
	.cfi_def_cfa_offset 16
.LVL350:
	.loc 1 828 1 view .LVU1244
	popq	%rbp	#
	.cfi_def_cfa_offset 8
	ret	
.LVL351:
.L284:
	.cfi_restore_state
.LBB413:
# sub_64_aligned.c:822:     for (int i = 0; i < n; i++)
	.loc 1 822 14 view .LVU1245
	xorl	%eax, %eax	# tmp.274
	jmp	.L281	#
.LVL352:
.L278:
	.loc 1 822 14 view .LVU1246
.LBE413:
.LBB414:
.LBI414:
	.loc 1 814 7 is_stmt 1 view .LVU1247
.LBB415:
	.loc 1 819 9 view .LVU1248
	leaq	.LC23(%rip), %rdi	#, tmp257
	call	perror@PLT	#
.LVL353:
	.loc 1 820 9 view .LVU1249
	xorl	%edi, %edi	#
	call	exit@PLT	#
.LVL354:
.LBE415:
.LBE414:
	.cfi_endproc
.LFE5799:
	.size	convert_digits_to_string, .-convert_digits_to_string
	.section	.rodata.str1.8
	.align 8
.LC26:
	.string	"experiments/sub_limb_avx_%d_%d.csv"
	.section	.rodata.str1.1
.LC27:
	.string	"experiments/GMP_%d_%d.csv"
.LC28:
	.string	"experiments/my_time_%d_%d.csv"
	.section	.rodata.str1.8
	.align 8
.LC29:
	.string	"experiments/gmp_time_%d_%d.csv"
	.section	.rodata.str1.1
.LC30:
	.string	"Number of bits = %d\n"
.LC31:
	.string	"Number of digits = %d\n"
.LC32:
	.string	"Running tests"
.LC33:
	.string	"Test 1: No Borrow-Propagation"
	.section	.rodata.str1.8
	.align 8
.LC34:
	.string	"Running test 1, with %d iterations\n"
	.section	.rodata.str1.1
.LC35:
	.string	"Error in rdtsc\n"
	.section	.rodata.str1.8
	.align 8
.LC36:
	.string	"Test 1 failed, at iteration %d\n"
	.section	.rodata.str1.1
.LC37:
	.string	"Test 1 iteration %d passed\n"
.LC38:
	.string	"Test 1 completed"
	.section	.rodata.str1.8
	.align 8
.LC39:
	.string	"rdtsc for test 1 = %llu, rdtsc for test 1 gmp = %llu\n"
	.section	.rodata.str1.1
.LC40:
	.string	"RDTSC Speedup: %f\n"
	.text
	.p2align 4
	.globl	run_tests
	.type	run_tests, @function
run_tests:
.LFB5800:
	.loc 1 841 1 view -0
	.cfi_startproc
	endbr64	
	leaq	8(%rsp), %r10	#,
	.cfi_def_cfa 10, 0
	andq	$-64, %rsp	#,
	pushq	-8(%r10)	#
	pushq	%rbp	#
	movq	%rsp, %rbp	#,
	.cfi_escape 0x10,0x6,0x2,0x76,0
	pushq	%r15	#
	pushq	%r14	#
	.cfi_escape 0x10,0xf,0x2,0x76,0x78
	.cfi_escape 0x10,0xe,0x2,0x76,0x70
.LBB540:
.LBB541:
# sub_64_aligned.c:604:     FILE *file = fopen(filename, "w");
	.loc 1 604 18 is_stmt 0 view .LVU1251
	leaq	.LC13(%rip), %r14	#, tmp1037
.LBE541:
.LBE540:
# sub_64_aligned.c:841: {
	.loc 1 841 1 view .LVU1252
	pushq	%r13	#
	pushq	%r12	#
	pushq	%r10	#
	.cfi_escape 0xf,0x3,0x76,0x58,0x6
	.cfi_escape 0x10,0xd,0x2,0x76,0x68
	.cfi_escape 0x10,0xc,0x2,0x76,0x60
	pushq	%rbx	#
	.cfi_escape 0x10,0x3,0x2,0x76,0x50
.LBB553:
.LBB554:
# /usr/include/x86_64-linux-gnu/bits/stdio2.h:71:   return __builtin___snprintf_chk (__s, __n, __USE_FORTIFY_LEVEL - 1,
	.loc 6 71 10 view .LVU1253
	leaq	-1088(%rbp), %rbx	#, _252
.LBE554:
.LBE553:
# sub_64_aligned.c:841: {
	.loc 1 841 1 view .LVU1254
	subq	$1472, %rsp	#,
# sub_64_aligned.c:841: {
	.loc 1 841 1 view .LVU1255
	movq	%fs:40, %rax	# MEM[(<address-space-1> long unsigned int *)40B], tmp1541
	movq	%rax, -56(%rbp)	# tmp1541, D.39990
	xorl	%eax, %eax	# tmp1541
	.loc 1 842 5 is_stmt 1 view .LVU1256
	call	initialize_perf	#
.LVL355:
	.loc 1 843 5 view .LVU1257
	.loc 1 844 5 view .LVU1258
	.loc 1 845 5 view .LVU1259
	.loc 1 846 5 view .LVU1260
	.loc 1 848 5 view .LVU1261
.LBB556:
.LBI553:
	.loc 6 68 1 view .LVU1262
.LBB555:
	.loc 6 71 3 view .LVU1263
# /usr/include/x86_64-linux-gnu/bits/stdio2.h:71:   return __builtin___snprintf_chk (__s, __n, __USE_FORTIFY_LEVEL - 1,
	.loc 6 71 10 is_stmt 0 view .LVU1264
	movl	CORE_NO(%rip), %eax	# CORE_NO, CORE_NO
	subq	$8, %rsp	#,
	movl	NUM_BITS(%rip), %r9d	# NUM_BITS,
	leaq	.LC26(%rip), %r8	#,
	movl	$256, %ecx	#,
	movl	$1, %edx	#,
	movq	%rbx, %rdi	# _252,
	pushq	%rax	# CORE_NO
	movl	$256, %esi	#,
	xorl	%eax, %eax	#
	movq	%rbx, -1448(%rbp)	# _252, %sfp
	call	__snprintf_chk@PLT	#
.LVL356:
	.loc 6 71 10 view .LVU1265
.LBE555:
.LBE556:
	.loc 1 849 5 is_stmt 1 view .LVU1266
.LBB557:
.LBI557:
	.loc 6 68 1 view .LVU1267
.LBB558:
	.loc 6 71 3 view .LVU1268
# /usr/include/x86_64-linux-gnu/bits/stdio2.h:71:   return __builtin___snprintf_chk (__s, __n, __USE_FORTIFY_LEVEL - 1,
	.loc 6 71 10 is_stmt 0 view .LVU1269
	movl	CORE_NO(%rip), %ecx	# CORE_NO, CORE_NO
	xorl	%eax, %eax	#
	leaq	-832(%rbp), %rdx	#, tmp1043
.LVL357:
	.loc 6 71 10 view .LVU1270
	movl	NUM_BITS(%rip), %r9d	# NUM_BITS,
	movq	%rdx, %rdi	# tmp1043, tmp1043
	movq	%rdx, -1360(%rbp)	# tmp1043, %sfp
	leaq	.LC27(%rip), %r8	#,
	movl	%ecx, (%rsp)	# CORE_NO,
	movl	$1, %edx	#,
.LVL358:
	.loc 6 71 10 view .LVU1271
	movl	$256, %ecx	#,
	movl	$256, %esi	#,
	call	__snprintf_chk@PLT	#
.LVL359:
	.loc 6 71 10 view .LVU1272
.LBE558:
.LBE557:
	.loc 1 850 5 is_stmt 1 view .LVU1273
.LBB559:
.LBI559:
	.loc 6 68 1 view .LVU1274
.LBB560:
	.loc 6 71 3 view .LVU1275
# /usr/include/x86_64-linux-gnu/bits/stdio2.h:71:   return __builtin___snprintf_chk (__s, __n, __USE_FORTIFY_LEVEL - 1,
	.loc 6 71 10 is_stmt 0 view .LVU1276
	movl	CORE_NO(%rip), %r8d	# CORE_NO, CORE_NO
	movl	$256, %ecx	#,
	xorl	%eax, %eax	#
	leaq	-576(%rbp), %rsi	#, tmp1035
.LVL360:
	.loc 6 71 10 view .LVU1277
	movl	NUM_BITS(%rip), %r9d	# NUM_BITS,
	movl	$1, %edx	#,
	movl	%r8d, (%rsp)	# CORE_NO,
	movq	%rsi, %rdi	# tmp1035, tmp1035
	leaq	.LC28(%rip), %r8	#,
	movq	%rsi, -1352(%rbp)	# tmp1035, %sfp
	movl	$256, %esi	#,
.LVL361:
	.loc 6 71 10 view .LVU1278
	call	__snprintf_chk@PLT	#
.LVL362:
	.loc 6 71 10 view .LVU1279
.LBE560:
.LBE559:
	.loc 1 851 5 is_stmt 1 view .LVU1280
.LBB561:
.LBI561:
	.loc 6 68 1 view .LVU1281
.LBB562:
	.loc 6 71 3 view .LVU1282
# /usr/include/x86_64-linux-gnu/bits/stdio2.h:71:   return __builtin___snprintf_chk (__s, __n, __USE_FORTIFY_LEVEL - 1,
	.loc 6 71 10 is_stmt 0 view .LVU1283
	leaq	-320(%rbp), %r9	#, tmp1048
.LVL363:
	.loc 6 71 10 view .LVU1284
	movl	$256, %ecx	#,
	xorl	%eax, %eax	#
	movl	CORE_NO(%rip), %r11d	# CORE_NO, CORE_NO
	movq	%r9, %rdi	# tmp1048, tmp1048
	movq	%r9, -1368(%rbp)	# tmp1048, %sfp
	movl	$1, %edx	#,
	movl	NUM_BITS(%rip), %r9d	# NUM_BITS,
.LVL364:
	.loc 6 71 10 view .LVU1285
	leaq	.LC29(%rip), %r8	#,
	movl	$256, %esi	#,
	movl	%r11d, (%rsp)	# CORE_NO,
	call	__snprintf_chk@PLT	#
.LVL365:
	.loc 6 71 10 view .LVU1286
.LBE562:
.LBE561:
	.loc 1 852 5 is_stmt 1 view .LVU1287
.LBB563:
.LBI540:
	.loc 1 602 7 view .LVU1288
.LBB551:
	.loc 1 604 5 view .LVU1289
# sub_64_aligned.c:604:     FILE *file = fopen(filename, "w");
	.loc 1 604 18 is_stmt 0 view .LVU1290
	movq	%r14, %rsi	# tmp1037,
	movq	%rbx, %rdi	# _252,
	call	fopen@PLT	#
.LVL366:
# sub_64_aligned.c:606:     if (file == NULL)
	.loc 1 606 8 view .LVU1291
	popq	%rdx	#
	popq	%rcx	#
# sub_64_aligned.c:604:     FILE *file = fopen(filename, "w");
	.loc 1 604 18 view .LVU1292
	movq	%rax, -1408(%rbp)	# file, %sfp
.LVL367:
	.loc 1 606 5 is_stmt 1 view .LVU1293
# sub_64_aligned.c:606:     if (file == NULL)
	.loc 1 606 8 is_stmt 0 view .LVU1294
	testq	%rax, %rax	# file
	je	.L296	#,
	leaq	event_names(%rip), %rdi	#, ivtmp.524
	movq	-1408(%rbp), %rbx	# %sfp, file
.LVL368:
	.loc 1 606 8 view .LVU1295
	leaq	.LC14(%rip), %r13	#, tmp1038
	movq	%rdi, -1376(%rbp)	# ivtmp.524, %sfp
	leaq	48(%rdi), %r12	#, _1025
	movq	%rdi, %r15	# ivtmp.524, ivtmp.531
.LVL369:
	.p2align 4,,10
	.p2align 3
.L295:
.LBB542:
	.loc 1 615 9 is_stmt 1 view .LVU1296
.LBB543:
.LBI543:
	.loc 6 103 1 view .LVU1297
.LBB544:
	.loc 6 105 3 view .LVU1298
# /usr/include/x86_64-linux-gnu/bits/stdio2.h:105:   return __fprintf_chk (__stream, __USE_FORTIFY_LEVEL - 1, __fmt,
	.loc 6 105 10 is_stmt 0 view .LVU1299
	movq	(%r15), %rcx	# MEM[(const char * *)_1023],
	movq	%r13, %rdx	# tmp1038,
	movl	$1, %esi	#,
	movq	%rbx, %rdi	# file,
	xorl	%eax, %eax	#
.LBE544:
.LBE543:
# sub_64_aligned.c:613:     for (int j = 0; j < MAX_EVENTS; j++)
	.loc 1 613 23 view .LVU1300
	addq	$8, %r15	#, ivtmp.531
.LVL370:
.LBB546:
.LBB545:
# /usr/include/x86_64-linux-gnu/bits/stdio2.h:105:   return __fprintf_chk (__stream, __USE_FORTIFY_LEVEL - 1, __fmt,
	.loc 6 105 10 view .LVU1301
	call	__fprintf_chk@PLT	#
.LVL371:
	.loc 6 105 10 view .LVU1302
.LBE545:
.LBE546:
	.loc 1 613 38 is_stmt 1 view .LVU1303
	.loc 1 613 23 view .LVU1304
	cmpq	%r12, %r15	# _1025, ivtmp.531
	jne	.L295	#,
.LBE542:
.LBB547:
.LBB548:
# /usr/include/x86_64-linux-gnu/bits/stdio2.h:105:   return __fprintf_chk (__stream, __USE_FORTIFY_LEVEL - 1, __fmt,
	.loc 6 105 10 is_stmt 0 view .LVU1305
	movq	-1408(%rbp), %rsi	# %sfp,
	movl	$10, %edi	#,
	movq	-1376(%rbp), %rbx	# %sfp, ivtmp.524
.LVL372:
	.loc 6 105 10 view .LVU1306
.LBE548:
.LBE547:
	.loc 1 617 5 is_stmt 1 view .LVU1307
.LBB550:
.LBI547:
	.loc 6 103 1 view .LVU1308
.LBB549:
	.loc 6 105 3 view .LVU1309
# /usr/include/x86_64-linux-gnu/bits/stdio2.h:105:   return __fprintf_chk (__stream, __USE_FORTIFY_LEVEL - 1, __fmt,
	.loc 6 105 10 is_stmt 0 view .LVU1310
	call	fputc@PLT	#
.LVL373:
	.loc 6 105 10 view .LVU1311
.LBE549:
.LBE550:
	.loc 1 618 5 is_stmt 1 view .LVU1312
	.loc 1 618 5 is_stmt 0 view .LVU1313
.LBE551:
.LBE563:
	.loc 1 853 5 is_stmt 1 view .LVU1314
.LBB564:
.LBI564:
	.loc 1 602 7 view .LVU1315
.LBB565:
	.loc 1 604 5 view .LVU1316
# sub_64_aligned.c:604:     FILE *file = fopen(filename, "w");
	.loc 1 604 18 is_stmt 0 view .LVU1317
	movq	-1360(%rbp), %rdi	# %sfp,
	movq	%r14, %rsi	# tmp1037,
	call	fopen@PLT	#
.LVL374:
	movq	%rax, -1432(%rbp)	# file, %sfp
.LVL375:
	.loc 1 606 5 is_stmt 1 view .LVU1318
# sub_64_aligned.c:606:     if (file == NULL)
	.loc 1 606 8 is_stmt 0 view .LVU1319
	testq	%rax, %rax	# file
	je	.L296	#,
	movq	%rax, %r15	# file, file
.LVL376:
	.p2align 4,,10
	.p2align 3
.L297:
.LBB566:
	.loc 1 615 9 is_stmt 1 view .LVU1320
.LBB567:
.LBI567:
	.loc 6 103 1 view .LVU1321
.LBB568:
	.loc 6 105 3 view .LVU1322
# /usr/include/x86_64-linux-gnu/bits/stdio2.h:105:   return __fprintf_chk (__stream, __USE_FORTIFY_LEVEL - 1, __fmt,
	.loc 6 105 10 is_stmt 0 view .LVU1323
	movq	(%rbx), %rcx	# MEM[(const char * *)_1017],
	movq	%r13, %rdx	# tmp1038,
	movl	$1, %esi	#,
	movq	%r15, %rdi	# file,
	xorl	%eax, %eax	#
.LBE568:
.LBE567:
# sub_64_aligned.c:613:     for (int j = 0; j < MAX_EVENTS; j++)
	.loc 1 613 23 view .LVU1324
	addq	$8, %rbx	#, ivtmp.524
.LVL377:
.LBB570:
.LBB569:
# /usr/include/x86_64-linux-gnu/bits/stdio2.h:105:   return __fprintf_chk (__stream, __USE_FORTIFY_LEVEL - 1, __fmt,
	.loc 6 105 10 view .LVU1325
	call	__fprintf_chk@PLT	#
.LVL378:
	.loc 6 105 10 view .LVU1326
.LBE569:
.LBE570:
	.loc 1 613 38 is_stmt 1 view .LVU1327
	.loc 1 613 23 view .LVU1328
	cmpq	%r12, %rbx	# _1025, ivtmp.524
	jne	.L297	#,
.LBE566:
	.loc 1 617 5 view .LVU1329
.LVL379:
.LBB571:
.LBI571:
	.loc 6 103 1 view .LVU1330
.LBB572:
	.loc 6 105 3 view .LVU1331
# /usr/include/x86_64-linux-gnu/bits/stdio2.h:105:   return __fprintf_chk (__stream, __USE_FORTIFY_LEVEL - 1, __fmt,
	.loc 6 105 10 is_stmt 0 view .LVU1332
	movq	-1432(%rbp), %rsi	# %sfp,
	movl	$10, %edi	#,
.LBE572:
.LBE571:
.LBE565:
.LBE564:
# sub_64_aligned.c:861:     mpz_init(sample_num);
	.loc 1 861 5 view .LVU1333
	leaq	-1232(%rbp), %r12	#, tmp684
# sub_64_aligned.c:864:     gmp_randinit_default(state);
	.loc 1 864 5 view .LVU1334
	leaq	-1168(%rbp), %r13	#, tmp685
.LBB576:
.LBB575:
.LBB574:
.LBB573:
# /usr/include/x86_64-linux-gnu/bits/stdio2.h:105:   return __fprintf_chk (__stream, __USE_FORTIFY_LEVEL - 1, __fmt,
	.loc 6 105 10 view .LVU1335
	call	fputc@PLT	#
.LVL380:
	.loc 6 105 10 view .LVU1336
.LBE573:
.LBE574:
	.loc 1 618 5 is_stmt 1 view .LVU1337
	.loc 1 618 5 is_stmt 0 view .LVU1338
.LBE575:
.LBE576:
	.loc 1 854 5 is_stmt 1 view .LVU1339
# sub_64_aligned.c:854:     FILE *time_file = fopen(time_filename, "w");
	.loc 1 854 23 is_stmt 0 view .LVU1340
	movq	-1352(%rbp), %rdi	# %sfp,
	movq	%r14, %rsi	# tmp1037,
	call	fopen@PLT	#
.LVL381:
	.loc 1 855 5 is_stmt 1 view .LVU1341
# sub_64_aligned.c:855:     FILE *time_file_gmp = fopen(time_filename_gmp, "w");
	.loc 1 855 27 is_stmt 0 view .LVU1342
	movq	-1368(%rbp), %rdi	# %sfp,
	movq	%r14, %rsi	# tmp1037,
	call	fopen@PLT	#
.LVL382:
	.loc 1 857 5 is_stmt 1 view .LVU1343
	.loc 1 860 5 view .LVU1344
	.loc 1 861 5 view .LVU1345
	movq	%r12, %rdi	# tmp684,
	call	__gmpz_init@PLT	#
.LVL383:
	.loc 1 862 5 view .LVU1346
	.loc 1 863 5 view .LVU1347
# sub_64_aligned.c:863:     unsigned long seed = generate_seed();
	.loc 1 863 26 is_stmt 0 view .LVU1348
	xorl	%eax, %eax	#
	call	generate_seed	#
.LVL384:
# sub_64_aligned.c:864:     gmp_randinit_default(state);
	.loc 1 864 5 view .LVU1349
	movq	%r13, %rdi	# tmp685,
# sub_64_aligned.c:863:     unsigned long seed = generate_seed();
	.loc 1 863 26 view .LVU1350
	movq	%rax, %r14	# tmp1527, seed
.LVL385:
	.loc 1 864 5 is_stmt 1 view .LVU1351
	call	__gmp_randinit_default@PLT	#
.LVL386:
	.loc 1 865 5 view .LVU1352
	movq	%r14, %rsi	# seed,
	movq	%r13, %rdi	# tmp685,
	call	__gmp_randseed_ui@PLT	#
.LVL387:
	.loc 1 866 5 view .LVU1353
	movslq	NUM_BITS(%rip), %rdx	# NUM_BITS, NUM_BITS
	movq	%r13, %rsi	# tmp685,
	movq	%r12, %rdi	# tmp684,
	call	__gmpz_urandomb@PLT	#
.LVL388:
	.loc 1 867 5 view .LVU1354
# sub_64_aligned.c:867:     char *sample_num_str = mpz_get_str(NULL, 10, sample_num);
	.loc 1 867 28 is_stmt 0 view .LVU1355
	movq	%r12, %rdx	# tmp684,
	movl	$10, %esi	#,
	xorl	%edi, %edi	#
	call	__gmpz_get_str@PLT	#
.LVL389:
	movq	%rax, %rdi	# tmp1528, sample_num_str
.LVL390:
	.loc 1 868 5 is_stmt 1 view .LVU1356
# sub_64_aligned.c:868:     int n = strlen(sample_num_str);
	.loc 1 868 13 is_stmt 0 view .LVU1357
	call	strlen@PLT	#
.LVL391:
.LBB577:
.LBB578:
# /usr/include/x86_64-linux-gnu/bits/stdio2.h:112:   return __printf_chk (__USE_FORTIFY_LEVEL - 1, __fmt, __va_arg_pack ());
	.loc 6 112 10 view .LVU1358
	movl	NUM_BITS(%rip), %edx	# NUM_BITS,
	movl	$1, %edi	#,
	leaq	.LC30(%rip), %rsi	#, tmp696
.LBE578:
.LBE577:
# sub_64_aligned.c:868:     int n = strlen(sample_num_str);
	.loc 1 868 9 view .LVU1359
	movl	%eax, -1360(%rbp)	# n.28_22, %sfp
	movl	%eax, %ebx	# tmp693, n.28_22
	movl	%eax, -1344(%rbp)	# tmp693, n
	.loc 1 870 5 is_stmt 1 view .LVU1360
	.loc 1 872 5 view .LVU1361
	.loc 1 874 5 view .LVU1362
.LVL392:
.LBB580:
.LBI577:
	.loc 6 110 1 view .LVU1363
.LBB579:
	.loc 6 112 3 view .LVU1364
# /usr/include/x86_64-linux-gnu/bits/stdio2.h:112:   return __printf_chk (__USE_FORTIFY_LEVEL - 1, __fmt, __va_arg_pack ());
	.loc 6 112 10 is_stmt 0 view .LVU1365
	xorl	%eax, %eax	#
	call	__printf_chk@PLT	#
.LVL393:
	.loc 6 112 10 view .LVU1366
.LBE579:
.LBE580:
	.loc 1 875 5 is_stmt 1 view .LVU1367
.LBB581:
.LBI581:
	.loc 6 110 1 view .LVU1368
.LBB582:
	.loc 6 112 3 view .LVU1369
# /usr/include/x86_64-linux-gnu/bits/stdio2.h:112:   return __printf_chk (__USE_FORTIFY_LEVEL - 1, __fmt, __va_arg_pack ());
	.loc 6 112 10 is_stmt 0 view .LVU1370
	movl	%ebx, %edx	# n.28_22,
	leaq	.LC31(%rip), %rsi	#, tmp697
	xorl	%eax, %eax	#
	movl	$1, %edi	#,
	call	__printf_chk@PLT	#
.LVL394:
	.loc 6 112 10 view .LVU1371
.LBE582:
.LBE581:
	.loc 1 877 5 is_stmt 1 view .LVU1372
.LBB583:
.LBI583:
	.loc 6 110 1 view .LVU1373
.LBB584:
	.loc 6 112 3 view .LVU1374
# /usr/include/x86_64-linux-gnu/bits/stdio2.h:112:   return __printf_chk (__USE_FORTIFY_LEVEL - 1, __fmt, __va_arg_pack ());
	.loc 6 112 10 is_stmt 0 view .LVU1375
	leaq	.LC32(%rip), %rdi	#, tmp698
	call	puts@PLT	#
.LVL395:
	.loc 6 112 10 view .LVU1376
.LBE584:
.LBE583:
	.loc 1 879 5 is_stmt 1 view .LVU1377
.LBB585:
.LBI585:
	.loc 4 57 1 view .LVU1378
.LBB586:
	.loc 4 59 3 view .LVU1379
# /usr/include/x86_64-linux-gnu/bits/string_fortified.h:59:   return __builtin___memset_chk (__dest, __ch, __len,
	.loc 4 59 10 is_stmt 0 view .LVU1380
	movq	sub_space(%rip), %rdi	# sub_space,
	movl	$1073741824, %edx	#,
	xorl	%esi, %esi	#
	call	memset@PLT	#
.LVL396:
	.loc 4 59 10 view .LVU1381
.LBE586:
.LBE585:
	.loc 1 880 5 is_stmt 1 view .LVU1382
.LBB587:
.LBB588:
# /usr/include/x86_64-linux-gnu/bits/string_fortified.h:59:   return __builtin___memset_chk (__dest, __ch, __len,
	.loc 4 59 10 is_stmt 0 view .LVU1383
	movq	borrow_space(%rip), %rdi	# borrow_space,
	movl	$1073741824, %edx	#,
	xorl	%esi, %esi	#
.LBE588:
.LBE587:
# sub_64_aligned.c:880:     sub_space_ptr = 0;
	.loc 1 880 19 view .LVU1384
	movl	$0, sub_space_ptr(%rip)	#, sub_space_ptr
	.loc 1 882 5 is_stmt 1 view .LVU1385
.LVL397:
.LBB590:
.LBI587:
	.loc 4 57 1 view .LVU1386
.LBB589:
	.loc 4 59 3 view .LVU1387
# /usr/include/x86_64-linux-gnu/bits/string_fortified.h:59:   return __builtin___memset_chk (__dest, __ch, __len,
	.loc 4 59 10 is_stmt 0 view .LVU1388
	call	memset@PLT	#
.LVL398:
	.loc 4 59 10 view .LVU1389
.LBE589:
.LBE590:
	.loc 1 883 5 is_stmt 1 view .LVU1390
.LBB591:
.LBB592:
# /usr/include/x86_64-linux-gnu/bits/stdio2.h:112:   return __printf_chk (__USE_FORTIFY_LEVEL - 1, __fmt, __va_arg_pack ());
	.loc 6 112 10 is_stmt 0 view .LVU1391
	leaq	.LC33(%rip), %rdi	#, tmp709
.LBE592:
.LBE591:
# sub_64_aligned.c:883:     borrow_space_ptr = 0;
	.loc 1 883 22 view .LVU1392
	movl	$0, borrow_space_ptr(%rip)	#, borrow_space_ptr
	.loc 1 885 5 is_stmt 1 view .LVU1393
.LVL399:
.LBB594:
.LBI591:
	.loc 6 110 1 view .LVU1394
.LBB593:
	.loc 6 112 3 view .LVU1395
# /usr/include/x86_64-linux-gnu/bits/stdio2.h:112:   return __printf_chk (__USE_FORTIFY_LEVEL - 1, __fmt, __va_arg_pack ());
	.loc 6 112 10 is_stmt 0 view .LVU1396
	call	puts@PLT	#
.LVL400:
	.loc 6 112 10 view .LVU1397
.LBE593:
.LBE594:
	.loc 1 886 5 is_stmt 1 view .LVU1398
	.loc 1 887 5 view .LVU1399
	.loc 1 889 5 view .LVU1400
	.loc 1 890 5 view .LVU1401
	.loc 1 891 5 view .LVU1402
	.loc 1 892 5 view .LVU1403
	.loc 1 893 5 view .LVU1404
	.loc 1 895 5 view .LVU1405
	.loc 1 896 5 view .LVU1406
.LBB595:
.LBI595:
	.loc 6 110 1 view .LVU1407
.LBB596:
	.loc 6 112 3 view .LVU1408
# /usr/include/x86_64-linux-gnu/bits/stdio2.h:112:   return __printf_chk (__USE_FORTIFY_LEVEL - 1, __fmt, __va_arg_pack ());
	.loc 6 112 10 is_stmt 0 view .LVU1409
	movl	$100000, %edx	#,
	leaq	.LC34(%rip), %rsi	#, tmp710
	xorl	%eax, %eax	#
	movl	$1, %edi	#,
	call	__printf_chk@PLT	#
.LVL401:
	.loc 6 112 10 view .LVU1410
.LBE596:
.LBE595:
	.loc 1 897 5 is_stmt 1 view .LVU1411
.LBB597:
	.loc 1 897 10 view .LVU1412
	.loc 1 897 23 view .LVU1413
	leaq	-1264(%rbp), %r10	#, tmp1036
	leaq	-1328(%rbp), %rax	#, tmp1049
# sub_64_aligned.c:897:     for (int i = 0; i < ITERATIONS; i++)
	.loc 1 897 14 is_stmt 0 view .LVU1414
	movl	$0, -1376(%rbp)	#, %sfp
.LBE597:
# sub_64_aligned.c:895:     unsigned long long test1_rdtsc = 0, test1_rdtsc_gmp = 0;
	.loc 1 895 41 view .LVU1415
	movq	$0, -1480(%rbp)	#, %sfp
# sub_64_aligned.c:895:     unsigned long long test1_rdtsc = 0, test1_rdtsc_gmp = 0;
	.loc 1 895 24 view .LVU1416
	movq	$0, -1472(%rbp)	#, %sfp
	movq	%r10, -1416(%rbp)	# tmp1036, %sfp
	movq	%rax, -1424(%rbp)	# tmp1049, %sfp
.LVL402:
	.p2align 4,,10
	.p2align 3
.L346:
.LBB740:
.LBB598:
	.loc 1 900 9 is_stmt 1 view .LVU1417
	.loc 1 905 9 view .LVU1418
	movl	-1360(%rbp), %r15d	# %sfp, n.28_22
	movq	-1416(%rbp), %rsi	# %sfp,
	movq	-1424(%rbp), %rdi	# %sfp,
	movl	%r15d, %edx	# n.28_22,
	call	generate_no_borrow_propagation	#
.LVL403:
	.loc 1 921 9 view .LVU1419
.LBB599:
.LBB600:
# sub_64_aligned.c:816:     char *str = (char *)calloc(n + 1, sizeof(char));
	.loc 1 816 34 is_stmt 0 view .LVU1420
	leal	1(%r15), %edx	#, tmp713
# sub_64_aligned.c:816:     char *str = (char *)calloc(n + 1, sizeof(char));
	.loc 1 816 25 view .LVU1421
	movl	$1, %esi	#,
.LBE600:
.LBE599:
# sub_64_aligned.c:921:         char *a1_str_test1 = convert_digits_to_string(a1_test1, n);
	.loc 1 921 30 view .LVU1422
	movq	-1328(%rbp), %rbx	# a1_test1, a1_test1.25_19
.LVL404:
.LBB609:
.LBI599:
	.loc 1 814 7 is_stmt 1 view .LVU1423
.LBB606:
	.loc 1 816 5 view .LVU1424
# sub_64_aligned.c:816:     char *str = (char *)calloc(n + 1, sizeof(char));
	.loc 1 816 25 is_stmt 0 view .LVU1425
	movslq	%edx, %r12	# tmp713, _275
	movq	%r12, %rdi	# _275,
	call	calloc@PLT	#
.LVL405:
	movq	%rax, -1368(%rbp)	# str, %sfp
.LVL406:
	.loc 1 817 5 is_stmt 1 view .LVU1426
# sub_64_aligned.c:817:     if (str == NULL)
	.loc 1 817 8 is_stmt 0 view .LVU1427
	testq	%rax, %rax	# str
	je	.L298	#,
.LVL407:
.LBB601:
	.loc 1 822 23 is_stmt 1 view .LVU1428
.LBE601:
# sub_64_aligned.c:826:     str[n] = '\0';
	.loc 1 826 8 is_stmt 0 view .LVU1429
	movslq	%r15d, %r13	# n.28_22, _439
	leaq	(%rax,%r13), %rsi	#, _440
.LBB602:
# sub_64_aligned.c:822:     for (int i = 0; i < n; i++)
	.loc 1 822 23 view .LVU1430
	testl	%r15d, %r15d	# n.28_22
	jle	.L786	#,
	movl	-1360(%rbp), %ecx	# %sfp, n.28_22
	leaq	0(,%r13,8), %r14	#, _637
	leaq	(%rbx,%r14), %r11	#, tmp718
	leal	-1(%rcx), %r9d	#, tmp716
	cmpl	$14, %r9d	#, tmp716
	seta	%r15b	#, _634
	cmpq	%r11, %rax	# tmp718, str
	setnb	%dil	#, tmp720
	cmpq	%rsi, %rbx	# _440, a1_test1.25_19
	setnb	%r10b	#, tmp723
	orb	%r10b, %dil	# tmp723, tmp1542
	je	.L301	#,
	testb	%r15b, %r15b	# _634
	je	.L301	#,
	shrl	$4, %ecx	#, bnd.363
	leaq	128(%rbx), %r9	#, tmp729
	movq	%rbx, %rdi	# a1_test1.25_19, ivtmp.505
	movq	%rax, %rdx	# str, ivtmp.508
	subl	$1, %ecx	#, tmp727
	salq	$7, %rcx	#, tmp728
	addq	%r9, %rcx	# tmp729, _1013
	movq	%rcx, %r8	# _1013, tmp1106
	subq	%rbx, %r8	# a1_test1.25_19, tmp1106
	andl	$128, %r8d	#, tmp1106
	je	.L302	#,
.LVL408:
	.loc 1 824 9 is_stmt 1 view .LVU1431
# sub_64_aligned.c:824:         str[i] = digits[i] + '0';
	.loc 1 824 28 is_stmt 0 view .LVU1432
	movdqu	(%rbx), %xmm0	# MEM <vector(2) long unsigned int> [(uint64_t *)_999], vect__282.378
	movdqu	16(%rbx), %xmm4	# MEM <vector(2) long unsigned int> [(uint64_t *)_999 + 16B], tmp2011
	movq	%r9, %rdi	# tmp729, ivtmp.505
	movdqu	32(%rbx), %xmm1	# MEM <vector(2) long unsigned int> [(uint64_t *)_999 + 32B], vect__282.378
	movdqu	48(%rbx), %xmm5	# MEM <vector(2) long unsigned int> [(uint64_t *)_999 + 48B], tmp2013
	movdqu	64(%rbx), %xmm8	# MEM <vector(2) long unsigned int> [(uint64_t *)_999 + 64B], vect__282.378
	movdqu	80(%rbx), %xmm6	# MEM <vector(2) long unsigned int> [(uint64_t *)_999 + 80B], tmp2017
	shufps	$136, %xmm4, %xmm0	#, tmp2011, vect__282.378
	movdqa	%xmm0, %xmm2	# vect__282.378, tmp1505
	movdqu	96(%rbx), %xmm9	# MEM <vector(2) long unsigned int> [(uint64_t *)_999 + 96B], vect__282.378
	movdqu	112(%rbx), %xmm7	# MEM <vector(2) long unsigned int> [(uint64_t *)_999 + 112B], tmp2019
	shufps	$136, %xmm5, %xmm1	#, tmp2013, vect__282.378
	punpcklwd	%xmm1, %xmm0	# vect__282.378, vect__282.377
	shufps	$136, %xmm6, %xmm8	#, tmp2017, vect__282.378
	movdqa	%xmm8, %xmm10	# vect__282.378, tmp1516
	punpckhwd	%xmm1, %xmm2	# vect__282.378, tmp1505
	movdqa	%xmm0, %xmm3	# vect__282.377, tmp1507
	shufps	$136, %xmm7, %xmm9	#, tmp2019, vect__282.378
	punpcklwd	%xmm9, %xmm8	# vect__282.378, vect__282.377
	punpckhwd	%xmm9, %xmm10	# vect__282.378, tmp1516
	punpckhwd	%xmm2, %xmm3	# tmp1505, tmp1507
	movdqa	%xmm8, %xmm11	# vect__282.377, tmp1518
	punpcklwd	%xmm2, %xmm0	# tmp1505, vect__282.377
	punpcklwd	%xmm10, %xmm8	# tmp1516, vect__282.377
# sub_64_aligned.c:824:         str[i] = digits[i] + '0';
	.loc 1 824 16 view .LVU1433
	movq	-1368(%rbp), %rdx	# %sfp, str
# sub_64_aligned.c:824:         str[i] = digits[i] + '0';
	.loc 1 824 28 view .LVU1434
	punpckhwd	%xmm10, %xmm11	# tmp1516, tmp1518
	punpcklwd	%xmm3, %xmm0	# tmp1507, vect__282.377
	pand	.LC24(%rip), %xmm0	#, tmp1521
	punpcklwd	%xmm11, %xmm8	# tmp1518, vect__282.377
	addq	$16, %rdx	#, ivtmp.508
	pand	.LC24(%rip), %xmm8	#, tmp1522
	packuswb	%xmm8, %xmm0	# tmp1522, vect__282.376
	paddb	.LC25(%rip), %xmm0	#, vect__283.379
# sub_64_aligned.c:824:         str[i] = digits[i] + '0';
	.loc 1 824 16 view .LVU1435
	movups	%xmm0, -16(%rdx)	# vect__283.379, MEM <vector(16) char> [(char *)_1007]
	.loc 1 822 29 is_stmt 1 view .LVU1436
	.loc 1 822 23 view .LVU1437
	cmpq	%rcx, %r9	# _1013, ivtmp.505
	je	.L744	#,
	.p2align 4,,10
	.p2align 3
.L302:
	.loc 1 824 9 view .LVU1438
# sub_64_aligned.c:824:         str[i] = digits[i] + '0';
	.loc 1 824 28 is_stmt 0 view .LVU1439
	movdqu	16(%rdi), %xmm13	# MEM <vector(2) long unsigned int> [(uint64_t *)_999 + 16B], tmp1678
	movdqu	48(%rdi), %xmm15	# MEM <vector(2) long unsigned int> [(uint64_t *)_999 + 48B], tmp1680
	addq	$32, %rdx	#, ivtmp.508
	addq	$256, %rdi	#, ivtmp.505
	movdqu	-176(%rdi), %xmm5	# MEM <vector(2) long unsigned int> [(uint64_t *)_999 + 80B], tmp1684
	movdqu	-192(%rdi), %xmm1	# MEM <vector(2) long unsigned int> [(uint64_t *)_999 + 64B], vect__282.378
	movdqu	-160(%rdi), %xmm2	# MEM <vector(2) long unsigned int> [(uint64_t *)_999 + 96B], vect__282.378
	movdqu	-144(%rdi), %xmm3	# MEM <vector(2) long unsigned int> [(uint64_t *)_999 + 112B], tmp1686
	movdqu	-256(%rdi), %xmm12	# MEM <vector(2) long unsigned int> [(uint64_t *)_999], vect__282.378
	shufps	$136, %xmm5, %xmm1	#, tmp1684, vect__282.378
	movdqa	%xmm1, %xmm8	# vect__282.378, tmp746
	movdqu	-224(%rdi), %xmm14	# MEM <vector(2) long unsigned int> [(uint64_t *)_999 + 32B], vect__282.378
	shufps	$136, %xmm3, %xmm2	#, tmp1686, vect__282.378
	punpcklwd	%xmm2, %xmm1	# vect__282.378, vect__282.377
	punpckhwd	%xmm2, %xmm8	# vect__282.378, tmp746
	shufps	$136, %xmm15, %xmm14	#, tmp1680, vect__282.378
	shufps	$136, %xmm13, %xmm12	#, tmp1678, vect__282.378
	movdqa	%xmm12, %xmm0	# vect__282.378, tmp737
	punpcklwd	%xmm14, %xmm12	# vect__282.378, vect__282.377
	punpckhwd	%xmm14, %xmm0	# vect__282.378, tmp737
	movdqa	%xmm12, %xmm4	# vect__282.377, tmp738
	movdqa	%xmm1, %xmm6	# vect__282.377, tmp747
	punpckhwd	%xmm0, %xmm4	# tmp737, tmp738
	punpcklwd	%xmm0, %xmm12	# tmp737, vect__282.377
	punpckhwd	%xmm8, %xmm6	# tmp746, tmp747
	punpcklwd	%xmm8, %xmm1	# tmp746, vect__282.377
	punpcklwd	%xmm4, %xmm12	# tmp738, vect__282.377
	pand	.LC24(%rip), %xmm12	#, tmp749
	punpcklwd	%xmm6, %xmm1	# tmp747, vect__282.377
	pand	.LC24(%rip), %xmm1	#, tmp750
	packuswb	%xmm1, %xmm12	# tmp750, vect__282.376
	paddb	.LC25(%rip), %xmm12	#, vect__283.379
# sub_64_aligned.c:824:         str[i] = digits[i] + '0';
	.loc 1 824 16 view .LVU1440
	movups	%xmm12, -32(%rdx)	# vect__283.379, MEM <vector(16) char> [(char *)_1007]
	.loc 1 822 29 is_stmt 1 view .LVU1441
	.loc 1 822 23 view .LVU1442
	.loc 1 824 9 view .LVU1443
# sub_64_aligned.c:824:         str[i] = digits[i] + '0';
	.loc 1 824 28 is_stmt 0 view .LVU1444
	movdqu	-128(%rdi), %xmm9	# MEM <vector(2) long unsigned int> [(uint64_t *)_999], vect__282.378
	movdqu	-112(%rdi), %xmm7	# MEM <vector(2) long unsigned int> [(uint64_t *)_999 + 16B], tmp1690
	movdqu	-96(%rdi), %xmm10	# MEM <vector(2) long unsigned int> [(uint64_t *)_999 + 32B], vect__282.378
	movdqu	-80(%rdi), %xmm11	# MEM <vector(2) long unsigned int> [(uint64_t *)_999 + 48B], tmp1692
	movdqu	-64(%rdi), %xmm14	# MEM <vector(2) long unsigned int> [(uint64_t *)_999 + 64B], vect__282.378
	movdqu	-48(%rdi), %xmm15	# MEM <vector(2) long unsigned int> [(uint64_t *)_999 + 80B], tmp1696
	shufps	$136, %xmm7, %xmm9	#, tmp1690, vect__282.378
	movdqa	%xmm9, %xmm12	# vect__282.378, tmp1124
# sub_64_aligned.c:824:         str[i] = digits[i] + '0';
	.loc 1 824 24 view .LVU1445
	movdqu	-32(%rdi), %xmm0	# MEM <vector(2) long unsigned int> [(uint64_t *)_999 + 96B], vect__281.374
	movdqu	-16(%rdi), %xmm4	# MEM <vector(2) long unsigned int> [(uint64_t *)_999 + 112B], vect__281.375
# sub_64_aligned.c:824:         str[i] = digits[i] + '0';
	.loc 1 824 28 view .LVU1446
	shufps	$136, %xmm11, %xmm10	#, tmp1692, vect__282.378
	punpcklwd	%xmm10, %xmm9	# vect__282.378, vect__282.377
	shufps	$136, %xmm15, %xmm14	#, tmp1696, vect__282.378
	movdqa	%xmm14, %xmm1	# vect__282.378, tmp1135
	punpckhwd	%xmm10, %xmm12	# vect__282.378, tmp1124
	movdqa	%xmm9, %xmm13	# vect__282.377, tmp1126
	shufps	$136, %xmm4, %xmm0	#, vect__281.375, vect__282.378
	punpcklwd	%xmm0, %xmm14	# vect__282.378, vect__282.377
	punpckhwd	%xmm0, %xmm1	# vect__282.378, tmp1135
	punpckhwd	%xmm12, %xmm13	# tmp1124, tmp1126
	movdqa	%xmm14, %xmm5	# vect__282.377, tmp1137
	punpcklwd	%xmm12, %xmm9	# tmp1124, vect__282.377
	punpcklwd	%xmm1, %xmm14	# tmp1135, vect__282.377
	punpckhwd	%xmm1, %xmm5	# tmp1135, tmp1137
	punpcklwd	%xmm13, %xmm9	# tmp1126, vect__282.377
	pand	.LC24(%rip), %xmm9	#, tmp1140
	punpcklwd	%xmm5, %xmm14	# tmp1137, vect__282.377
	pand	.LC24(%rip), %xmm14	#, tmp1141
	packuswb	%xmm14, %xmm9	# tmp1141, vect__282.376
	paddb	.LC25(%rip), %xmm9	#, vect__283.379
# sub_64_aligned.c:824:         str[i] = digits[i] + '0';
	.loc 1 824 16 view .LVU1447
	movups	%xmm9, -16(%rdx)	# vect__283.379, MEM <vector(16) char> [(char *)_1007]
	.loc 1 822 29 is_stmt 1 view .LVU1448
	.loc 1 822 23 view .LVU1449
	cmpq	%rcx, %rdi	# _1013, ivtmp.505
	jne	.L302	#,
.L744:
	movl	-1360(%rbp), %r11d	# %sfp, n.28_22
	movl	%r11d, %eax	# n.28_22, niters_vector_mult_vf.364
.LVL409:
	.loc 1 822 23 is_stmt 0 view .LVU1450
	andl	$-16, %eax	#, niters_vector_mult_vf.364
	testb	$15, %r11b	#, n.28_22
	je	.L305	#,
.LVL410:
	.loc 1 824 9 is_stmt 1 view .LVU1451
# sub_64_aligned.c:824:         str[i] = digits[i] + '0';
	.loc 1 824 24 is_stmt 0 view .LVU1452
	movl	%eax, %ecx	# niters_vector_mult_vf.364, _817
# sub_64_aligned.c:824:         str[i] = digits[i] + '0';
	.loc 1 824 28 view .LVU1453
	movq	-1368(%rbp), %r10	# %sfp, str
# sub_64_aligned.c:822:     for (int i = 0; i < n; i++)
	.loc 1 822 29 view .LVU1454
	leal	1(%rax), %edx	#, i
# sub_64_aligned.c:824:         str[i] = digits[i] + '0';
	.loc 1 824 28 view .LVU1455
	movzbl	(%rbx,%rcx,8), %r8d	# *_819, tmp1701
# sub_64_aligned.c:824:         str[i] = digits[i] + '0';
	.loc 1 824 24 view .LVU1456
	leaq	0(,%rcx,8), %r9	#, _818
# sub_64_aligned.c:824:         str[i] = digits[i] + '0';
	.loc 1 824 28 view .LVU1457
	addl	$48, %r8d	#, tmp755
	movb	%r8b, (%r10,%rcx)	# tmp755, *_823
	.loc 1 822 29 is_stmt 1 view .LVU1458
.LVL411:
	.loc 1 822 23 view .LVU1459
	cmpl	%edx, %r11d	# i, n.28_22
	jle	.L305	#,
	.loc 1 824 9 view .LVU1460
# sub_64_aligned.c:824:         str[i] = digits[i] + '0';
	.loc 1 824 28 is_stmt 0 view .LVU1461
	movzbl	8(%rbx,%r9), %edi	# *_831, tmp1704
# sub_64_aligned.c:824:         str[i] = digits[i] + '0';
	.loc 1 824 24 view .LVU1462
	movslq	%edx, %rcx	# i, i
# sub_64_aligned.c:822:     for (int i = 0; i < n; i++)
	.loc 1 822 29 view .LVU1463
	leal	2(%rax), %r8d	#, i
# sub_64_aligned.c:824:         str[i] = digits[i] + '0';
	.loc 1 824 28 view .LVU1464
	addl	$48, %edi	#, tmp758
	movb	%dil, (%r10,%rcx)	# tmp758, *_835
	.loc 1 822 29 is_stmt 1 view .LVU1465
.LVL412:
	.loc 1 822 23 view .LVU1466
	cmpl	%r8d, %r11d	# i, n.28_22
	jle	.L305	#,
	.loc 1 824 9 view .LVU1467
# sub_64_aligned.c:824:         str[i] = digits[i] + '0';
	.loc 1 824 28 is_stmt 0 view .LVU1468
	movzbl	16(%rbx,%r9), %ecx	# *_843, tmp1707
# sub_64_aligned.c:824:         str[i] = digits[i] + '0';
	.loc 1 824 24 view .LVU1469
	movslq	%r8d, %rdx	# i, i
# sub_64_aligned.c:822:     for (int i = 0; i < n; i++)
	.loc 1 822 29 view .LVU1470
	leal	3(%rax), %edi	#, i
# sub_64_aligned.c:824:         str[i] = digits[i] + '0';
	.loc 1 824 28 view .LVU1471
	addl	$48, %ecx	#, tmp761
	movb	%cl, (%r10,%rdx)	# tmp761, *_847
	.loc 1 822 29 is_stmt 1 view .LVU1472
.LVL413:
	.loc 1 822 23 view .LVU1473
	cmpl	%edi, %r11d	# i, n.28_22
	jle	.L305	#,
	.loc 1 824 9 view .LVU1474
# sub_64_aligned.c:824:         str[i] = digits[i] + '0';
	.loc 1 824 28 is_stmt 0 view .LVU1475
	movzbl	24(%rbx,%r9), %edx	# *_855, tmp1710
# sub_64_aligned.c:824:         str[i] = digits[i] + '0';
	.loc 1 824 24 view .LVU1476
	movslq	%edi, %r8	# i, i
# sub_64_aligned.c:822:     for (int i = 0; i < n; i++)
	.loc 1 822 29 view .LVU1477
	leal	4(%rax), %ecx	#, i
# sub_64_aligned.c:824:         str[i] = digits[i] + '0';
	.loc 1 824 28 view .LVU1478
	addl	$48, %edx	#, tmp764
	movb	%dl, (%r10,%r8)	# tmp764, *_859
	.loc 1 822 29 is_stmt 1 view .LVU1479
.LVL414:
	.loc 1 822 23 view .LVU1480
	cmpl	%ecx, %r11d	# i, n.28_22
	jle	.L305	#,
	.loc 1 824 9 view .LVU1481
# sub_64_aligned.c:824:         str[i] = digits[i] + '0';
	.loc 1 824 28 is_stmt 0 view .LVU1482
	movzbl	32(%rbx,%r9), %edi	# *_867, tmp1713
# sub_64_aligned.c:824:         str[i] = digits[i] + '0';
	.loc 1 824 24 view .LVU1483
	movslq	%ecx, %r8	# i, i
# sub_64_aligned.c:822:     for (int i = 0; i < n; i++)
	.loc 1 822 29 view .LVU1484
	leal	5(%rax), %edx	#, i
# sub_64_aligned.c:824:         str[i] = digits[i] + '0';
	.loc 1 824 28 view .LVU1485
	addl	$48, %edi	#, tmp767
	movb	%dil, (%r10,%r8)	# tmp767, *_871
	.loc 1 822 29 is_stmt 1 view .LVU1486
.LVL415:
	.loc 1 822 23 view .LVU1487
	cmpl	%edx, %r11d	# i, n.28_22
	jle	.L305	#,
	.loc 1 824 9 view .LVU1488
# sub_64_aligned.c:824:         str[i] = digits[i] + '0';
	.loc 1 824 28 is_stmt 0 view .LVU1489
	movzbl	40(%rbx,%r9), %r8d	# *_879, tmp1716
# sub_64_aligned.c:824:         str[i] = digits[i] + '0';
	.loc 1 824 24 view .LVU1490
	movslq	%edx, %rcx	# i, i
# sub_64_aligned.c:822:     for (int i = 0; i < n; i++)
	.loc 1 822 29 view .LVU1491
	leal	6(%rax), %edi	#, i
# sub_64_aligned.c:824:         str[i] = digits[i] + '0';
	.loc 1 824 28 view .LVU1492
	addl	$48, %r8d	#, tmp770
	movb	%r8b, (%r10,%rcx)	# tmp770, *_883
	.loc 1 822 29 is_stmt 1 view .LVU1493
.LVL416:
	.loc 1 822 23 view .LVU1494
	cmpl	%edi, %r11d	# i, n.28_22
	jle	.L305	#,
	.loc 1 824 9 view .LVU1495
# sub_64_aligned.c:824:         str[i] = digits[i] + '0';
	.loc 1 824 28 is_stmt 0 view .LVU1496
	movzbl	48(%rbx,%r9), %ecx	# *_891, tmp1719
# sub_64_aligned.c:824:         str[i] = digits[i] + '0';
	.loc 1 824 24 view .LVU1497
	movslq	%edi, %rdx	# i, i
# sub_64_aligned.c:822:     for (int i = 0; i < n; i++)
	.loc 1 822 29 view .LVU1498
	leal	7(%rax), %r8d	#, i
# sub_64_aligned.c:824:         str[i] = digits[i] + '0';
	.loc 1 824 28 view .LVU1499
	addl	$48, %ecx	#, tmp773
	movb	%cl, (%r10,%rdx)	# tmp773, *_895
	.loc 1 822 29 is_stmt 1 view .LVU1500
.LVL417:
	.loc 1 822 23 view .LVU1501
	cmpl	%r8d, %r11d	# i, n.28_22
	jle	.L305	#,
	.loc 1 824 9 view .LVU1502
# sub_64_aligned.c:824:         str[i] = digits[i] + '0';
	.loc 1 824 28 is_stmt 0 view .LVU1503
	movzbl	56(%rbx,%r9), %edi	# *_903, tmp1722
# sub_64_aligned.c:824:         str[i] = digits[i] + '0';
	.loc 1 824 24 view .LVU1504
	movslq	%r8d, %rdx	# i, i
# sub_64_aligned.c:822:     for (int i = 0; i < n; i++)
	.loc 1 822 29 view .LVU1505
	leal	8(%rax), %ecx	#, i
# sub_64_aligned.c:824:         str[i] = digits[i] + '0';
	.loc 1 824 28 view .LVU1506
	addl	$48, %edi	#, tmp776
	movb	%dil, (%r10,%rdx)	# tmp776, *_907
	.loc 1 822 29 is_stmt 1 view .LVU1507
.LVL418:
	.loc 1 822 23 view .LVU1508
	cmpl	%ecx, %r11d	# i, n.28_22
	jle	.L305	#,
	.loc 1 824 9 view .LVU1509
# sub_64_aligned.c:824:         str[i] = digits[i] + '0';
	.loc 1 824 28 is_stmt 0 view .LVU1510
	movzbl	64(%rbx,%r9), %edx	# *_915, tmp1725
# sub_64_aligned.c:824:         str[i] = digits[i] + '0';
	.loc 1 824 24 view .LVU1511
	movslq	%ecx, %r8	# i, i
# sub_64_aligned.c:822:     for (int i = 0; i < n; i++)
	.loc 1 822 29 view .LVU1512
	leal	9(%rax), %edi	#, i
# sub_64_aligned.c:824:         str[i] = digits[i] + '0';
	.loc 1 824 28 view .LVU1513
	addl	$48, %edx	#, tmp779
	movb	%dl, (%r10,%r8)	# tmp779, *_919
	.loc 1 822 29 is_stmt 1 view .LVU1514
.LVL419:
	.loc 1 822 23 view .LVU1515
	cmpl	%edi, %r11d	# i, n.28_22
	jle	.L305	#,
	.loc 1 824 9 view .LVU1516
# sub_64_aligned.c:824:         str[i] = digits[i] + '0';
	.loc 1 824 28 is_stmt 0 view .LVU1517
	movzbl	72(%rbx,%r9), %r8d	# *_927, tmp1728
# sub_64_aligned.c:824:         str[i] = digits[i] + '0';
	.loc 1 824 24 view .LVU1518
	movslq	%edi, %rcx	# i, i
# sub_64_aligned.c:822:     for (int i = 0; i < n; i++)
	.loc 1 822 29 view .LVU1519
	leal	10(%rax), %edx	#, i
# sub_64_aligned.c:824:         str[i] = digits[i] + '0';
	.loc 1 824 28 view .LVU1520
	addl	$48, %r8d	#, tmp782
	movb	%r8b, (%r10,%rcx)	# tmp782, *_931
	.loc 1 822 29 is_stmt 1 view .LVU1521
.LVL420:
	.loc 1 822 23 view .LVU1522
	cmpl	%edx, %r11d	# i, n.28_22
	jle	.L305	#,
	.loc 1 824 9 view .LVU1523
# sub_64_aligned.c:824:         str[i] = digits[i] + '0';
	.loc 1 824 28 is_stmt 0 view .LVU1524
	movzbl	80(%rbx,%r9), %edi	# *_939, tmp1731
# sub_64_aligned.c:824:         str[i] = digits[i] + '0';
	.loc 1 824 24 view .LVU1525
	movslq	%edx, %rcx	# i, i
# sub_64_aligned.c:822:     for (int i = 0; i < n; i++)
	.loc 1 822 29 view .LVU1526
	leal	11(%rax), %r8d	#, i
# sub_64_aligned.c:824:         str[i] = digits[i] + '0';
	.loc 1 824 28 view .LVU1527
	addl	$48, %edi	#, tmp785
	movb	%dil, (%r10,%rcx)	# tmp785, *_943
	.loc 1 822 29 is_stmt 1 view .LVU1528
.LVL421:
	.loc 1 822 23 view .LVU1529
	cmpl	%r8d, %r11d	# i, n.28_22
	jle	.L305	#,
	.loc 1 824 9 view .LVU1530
# sub_64_aligned.c:824:         str[i] = digits[i] + '0';
	.loc 1 824 28 is_stmt 0 view .LVU1531
	movzbl	88(%rbx,%r9), %ecx	# *_951, tmp1734
# sub_64_aligned.c:824:         str[i] = digits[i] + '0';
	.loc 1 824 24 view .LVU1532
	movslq	%r8d, %rdx	# i, i
# sub_64_aligned.c:822:     for (int i = 0; i < n; i++)
	.loc 1 822 29 view .LVU1533
	leal	12(%rax), %edi	#, i
# sub_64_aligned.c:824:         str[i] = digits[i] + '0';
	.loc 1 824 28 view .LVU1534
	addl	$48, %ecx	#, tmp788
	movb	%cl, (%r10,%rdx)	# tmp788, *_955
	.loc 1 822 29 is_stmt 1 view .LVU1535
.LVL422:
	.loc 1 822 23 view .LVU1536
	cmpl	%edi, %r11d	# i, n.28_22
	jle	.L305	#,
	.loc 1 824 9 view .LVU1537
# sub_64_aligned.c:824:         str[i] = digits[i] + '0';
	.loc 1 824 28 is_stmt 0 view .LVU1538
	movzbl	96(%rbx,%r9), %edx	# *_963, tmp1737
# sub_64_aligned.c:824:         str[i] = digits[i] + '0';
	.loc 1 824 24 view .LVU1539
	movslq	%edi, %r8	# i, i
# sub_64_aligned.c:822:     for (int i = 0; i < n; i++)
	.loc 1 822 29 view .LVU1540
	leal	13(%rax), %ecx	#, i
# sub_64_aligned.c:824:         str[i] = digits[i] + '0';
	.loc 1 824 28 view .LVU1541
	addl	$48, %edx	#, tmp791
	movb	%dl, (%r10,%r8)	# tmp791, *_967
	.loc 1 822 29 is_stmt 1 view .LVU1542
.LVL423:
	.loc 1 822 23 view .LVU1543
	cmpl	%ecx, %r11d	# i, n.28_22
	jle	.L305	#,
	.loc 1 824 9 view .LVU1544
# sub_64_aligned.c:824:         str[i] = digits[i] + '0';
	.loc 1 824 28 is_stmt 0 view .LVU1545
	movzbl	104(%rbx,%r9), %edi	# *_975, tmp1740
# sub_64_aligned.c:824:         str[i] = digits[i] + '0';
	.loc 1 824 24 view .LVU1546
	movslq	%ecx, %r8	# i, i
# sub_64_aligned.c:822:     for (int i = 0; i < n; i++)
	.loc 1 822 29 view .LVU1547
	addl	$14, %eax	#, i
# sub_64_aligned.c:824:         str[i] = digits[i] + '0';
	.loc 1 824 28 view .LVU1548
	addl	$48, %edi	#, tmp794
	movb	%dil, (%r10,%r8)	# tmp794, *_979
	.loc 1 822 29 is_stmt 1 view .LVU1549
.LVL424:
	.loc 1 822 23 view .LVU1550
	cmpl	%eax, %r11d	# i, n.28_22
	jle	.L305	#,
	.loc 1 824 9 view .LVU1551
# sub_64_aligned.c:824:         str[i] = digits[i] + '0';
	.loc 1 824 28 is_stmt 0 view .LVU1552
	movq	112(%rbx,%r9), %rbx	# *_665, *_665
.LVL425:
# sub_64_aligned.c:824:         str[i] = digits[i] + '0';
	.loc 1 824 24 view .LVU1553
	cltq
# sub_64_aligned.c:824:         str[i] = digits[i] + '0';
	.loc 1 824 28 view .LVU1554
	addl	$48, %ebx	#, tmp797
	movb	%bl, (%r10,%rax)	# tmp797, *_669
	.loc 1 822 29 is_stmt 1 view .LVU1555
	.loc 1 822 23 view .LVU1556
	.p2align 4,,10
	.p2align 3
.L305:
	.loc 1 822 23 is_stmt 0 view .LVU1557
.LBE602:
	.loc 1 826 5 is_stmt 1 view .LVU1558
# sub_64_aligned.c:826:     str[n] = '\0';
	.loc 1 826 12 is_stmt 0 view .LVU1559
	movb	$0, (%rsi)	#, *_440
	.loc 1 827 5 is_stmt 1 view .LVU1560
.LVL426:
	.loc 1 827 5 is_stmt 0 view .LVU1561
.LBE606:
.LBE609:
	.loc 1 922 9 is_stmt 1 view .LVU1562
.LBB610:
.LBB611:
# sub_64_aligned.c:816:     char *str = (char *)calloc(n + 1, sizeof(char));
	.loc 1 816 25 is_stmt 0 view .LVU1563
	movq	%r12, %rdi	# _275,
	movl	$1, %esi	#,
.LBE611:
.LBE610:
# sub_64_aligned.c:922:         char *b1_str_test1 = convert_digits_to_string(b1_test1, n);
	.loc 1 922 30 view .LVU1564
	movq	-1264(%rbp), %rbx	# b1_test1, b1_test1.27_221
.LVL427:
.LBB618:
.LBI610:
	.loc 1 814 7 is_stmt 1 view .LVU1565
.LBB614:
	.loc 1 816 5 view .LVU1566
# sub_64_aligned.c:816:     char *str = (char *)calloc(n + 1, sizeof(char));
	.loc 1 816 25 is_stmt 0 view .LVU1567
	call	calloc@PLT	#
.LVL428:
	movq	%rax, -1352(%rbp)	# str, %sfp
.LVL429:
	.loc 1 817 5 is_stmt 1 view .LVU1568
# sub_64_aligned.c:817:     if (str == NULL)
	.loc 1 817 8 is_stmt 0 view .LVU1569
	testq	%rax, %rax	# str
	je	.L298	#,
	addq	%rbx, %r14	# b1_test1.27_221, tmp800
	movq	%rax, %r8	# str, str
	cmpq	%r14, %rax	# tmp800, str
	leaq	(%rax,%r13), %r14	#, tmp803
	setnb	%r12b	#, tmp802
	cmpq	%r14, %rbx	# tmp803, b1_test1.27_221
	setnb	%r11b	#, tmp805
	orb	%r11b, %r12b	# tmp805, tmp1543
	je	.L306	#,
	testb	%r15b, %r15b	# _634
	je	.L306	#,
	movl	-1360(%rbp), %r15d	# %sfp, bnd.342
	leaq	128(%rbx), %r10	#, tmp811
	movq	%rbx, %rax	# b1_test1.27_221, ivtmp.490
.LVL430:
	.loc 1 817 8 view .LVU1570
	shrl	$4, %r15d	#, bnd.342
	leal	-1(%r15), %ecx	#, tmp809
	salq	$7, %rcx	#, tmp810
	addq	%r10, %rcx	# tmp811, _986
	movq	%rcx, %rdx	# _986, tmp1094
	subq	%rbx, %rdx	# b1_test1.27_221, tmp1094
	andl	$128, %edx	#, tmp1094
	je	.L307	#,
.LBB612:
	.loc 1 824 9 is_stmt 1 view .LVU1571
# sub_64_aligned.c:824:         str[i] = digits[i] + '0';
	.loc 1 824 28 is_stmt 0 view .LVU1572
	movdqu	(%rbx), %xmm8	# MEM <vector(2) long unsigned int> [(uint64_t *)_20], vect__267.357
	movdqu	16(%rbx), %xmm2	# MEM <vector(2) long unsigned int> [(uint64_t *)_20 + 16B], tmp1983
	movq	%r10, %rax	# tmp811, ivtmp.490
	leaq	16(%r8), %r8	#, ivtmp.493
.LVL431:
	.loc 1 824 28 view .LVU1573
	movdqu	32(%rbx), %xmm3	# MEM <vector(2) long unsigned int> [(uint64_t *)_20 + 32B], vect__267.357
	movdqu	48(%rbx), %xmm6	# MEM <vector(2) long unsigned int> [(uint64_t *)_20 + 48B], tmp1985
	movdqu	64(%rbx), %xmm10	# MEM <vector(2) long unsigned int> [(uint64_t *)_20 + 64B], vect__267.357
	movdqu	80(%rbx), %xmm11	# MEM <vector(2) long unsigned int> [(uint64_t *)_20 + 80B], tmp1989
	shufps	$136, %xmm2, %xmm8	#, tmp1983, vect__267.357
	movdqa	%xmm8, %xmm9	# vect__267.357, tmp1465
	movdqu	96(%rbx), %xmm12	# MEM <vector(2) long unsigned int> [(uint64_t *)_20 + 96B], vect__267.357
	movdqu	112(%rbx), %xmm13	# MEM <vector(2) long unsigned int> [(uint64_t *)_20 + 112B], tmp1991
	shufps	$136, %xmm6, %xmm3	#, tmp1985, vect__267.357
	punpcklwd	%xmm3, %xmm8	# vect__267.357, vect__267.356
	shufps	$136, %xmm11, %xmm10	#, tmp1989, vect__267.357
	movdqa	%xmm10, %xmm14	# vect__267.357, tmp1476
	punpckhwd	%xmm3, %xmm9	# vect__267.357, tmp1465
	movdqa	%xmm8, %xmm7	# vect__267.356, tmp1467
	shufps	$136, %xmm13, %xmm12	#, tmp1991, vect__267.357
	punpcklwd	%xmm12, %xmm10	# vect__267.357, vect__267.356
	punpckhwd	%xmm12, %xmm14	# vect__267.357, tmp1476
	punpckhwd	%xmm9, %xmm7	# tmp1465, tmp1467
	movdqa	%xmm10, %xmm15	# vect__267.356, tmp1478
	punpcklwd	%xmm9, %xmm8	# tmp1465, vect__267.356
	punpcklwd	%xmm14, %xmm10	# tmp1476, vect__267.356
	punpckhwd	%xmm14, %xmm15	# tmp1476, tmp1478
	punpcklwd	%xmm7, %xmm8	# tmp1467, vect__267.356
	pand	.LC24(%rip), %xmm8	#, tmp1481
	punpcklwd	%xmm15, %xmm10	# tmp1478, vect__267.356
	pand	.LC24(%rip), %xmm10	#, tmp1482
	packuswb	%xmm10, %xmm8	# tmp1482, vect__267.355
	paddb	.LC25(%rip), %xmm8	#, vect__268.358
# sub_64_aligned.c:824:         str[i] = digits[i] + '0';
	.loc 1 824 16 view .LVU1574
	movups	%xmm8, -16(%r8)	# vect__268.358, MEM <vector(16) char> [(char *)_313]
	.loc 1 822 29 is_stmt 1 view .LVU1575
	.loc 1 822 23 view .LVU1576
	cmpq	%rcx, %r10	# _986, ivtmp.490
	je	.L743	#,
	.p2align 4,,10
	.p2align 3
.L307:
	.loc 1 824 9 view .LVU1577
# sub_64_aligned.c:824:         str[i] = digits[i] + '0';
	.loc 1 824 28 is_stmt 0 view .LVU1578
	movdqu	16(%rax), %xmm4	# MEM <vector(2) long unsigned int> [(uint64_t *)_20 + 16B], tmp1759
	movdqu	48(%rax), %xmm5	# MEM <vector(2) long unsigned int> [(uint64_t *)_20 + 48B], tmp1761
	addq	$256, %rax	#, ivtmp.490
	addq	$32, %r8	#, ivtmp.493
	movdqu	-176(%rax), %xmm3	# MEM <vector(2) long unsigned int> [(uint64_t *)_20 + 80B], tmp1765
	movdqu	-256(%rax), %xmm0	# MEM <vector(2) long unsigned int> [(uint64_t *)_20], vect__267.357
	movdqu	-224(%rax), %xmm1	# MEM <vector(2) long unsigned int> [(uint64_t *)_20 + 32B], vect__267.357
	movdqu	-160(%rax), %xmm7	# MEM <vector(2) long unsigned int> [(uint64_t *)_20 + 96B], vect__267.357
	movdqu	-192(%rax), %xmm9	# MEM <vector(2) long unsigned int> [(uint64_t *)_20 + 64B], vect__267.357
	movdqu	-144(%rax), %xmm6	# MEM <vector(2) long unsigned int> [(uint64_t *)_20 + 112B], tmp1767
	shufps	$136, %xmm4, %xmm0	#, tmp1759, vect__267.357
	movdqa	%xmm0, %xmm8	# vect__267.357, tmp819
	shufps	$136, %xmm5, %xmm1	#, tmp1761, vect__267.357
	punpcklwd	%xmm1, %xmm0	# vect__267.357, vect__267.356
	punpckhwd	%xmm1, %xmm8	# vect__267.357, tmp819
	shufps	$136, %xmm3, %xmm9	#, tmp1765, vect__267.357
	shufps	$136, %xmm6, %xmm7	#, tmp1767, vect__267.357
	movdqa	%xmm9, %xmm10	# vect__267.357, tmp828
	punpcklwd	%xmm7, %xmm9	# vect__267.357, vect__267.356
	movdqa	%xmm0, %xmm2	# vect__267.356, tmp820
	punpckhwd	%xmm7, %xmm10	# vect__267.357, tmp828
	movdqa	%xmm9, %xmm11	# vect__267.356, tmp829
	punpckhwd	%xmm8, %xmm2	# tmp819, tmp820
	punpcklwd	%xmm8, %xmm0	# tmp819, vect__267.356
	punpckhwd	%xmm10, %xmm11	# tmp828, tmp829
	punpcklwd	%xmm10, %xmm9	# tmp828, vect__267.356
	punpcklwd	%xmm2, %xmm0	# tmp820, vect__267.356
	pand	.LC24(%rip), %xmm0	#, tmp831
	punpcklwd	%xmm11, %xmm9	# tmp829, vect__267.356
	pand	.LC24(%rip), %xmm9	#, tmp832
	packuswb	%xmm9, %xmm0	# tmp832, vect__267.355
	paddb	.LC25(%rip), %xmm0	#, vect__268.358
# sub_64_aligned.c:824:         str[i] = digits[i] + '0';
	.loc 1 824 16 view .LVU1579
	movups	%xmm0, -32(%r8)	# vect__268.358, MEM <vector(16) char> [(char *)_313]
	.loc 1 822 29 is_stmt 1 view .LVU1580
	.loc 1 822 23 view .LVU1581
	.loc 1 824 9 view .LVU1582
# sub_64_aligned.c:824:         str[i] = digits[i] + '0';
	.loc 1 824 28 is_stmt 0 view .LVU1583
	movdqu	-128(%rax), %xmm12	# MEM <vector(2) long unsigned int> [(uint64_t *)_20], vect__267.357
	movdqu	-64(%rax), %xmm1	# MEM <vector(2) long unsigned int> [(uint64_t *)_20 + 64B], vect__267.357
	movdqu	-112(%rax), %xmm13	# MEM <vector(2) long unsigned int> [(uint64_t *)_20 + 16B], tmp1771
	movdqu	-96(%rax), %xmm14	# MEM <vector(2) long unsigned int> [(uint64_t *)_20 + 32B], vect__267.357
	movdqu	-80(%rax), %xmm15	# MEM <vector(2) long unsigned int> [(uint64_t *)_20 + 48B], tmp1773
	movdqu	-48(%rax), %xmm5	# MEM <vector(2) long unsigned int> [(uint64_t *)_20 + 80B], tmp1777
# sub_64_aligned.c:824:         str[i] = digits[i] + '0';
	.loc 1 824 24 view .LVU1584
	movdqu	-32(%rax), %xmm8	# MEM <vector(2) long unsigned int> [(uint64_t *)_20 + 96B], vect__266.353
	movdqu	-16(%rax), %xmm2	# MEM <vector(2) long unsigned int> [(uint64_t *)_20 + 112B], vect__266.354
# sub_64_aligned.c:824:         str[i] = digits[i] + '0';
	.loc 1 824 28 view .LVU1585
	shufps	$136, %xmm13, %xmm12	#, tmp1771, vect__267.357
	movdqa	%xmm12, %xmm0	# vect__267.357, tmp1179
	shufps	$136, %xmm15, %xmm14	#, tmp1773, vect__267.357
	shufps	$136, %xmm5, %xmm1	#, tmp1777, vect__267.357
	punpcklwd	%xmm14, %xmm12	# vect__267.357, vect__267.356
	movdqa	%xmm1, %xmm9	# vect__267.357, tmp1190
	shufps	$136, %xmm2, %xmm8	#, vect__266.354, vect__267.357
	punpcklwd	%xmm8, %xmm1	# vect__267.357, vect__267.356
	punpckhwd	%xmm14, %xmm0	# vect__267.357, tmp1179
	movdqa	%xmm12, %xmm4	# vect__267.356, tmp1181
	punpckhwd	%xmm8, %xmm9	# vect__267.357, tmp1190
	movdqa	%xmm1, %xmm3	# vect__267.356, tmp1192
	punpckhwd	%xmm0, %xmm4	# tmp1179, tmp1181
	punpcklwd	%xmm0, %xmm12	# tmp1179, vect__267.356
	punpckhwd	%xmm9, %xmm3	# tmp1190, tmp1192
	punpcklwd	%xmm9, %xmm1	# tmp1190, vect__267.356
	punpcklwd	%xmm4, %xmm12	# tmp1181, vect__267.356
	punpcklwd	%xmm3, %xmm1	# tmp1192, vect__267.356
	pand	.LC24(%rip), %xmm12	#, tmp1195
	pand	.LC24(%rip), %xmm1	#, tmp1196
	packuswb	%xmm1, %xmm12	# tmp1196, vect__267.355
	paddb	.LC25(%rip), %xmm12	#, vect__268.358
# sub_64_aligned.c:824:         str[i] = digits[i] + '0';
	.loc 1 824 16 view .LVU1586
	movups	%xmm12, -16(%r8)	# vect__268.358, MEM <vector(16) char> [(char *)_313]
	.loc 1 822 29 is_stmt 1 view .LVU1587
	.loc 1 822 23 view .LVU1588
	cmpq	%rcx, %rax	# _986, ivtmp.490
	jne	.L307	#,
.L743:
	movl	-1360(%rbp), %r9d	# %sfp, n.28_22
	movl	%r9d, %eax	# n.28_22, niters_vector_mult_vf.343
	andl	$-16, %eax	#, niters_vector_mult_vf.343
	testb	$15, %r9b	#, n.28_22
	je	.L354	#,
.LVL432:
	.loc 1 824 9 view .LVU1589
# sub_64_aligned.c:824:         str[i] = digits[i] + '0';
	.loc 1 824 24 is_stmt 0 view .LVU1590
	movl	%eax, %edi	# niters_vector_mult_vf.343, _279
# sub_64_aligned.c:824:         str[i] = digits[i] + '0';
	.loc 1 824 28 view .LVU1591
	movq	-1352(%rbp), %r11	# %sfp, str
# sub_64_aligned.c:822:     for (int i = 0; i < n; i++)
	.loc 1 822 29 view .LVU1592
	leal	1(%rax), %r15d	#, i
# sub_64_aligned.c:824:         str[i] = digits[i] + '0';
	.loc 1 824 28 view .LVU1593
	movzbl	(%rbx,%rdi,8), %r14d	# *_281, tmp1782
# sub_64_aligned.c:824:         str[i] = digits[i] + '0';
	.loc 1 824 24 view .LVU1594
	leaq	0(,%rdi,8), %r12	#, _280
# sub_64_aligned.c:824:         str[i] = digits[i] + '0';
	.loc 1 824 28 view .LVU1595
	addl	$48, %r14d	#, tmp837
	movb	%r14b, (%r11,%rdi)	# tmp837, *_285
	.loc 1 822 29 is_stmt 1 view .LVU1596
.LVL433:
	.loc 1 822 23 view .LVU1597
	cmpl	%r15d, %r9d	# i, n.28_22
	jle	.L354	#,
	.loc 1 824 9 view .LVU1598
# sub_64_aligned.c:824:         str[i] = digits[i] + '0';
	.loc 1 824 28 is_stmt 0 view .LVU1599
	movzbl	8(%rbx,%r12), %r10d	# *_267, tmp1785
# sub_64_aligned.c:824:         str[i] = digits[i] + '0';
	.loc 1 824 24 view .LVU1600
	movslq	%r15d, %rcx	# i, i
# sub_64_aligned.c:822:     for (int i = 0; i < n; i++)
	.loc 1 822 29 view .LVU1601
	leal	2(%rax), %edx	#, i
# sub_64_aligned.c:824:         str[i] = digits[i] + '0';
	.loc 1 824 28 view .LVU1602
	addl	$48, %r10d	#, tmp840
	movb	%r10b, (%r11,%rcx)	# tmp840, *_271
	.loc 1 822 29 is_stmt 1 view .LVU1603
.LVL434:
	.loc 1 822 23 view .LVU1604
	cmpl	%r9d, %edx	# n.28_22, i
	jge	.L354	#,
	.loc 1 824 9 view .LVU1605
# sub_64_aligned.c:824:         str[i] = digits[i] + '0';
	.loc 1 824 28 is_stmt 0 view .LVU1606
	movzbl	16(%rbx,%r12), %esi	# *_161, tmp1788
# sub_64_aligned.c:824:         str[i] = digits[i] + '0';
	.loc 1 824 24 view .LVU1607
	movslq	%edx, %r8	# i, i
# sub_64_aligned.c:822:     for (int i = 0; i < n; i++)
	.loc 1 822 29 view .LVU1608
	leal	3(%rax), %edi	#, i
# sub_64_aligned.c:824:         str[i] = digits[i] + '0';
	.loc 1 824 28 view .LVU1609
	addl	$48, %esi	#, tmp843
	movb	%sil, (%r11,%r8)	# tmp843, *_165
	.loc 1 822 29 is_stmt 1 view .LVU1610
.LVL435:
	.loc 1 822 23 view .LVU1611
	cmpl	%r9d, %edi	# n.28_22, i
	jge	.L354	#,
	.loc 1 824 9 view .LVU1612
# sub_64_aligned.c:824:         str[i] = digits[i] + '0';
	.loc 1 824 28 is_stmt 0 view .LVU1613
	movzbl	24(%rbx,%r12), %r15d	# *_172, tmp1791
# sub_64_aligned.c:824:         str[i] = digits[i] + '0';
	.loc 1 824 24 view .LVU1614
	movslq	%edi, %r14	# i, i
# sub_64_aligned.c:822:     for (int i = 0; i < n; i++)
	.loc 1 822 29 view .LVU1615
	leal	4(%rax), %ecx	#, i
# sub_64_aligned.c:824:         str[i] = digits[i] + '0';
	.loc 1 824 28 view .LVU1616
	addl	$48, %r15d	#, tmp846
	movb	%r15b, (%r11,%r14)	# tmp846, *_660
	.loc 1 822 29 is_stmt 1 view .LVU1617
.LVL436:
	.loc 1 822 23 view .LVU1618
	cmpl	%ecx, %r9d	# i, n.28_22
	jle	.L354	#,
	.loc 1 824 9 view .LVU1619
# sub_64_aligned.c:824:         str[i] = digits[i] + '0';
	.loc 1 824 28 is_stmt 0 view .LVU1620
	movzbl	32(%rbx,%r12), %edx	# *_546, tmp1794
# sub_64_aligned.c:824:         str[i] = digits[i] + '0';
	.loc 1 824 24 view .LVU1621
	movslq	%ecx, %r10	# i, i
# sub_64_aligned.c:822:     for (int i = 0; i < n; i++)
	.loc 1 822 29 view .LVU1622
	leal	5(%rax), %r8d	#, i
# sub_64_aligned.c:824:         str[i] = digits[i] + '0';
	.loc 1 824 28 view .LVU1623
	addl	$48, %edx	#, tmp849
	movb	%dl, (%r11,%r10)	# tmp849, *_409
	.loc 1 822 29 is_stmt 1 view .LVU1624
.LVL437:
	.loc 1 822 23 view .LVU1625
	cmpl	%r8d, %r9d	# i, n.28_22
	jle	.L354	#,
	.loc 1 824 9 view .LVU1626
# sub_64_aligned.c:824:         str[i] = digits[i] + '0';
	.loc 1 824 28 is_stmt 0 view .LVU1627
	movzbl	40(%rbx,%r12), %esi	# *_711, tmp1797
# sub_64_aligned.c:824:         str[i] = digits[i] + '0';
	.loc 1 824 24 view .LVU1628
	movslq	%r8d, %rdi	# i, i
# sub_64_aligned.c:822:     for (int i = 0; i < n; i++)
	.loc 1 822 29 view .LVU1629
	leal	6(%rax), %r14d	#, i
# sub_64_aligned.c:824:         str[i] = digits[i] + '0';
	.loc 1 824 28 view .LVU1630
	addl	$48, %esi	#, tmp852
	movb	%sil, (%r11,%rdi)	# tmp852, *_715
	.loc 1 822 29 is_stmt 1 view .LVU1631
.LVL438:
	.loc 1 822 23 view .LVU1632
	cmpl	%r14d, %r9d	# i, n.28_22
	jle	.L354	#,
	.loc 1 824 9 view .LVU1633
# sub_64_aligned.c:824:         str[i] = digits[i] + '0';
	.loc 1 824 28 is_stmt 0 view .LVU1634
	movzbl	48(%rbx,%r12), %ecx	# *_723, tmp1800
# sub_64_aligned.c:824:         str[i] = digits[i] + '0';
	.loc 1 824 24 view .LVU1635
	movslq	%r14d, %r15	# i, i
# sub_64_aligned.c:822:     for (int i = 0; i < n; i++)
	.loc 1 822 29 view .LVU1636
	leal	7(%rax), %r10d	#, i
# sub_64_aligned.c:824:         str[i] = digits[i] + '0';
	.loc 1 824 28 view .LVU1637
	addl	$48, %ecx	#, tmp855
	movb	%cl, (%r11,%r15)	# tmp855, *_727
	.loc 1 822 29 is_stmt 1 view .LVU1638
.LVL439:
	.loc 1 822 23 view .LVU1639
	cmpl	%r10d, %r9d	# i, n.28_22
	jle	.L354	#,
	.loc 1 824 9 view .LVU1640
# sub_64_aligned.c:824:         str[i] = digits[i] + '0';
	.loc 1 824 28 is_stmt 0 view .LVU1641
	movzbl	56(%rbx,%r12), %r8d	# *_735, tmp1803
# sub_64_aligned.c:824:         str[i] = digits[i] + '0';
	.loc 1 824 24 view .LVU1642
	movslq	%r10d, %rdx	# i, i
# sub_64_aligned.c:822:     for (int i = 0; i < n; i++)
	.loc 1 822 29 view .LVU1643
	leal	8(%rax), %edi	#, i
# sub_64_aligned.c:824:         str[i] = digits[i] + '0';
	.loc 1 824 28 view .LVU1644
	addl	$48, %r8d	#, tmp858
	movb	%r8b, (%r11,%rdx)	# tmp858, *_739
	.loc 1 822 29 is_stmt 1 view .LVU1645
.LVL440:
	.loc 1 822 23 view .LVU1646
	cmpl	%edi, %r9d	# i, n.28_22
	jle	.L354	#,
	.loc 1 824 9 view .LVU1647
# sub_64_aligned.c:824:         str[i] = digits[i] + '0';
	.loc 1 824 28 is_stmt 0 view .LVU1648
	movzbl	64(%rbx,%r12), %esi	# *_747, tmp1806
# sub_64_aligned.c:824:         str[i] = digits[i] + '0';
	.loc 1 824 24 view .LVU1649
	movslq	%edi, %r14	# i, i
# sub_64_aligned.c:822:     for (int i = 0; i < n; i++)
	.loc 1 822 29 view .LVU1650
	leal	9(%rax), %r15d	#, i
# sub_64_aligned.c:824:         str[i] = digits[i] + '0';
	.loc 1 824 28 view .LVU1651
	addl	$48, %esi	#, tmp861
	movb	%sil, (%r11,%r14)	# tmp861, *_751
	.loc 1 822 29 is_stmt 1 view .LVU1652
.LVL441:
	.loc 1 822 23 view .LVU1653
	cmpl	%r15d, %r9d	# i, n.28_22
	jle	.L354	#,
	.loc 1 824 9 view .LVU1654
# sub_64_aligned.c:824:         str[i] = digits[i] + '0';
	.loc 1 824 28 is_stmt 0 view .LVU1655
	movzbl	72(%rbx,%r12), %r10d	# *_759, tmp1809
# sub_64_aligned.c:824:         str[i] = digits[i] + '0';
	.loc 1 824 24 view .LVU1656
	movslq	%r15d, %rcx	# i, i
# sub_64_aligned.c:822:     for (int i = 0; i < n; i++)
	.loc 1 822 29 view .LVU1657
	leal	10(%rax), %edx	#, i
# sub_64_aligned.c:824:         str[i] = digits[i] + '0';
	.loc 1 824 28 view .LVU1658
	addl	$48, %r10d	#, tmp864
	movb	%r10b, (%r11,%rcx)	# tmp864, *_763
	.loc 1 822 29 is_stmt 1 view .LVU1659
.LVL442:
	.loc 1 822 23 view .LVU1660
	cmpl	%edx, %r9d	# i, n.28_22
	jle	.L354	#,
	.loc 1 824 9 view .LVU1661
# sub_64_aligned.c:824:         str[i] = digits[i] + '0';
	.loc 1 824 28 is_stmt 0 view .LVU1662
	movzbl	80(%rbx,%r12), %edi	# *_771, tmp1812
# sub_64_aligned.c:824:         str[i] = digits[i] + '0';
	.loc 1 824 24 view .LVU1663
	movslq	%edx, %r8	# i, i
# sub_64_aligned.c:822:     for (int i = 0; i < n; i++)
	.loc 1 822 29 view .LVU1664
	leal	11(%rax), %r14d	#, i
# sub_64_aligned.c:824:         str[i] = digits[i] + '0';
	.loc 1 824 28 view .LVU1665
	addl	$48, %edi	#, tmp867
	movb	%dil, (%r11,%r8)	# tmp867, *_775
	.loc 1 822 29 is_stmt 1 view .LVU1666
.LVL443:
	.loc 1 822 23 view .LVU1667
	cmpl	%r14d, %r9d	# i, n.28_22
	jle	.L354	#,
	.loc 1 824 9 view .LVU1668
# sub_64_aligned.c:824:         str[i] = digits[i] + '0';
	.loc 1 824 28 is_stmt 0 view .LVU1669
	movzbl	88(%rbx,%r12), %esi	# *_783, tmp1815
# sub_64_aligned.c:824:         str[i] = digits[i] + '0';
	.loc 1 824 24 view .LVU1670
	movslq	%r14d, %r15	# i, i
# sub_64_aligned.c:822:     for (int i = 0; i < n; i++)
	.loc 1 822 29 view .LVU1671
	leal	12(%rax), %ecx	#, i
# sub_64_aligned.c:824:         str[i] = digits[i] + '0';
	.loc 1 824 28 view .LVU1672
	addl	$48, %esi	#, tmp870
	movb	%sil, (%r11,%r15)	# tmp870, *_787
	.loc 1 822 29 is_stmt 1 view .LVU1673
.LVL444:
	.loc 1 822 23 view .LVU1674
	cmpl	%ecx, %r9d	# i, n.28_22
	jle	.L354	#,
	.loc 1 824 9 view .LVU1675
# sub_64_aligned.c:824:         str[i] = digits[i] + '0';
	.loc 1 824 28 is_stmt 0 view .LVU1676
	movzbl	96(%rbx,%r12), %edx	# *_795, tmp1818
# sub_64_aligned.c:824:         str[i] = digits[i] + '0';
	.loc 1 824 24 view .LVU1677
	movslq	%ecx, %r10	# i, i
# sub_64_aligned.c:822:     for (int i = 0; i < n; i++)
	.loc 1 822 29 view .LVU1678
	leal	13(%rax), %r8d	#, i
# sub_64_aligned.c:824:         str[i] = digits[i] + '0';
	.loc 1 824 28 view .LVU1679
	addl	$48, %edx	#, tmp873
	movb	%dl, (%r11,%r10)	# tmp873, *_799
	.loc 1 822 29 is_stmt 1 view .LVU1680
.LVL445:
	.loc 1 822 23 view .LVU1681
	cmpl	%r8d, %r9d	# i, n.28_22
	jle	.L354	#,
	.loc 1 824 9 view .LVU1682
# sub_64_aligned.c:824:         str[i] = digits[i] + '0';
	.loc 1 824 28 is_stmt 0 view .LVU1683
	movzbl	104(%rbx,%r12), %r14d	# *_807, tmp1821
# sub_64_aligned.c:824:         str[i] = digits[i] + '0';
	.loc 1 824 24 view .LVU1684
	movslq	%r8d, %rdi	# i, i
# sub_64_aligned.c:822:     for (int i = 0; i < n; i++)
	.loc 1 822 29 view .LVU1685
	addl	$14, %eax	#, i
# sub_64_aligned.c:824:         str[i] = digits[i] + '0';
	.loc 1 824 28 view .LVU1686
	addl	$48, %r14d	#, tmp876
	movb	%r14b, (%r11,%rdi)	# tmp876, *_811
	.loc 1 822 29 is_stmt 1 view .LVU1687
.LVL446:
	.loc 1 822 23 view .LVU1688
	cmpl	%eax, %r9d	# i, n.28_22
	jle	.L354	#,
	.loc 1 824 9 view .LVU1689
# sub_64_aligned.c:824:         str[i] = digits[i] + '0';
	.loc 1 824 28 is_stmt 0 view .LVU1690
	movq	112(%rbx,%r12), %rbx	# *_583, *_583
.LVL447:
# sub_64_aligned.c:824:         str[i] = digits[i] + '0';
	.loc 1 824 24 view .LVU1691
	cltq
# sub_64_aligned.c:824:         str[i] = digits[i] + '0';
	.loc 1 824 28 view .LVU1692
	addl	$48, %ebx	#, tmp879
	movb	%bl, (%r11,%rax)	# tmp879, *_587
	.loc 1 822 29 is_stmt 1 view .LVU1693
	.loc 1 822 23 view .LVU1694
.LVL448:
	.p2align 4,,10
	.p2align 3
.L354:
	.loc 1 822 23 is_stmt 0 view .LVU1695
.LBE612:
	.loc 1 826 5 is_stmt 1 view .LVU1696
# sub_64_aligned.c:826:     str[n] = '\0';
	.loc 1 826 12 is_stmt 0 view .LVU1697
	movq	-1352(%rbp), %rbx	# %sfp, str
.LBE614:
.LBE618:
# sub_64_aligned.c:925:         make_equidistant(&a1_test1, &b1_test1, &n, &n);
	.loc 1 925 9 view .LVU1698
	leaq	-1344(%rbp), %rdx	#, tmp882
	movq	-1416(%rbp), %rsi	# %sfp,
	movq	-1424(%rbp), %rdi	# %sfp,
	movq	%rdx, %rcx	# tmp882,
.LBB619:
.LBB615:
# sub_64_aligned.c:826:     str[n] = '\0';
	.loc 1 826 12 view .LVU1699
	movb	$0, (%rbx,%r13)	#, *_273
	.loc 1 827 5 is_stmt 1 view .LVU1700
.LVL449:
	.loc 1 827 5 is_stmt 0 view .LVU1701
.LBE615:
.LBE619:
	.loc 1 925 9 is_stmt 1 view .LVU1702
	call	make_equidistant	#
.LVL450:
	.loc 1 928 9 view .LVU1703
# sub_64_aligned.c:928:         int n_limb = n;
	.loc 1 928 13 is_stmt 0 view .LVU1704
	movl	-1344(%rbp), %r13d	# n, n.28_22
# sub_64_aligned.c:932:         aligned_uint64_ptr a1_limbs = returnLimbs(a1_test1, &n_limb);
	.loc 1 932 39 view .LVU1705
	movq	-1328(%rbp), %rdi	# a1_test1,
	leaq	-1340(%rbp), %rsi	#, tmp886
# sub_64_aligned.c:928:         int n_limb = n;
	.loc 1 928 13 view .LVU1706
	movl	%r13d, -1360(%rbp)	# n.28_22, %sfp
	movl	%r13d, -1340(%rbp)	# n.28_22, n_limb
	.loc 1 929 9 is_stmt 1 view .LVU1707
# sub_64_aligned.c:929:         int m_limb = n;
	.loc 1 929 13 is_stmt 0 view .LVU1708
	movl	%r13d, -1336(%rbp)	# n.28_22, m_limb
	.loc 1 932 9 is_stmt 1 view .LVU1709
# sub_64_aligned.c:932:         aligned_uint64_ptr a1_limbs = returnLimbs(a1_test1, &n_limb);
	.loc 1 932 39 is_stmt 0 view .LVU1710
	call	returnLimbs	#
.LVL451:
# sub_64_aligned.c:934:         aligned_uint64_ptr b1_limbs = returnLimbs(b1_test1, &m_limb);
	.loc 1 934 39 view .LVU1711
	movq	-1264(%rbp), %rdi	# b1_test1,
	leaq	-1336(%rbp), %rsi	#, tmp888
# sub_64_aligned.c:932:         aligned_uint64_ptr a1_limbs = returnLimbs(a1_test1, &n_limb);
	.loc 1 932 39 view .LVU1712
	movq	%rax, %r12	# tmp1531, a1_limbs
.LVL452:
	.loc 1 934 9 is_stmt 1 view .LVU1713
# sub_64_aligned.c:934:         aligned_uint64_ptr b1_limbs = returnLimbs(b1_test1, &m_limb);
	.loc 1 934 39 is_stmt 0 view .LVU1714
	call	returnLimbs	#
.LVL453:
# sub_64_aligned.c:939:         int sub_size_test1 = n_limb;
	.loc 1 939 13 view .LVU1715
	movl	-1340(%rbp), %r14d	# n_limb, prephitmp_382
# sub_64_aligned.c:934:         aligned_uint64_ptr b1_limbs = returnLimbs(b1_test1, &m_limb);
	.loc 1 934 39 view .LVU1716
	movq	%rax, %r13	# tmp1532, b1_limbs
.LVL454:
	.loc 1 938 9 is_stmt 1 view .LVU1717
	.loc 1 939 9 view .LVU1718
# sub_64_aligned.c:940:         sub_space_ptr += (n_limb + 31) & ~31;
	.loc 1 940 34 is_stmt 0 view .LVU1719
	leal	31(%r14), %r9d	#, tmp890
# sub_64_aligned.c:939:         int sub_size_test1 = n_limb;
	.loc 1 939 13 view .LVU1720
	movl	%r14d, -1332(%rbp)	# prephitmp_382, sub_size_test1
	.loc 1 940 9 is_stmt 1 view .LVU1721
# sub_64_aligned.c:940:         sub_space_ptr += (n_limb + 31) & ~31;
	.loc 1 940 40 is_stmt 0 view .LVU1722
	andl	$-32, %r9d	#, _30
# sub_64_aligned.c:940:         sub_space_ptr += (n_limb + 31) & ~31;
	.loc 1 940 23 view .LVU1723
	addl	%r9d, sub_space_ptr(%rip)	# _30, sub_space_ptr
.LVL455:
	.loc 1 941 9 is_stmt 1 view .LVU1724
# sub_64_aligned.c:941:         borrow_space_ptr += (n_limb + 31) & ~31;
	.loc 1 941 26 is_stmt 0 view .LVU1725
	addl	%r9d, borrow_space_ptr(%rip)	# _30, borrow_space_ptr
	.loc 1 944 9 is_stmt 1 view .LVU1726
.LBB620:
.LBI620:
	.loc 1 72 13 view .LVU1727
.LBB621:
	.loc 1 74 5 view .LVU1728
	.loc 1 75 5 view .LVU1729
#APP
# 75 "sub_64_aligned.c" 1
	CPUID
	RDTSC
	mov %edx, %esi	# cycles_high
	mov %eax, %edi	# cycles_low
	
# 0 "" 2
.LVL456:
	.loc 1 79 5 view .LVU1730
# 79 "sub_64_aligned.c" 1
	RDTSCP
	mov %edx, %esi	# cycles_high1
	mov %eax, %edi	# cycles_low1
	CPUID
	
# 0 "" 2
	.loc 1 79 5 is_stmt 0 view .LVU1731
#NO_APP
.LBE621:
.LBE620:
	.loc 1 954 9 is_stmt 1 view .LVU1732
.LBB623:
.LBI623:
	.loc 1 644 6 view .LVU1733
.LVL457:
.LBB624:
	.loc 1 646 23 view .LVU1734
	leaq	fd(%rip), %r15	#, ivtmp.403
.LBE624:
.LBE623:
.LBB626:
.LBB622:
# sub_64_aligned.c:79:     asm volatile("RDTSCP\n\t"
	.loc 1 79 5 is_stmt 0 view .LVU1735
	movq	%r15, %rbx	# ivtmp.403, ivtmp.481
.LVL458:
	.p2align 4,,10
	.p2align 3
.L311:
	.loc 1 79 5 view .LVU1736
.LBE622:
.LBE626:
.LBB627:
.LBB625:
	.loc 1 648 9 is_stmt 1 view .LVU1737
	movl	(%rbx), %edi	# MEM[(int *)_537],
	xorl	%edx, %edx	#
	movl	$9219, %esi	#,
	xorl	%eax, %eax	#
# sub_64_aligned.c:646:     for (int j = 0; j < MAX_EVENTS; j++)
	.loc 1 646 23 is_stmt 0 view .LVU1738
	addq	$4, %rbx	#, ivtmp.481
.LVL459:
# sub_64_aligned.c:648:         ioctl(fd[j], PERF_EVENT_IOC_RESET, 0);
	.loc 1 648 9 view .LVU1739
	call	ioctl@PLT	#
.LVL460:
	.loc 1 649 9 is_stmt 1 view .LVU1740
	movl	-4(%rbx), %edi	# MEM[(int *)_537],
	xorl	%edx, %edx	#
	movl	$9216, %esi	#,
	xorl	%eax, %eax	#
	call	ioctl@PLT	#
.LVL461:
	.loc 1 646 38 view .LVU1741
	.loc 1 646 23 view .LVU1742
	leaq	24+fd(%rip), %r10	#, tmp1839
	cmpq	%r10, %rbx	# tmp1839, ivtmp.481
	jne	.L311	#,
.LBE625:
.LBE627:
	.loc 1 958 9 view .LVU1743
.LBB628:
.LBI628:
	.loc 1 87 27 view .LVU1744
.LBB629:
	.loc 1 89 5 view .LVU1745
	.loc 1 90 5 view .LVU1746
	.loc 1 91 5 view .LVU1747
#APP
# 91 "sub_64_aligned.c" 1
	CPUID
	RDTSC
	mov %edx, %r8d	# cycles_high
	mov %eax, %esi	# cycles_low
	
# 0 "" 2
.LVL462:
	.loc 1 95 5 view .LVU1748
#NO_APP
.LBE629:
.LBE628:
.LBB633:
.LBB634:
# sub_64_aligned.c:194:     aligned_uint64_ptr result = sub_space + sub_space_ptr;
	.loc 1 194 43 is_stmt 0 view .LVU1749
	movslq	sub_space_ptr(%rip), %rax	# sub_space_ptr, sub_space_ptr
.LBE634:
.LBE633:
.LBB665:
.LBB630:
# sub_64_aligned.c:95:     ticks = (((unsigned long long)cycles_high << 32) | cycles_low);
	.loc 1 95 47 view .LVU1750
	salq	$32, %r8	#, tmp899
.LVL463:
# sub_64_aligned.c:95:     ticks = (((unsigned long long)cycles_high << 32) | cycles_low);
	.loc 1 95 54 view .LVU1751
	movl	%esi, %edi	# cycles_low, cycles_low
.LBE630:
.LBE665:
.LBB666:
.LBB660:
# sub_64_aligned.c:196:     bool is_less = is_less_than(a, b, n);
	.loc 1 196 20 view .LVU1752
	movslq	%r14d, %rdx	# prephitmp_382, _134
# sub_64_aligned.c:194:     aligned_uint64_ptr result = sub_space + sub_space_ptr;
	.loc 1 194 43 view .LVU1753
	movq	sub_space(%rip), %r10	# sub_space, sub_space.42_129
.LBE660:
.LBE666:
.LBB667:
.LBB631:
# sub_64_aligned.c:95:     ticks = (((unsigned long long)cycles_high << 32) | cycles_low);
	.loc 1 95 11 view .LVU1754
	orq	%rdi, %r8	# cycles_low, tmp899
	leaq	-1(%rdx), %r9	#, tmp1084
.LBE631:
.LBE667:
.LBB668:
.LBB661:
.LBB635:
.LBB636:
# sub_64_aligned.c:159:         if (*(a + i) < *(b + i))
	.loc 1 159 12 view .LVU1755
	movq	0(%r13), %rcx	# MEM[(uint64_t *)b1_limbs_83 + ivtmp.470_486 * 8], tmp1841
.LBE636:
.LBE635:
# sub_64_aligned.c:194:     aligned_uint64_ptr result = sub_space + sub_space_ptr;
	.loc 1 194 43 view .LVU1756
	leaq	0(,%rax,8), %r11	#, _132
.LBE661:
.LBE668:
.LBB669:
.LBB632:
# sub_64_aligned.c:95:     ticks = (((unsigned long long)cycles_high << 32) | cycles_low);
	.loc 1 95 11 view .LVU1757
	movq	%r8, -1384(%rbp)	# tmp899, %sfp
.LVL464:
	.loc 1 96 5 is_stmt 1 view .LVU1758
	.loc 1 96 5 is_stmt 0 view .LVU1759
.LBE632:
.LBE669:
	.loc 1 961 9 is_stmt 1 view .LVU1760
.LBB670:
.LBI633:
	.loc 1 189 13 view .LVU1761
.LBB662:
	.loc 1 191 5 view .LVU1762
	.loc 1 192 5 view .LVU1763
	.loc 1 194 5 view .LVU1764
	andl	$7, %r9d	#, tmp1086
# sub_64_aligned.c:194:     aligned_uint64_ptr result = sub_space + sub_space_ptr;
	.loc 1 194 24 is_stmt 0 view .LVU1765
	leaq	(%r10,%r11), %rbx	#, result
.LVL465:
	.loc 1 196 5 is_stmt 1 view .LVU1766
.LBB639:
.LBI635:
	.loc 1 152 13 view .LVU1767
.LBB637:
	.loc 1 154 5 view .LVU1768
	.loc 1 155 5 view .LVU1769
	.loc 1 156 5 view .LVU1770
	.loc 1 157 5 view .LVU1771
	.loc 1 159 9 view .LVU1772
# sub_64_aligned.c:159:         if (*(a + i) < *(b + i))
	.loc 1 159 12 is_stmt 0 view .LVU1773
	cmpq	%rcx, (%r12)	# tmp1841, MEM[(uint64_t *)a1_limbs_81 + ivtmp.470_486 * 8]
	jb	.L357	#,
	.loc 1 163 14 is_stmt 1 view .LVU1774
# sub_64_aligned.c:163:         else if (*(a + i) > *(b + i))
	.loc 1 163 17 is_stmt 0 view .LVU1775
	ja	.L358	#,
	.loc 1 167 9 is_stmt 1 view .LVU1776
.LVL466:
	.loc 1 168 14 view .LVU1777
	movl	$1, %ecx	#, ivtmp.470
	cmpq	$1, %rdx	#, _134
	ja	.L787	#,
.LVL467:
.L742:
	.loc 1 168 14 is_stmt 0 view .LVU1778
.LBE637:
.LBE639:
	.loc 1 197 5 is_stmt 1 view .LVU1779
# sub_64_aligned.c:197:     if (is_less)
	.loc 1 197 8 is_stmt 0 view .LVU1780
	cmpb	$0, -1433(%rbp)	#, %sfp
	movq	%r13, %rax	# b1_limbs, b
	je	.L312	#,
.LVL468:
	.loc 1 197 8 view .LVU1781
	movq	%r12, %rax	# a1_limbs, b
.LVL469:
	.loc 1 197 8 view .LVU1782
	movq	%r13, %r12	# b1_limbs, a
.LVL470:
.L312:
	.loc 1 206 5 is_stmt 1 view .LVU1783
# sub_64_aligned.c:206:     aligned_uint64_ptr borrow_array = borrow_space + borrow_space_ptr;
	.loc 1 206 52 is_stmt 0 view .LVU1784
	movslq	borrow_space_ptr(%rip), %rcx	# borrow_space_ptr, borrow_space_ptr
	movq	borrow_space(%rip), %r13	# borrow_space, borrow_space.44_148
.LVL471:
	.loc 1 206 52 view .LVU1785
	salq	$3, %rcx	#, _151
	movq	%rcx, -1392(%rbp)	# _151, %sfp
# sub_64_aligned.c:206:     aligned_uint64_ptr borrow_array = borrow_space + borrow_space_ptr;
	.loc 1 206 24 view .LVU1786
	addq	%r13, %rcx	# borrow_space.44_148, borrow_array
.LVL472:
	.loc 1 207 5 is_stmt 1 view .LVU1787
	.loc 1 208 5 view .LVU1788
	.loc 1 209 5 view .LVU1789
	.loc 1 210 5 view .LVU1790
	.loc 1 212 5 view .LVU1791
	.loc 1 212 19 view .LVU1792
	testl	%r14d, %r14d	# prephitmp_382
	jle	.L314	#,
	leaq	8(%r10,%r11), %rsi	#, tmp906
	leaq	8(%r12), %r8	#, _468
	cmpq	%rsi, %rcx	# tmp906, borrow_array
	leal	-1(%r14), %esi	#, tmp909
	leaq	8(%rax), %r9	#, _474
	setne	%dil	#, tmp908
	cmpl	$1, %esi	#, tmp909
	seta	%sil	#, tmp911
	andl	%edi, %esi	# tmp908, tmp912
	cmpq	%r8, %rbx	# _468, result
	setne	%dil	#, tmp914
	andl	%esi, %edi	# tmp912, tmp915
	cmpq	%r9, %rbx	# _474, result
	setne	%sil	#, tmp917
	andl	%edi, %esi	# tmp915, tmp918
	cmpq	%r8, %rcx	# _468, borrow_array
	setne	%r8b	#, tmp920
	testb	%r8b, %sil	# tmp920, tmp918
	je	.L315	#,
	cmpq	%r9, %rcx	# _474, borrow_array
	je	.L315	#,
	movl	%r14d, %r9d	# prephitmp_382, bnd.327
	xorl	%esi, %esi	# ivtmp.460
# sub_64_aligned.c:224:             borrow_array[i] = 0;
	.loc 1 224 29 is_stmt 0 view .LVU1793
	pxor	%xmm10, %xmm10	# tmp929
	shrl	%r9d	#
	salq	$4, %r9	#, _485
	leaq	-16(%r9), %rdi	#, tmp1080
	shrq	$4, %rdi	#, tmp1078
	addq	$1, %rdi	#, tmp1081
	andl	$7, %edi	#, tmp1082
	je	.L316	#,
	cmpq	$1, %rdi	#, tmp1082
	je	.L605	#,
	cmpq	$2, %rdi	#, tmp1082
	je	.L606	#,
	cmpq	$3, %rdi	#, tmp1082
	je	.L607	#,
	cmpq	$4, %rdi	#, tmp1082
	je	.L608	#,
	cmpq	$5, %rdi	#, tmp1082
	je	.L609	#,
	cmpq	$6, %rdi	#, tmp1082
	je	.L610	#,
.LVL473:
	.loc 1 215 9 is_stmt 1 view .LVU1794
# sub_64_aligned.c:215:         result[i] = a[i] - b[i];
	.loc 1 215 26 is_stmt 0 view .LVU1795
	movdqu	(%r12), %xmm7	# MEM <vector(2) long unsigned int> [(uint64_t *)a_156 + ivtmp.460_478 * 1], vect__163.336
	movdqu	(%rax), %xmm6	# MEM <vector(2) long unsigned int> [(uint64_t *)b_159 + ivtmp.460_478 * 1], tmp1942
	movl	$16, %esi	#, ivtmp.460
	psubq	%xmm6, %xmm7	# tmp1942, vect__163.336
# sub_64_aligned.c:215:         result[i] = a[i] - b[i];
	.loc 1 215 19 view .LVU1796
	movups	%xmm7, (%rbx)	# vect__163.336, MEM <vector(2) long unsigned int> [(uint64_t *)result_133 + ivtmp.460_478 * 1]
	.loc 1 217 9 is_stmt 1 view .LVU1797
	.loc 1 224 13 view .LVU1798
# sub_64_aligned.c:224:             borrow_array[i] = 0;
	.loc 1 224 29 is_stmt 0 view .LVU1799
	movups	%xmm10, (%rcx)	# tmp929, MEM <vector(2) long unsigned int> [(uint64_t *)borrow_array_152 + ivtmp.460_478 * 1]
	.loc 1 212 25 is_stmt 1 view .LVU1800
	.loc 1 212 19 view .LVU1801
.L610:
	.loc 1 215 9 view .LVU1802
# sub_64_aligned.c:215:         result[i] = a[i] - b[i];
	.loc 1 215 26 is_stmt 0 view .LVU1803
	movdqu	(%r12,%rsi), %xmm11	# MEM <vector(2) long unsigned int> [(uint64_t *)a_156 + ivtmp.460_478 * 1], vect__163.336
	movdqu	(%rax,%rsi), %xmm12	# MEM <vector(2) long unsigned int> [(uint64_t *)b_159 + ivtmp.460_478 * 1], tmp1944
	psubq	%xmm12, %xmm11	# tmp1944, vect__163.336
# sub_64_aligned.c:215:         result[i] = a[i] - b[i];
	.loc 1 215 19 view .LVU1804
	movups	%xmm11, (%rbx,%rsi)	# vect__163.336, MEM <vector(2) long unsigned int> [(uint64_t *)result_133 + ivtmp.460_478 * 1]
	.loc 1 217 9 is_stmt 1 view .LVU1805
	.loc 1 224 13 view .LVU1806
# sub_64_aligned.c:224:             borrow_array[i] = 0;
	.loc 1 224 29 is_stmt 0 view .LVU1807
	movups	%xmm10, (%rcx,%rsi)	# tmp929, MEM <vector(2) long unsigned int> [(uint64_t *)borrow_array_152 + ivtmp.460_478 * 1]
	.loc 1 212 25 is_stmt 1 view .LVU1808
	.loc 1 212 19 view .LVU1809
	addq	$16, %rsi	#, ivtmp.460
.L609:
	.loc 1 215 9 view .LVU1810
# sub_64_aligned.c:215:         result[i] = a[i] - b[i];
	.loc 1 215 26 is_stmt 0 view .LVU1811
	movdqu	(%r12,%rsi), %xmm13	# MEM <vector(2) long unsigned int> [(uint64_t *)a_156 + ivtmp.460_478 * 1], vect__163.336
	movdqu	(%rax,%rsi), %xmm14	# MEM <vector(2) long unsigned int> [(uint64_t *)b_159 + ivtmp.460_478 * 1], tmp1946
	psubq	%xmm14, %xmm13	# tmp1946, vect__163.336
# sub_64_aligned.c:215:         result[i] = a[i] - b[i];
	.loc 1 215 19 view .LVU1812
	movups	%xmm13, (%rbx,%rsi)	# vect__163.336, MEM <vector(2) long unsigned int> [(uint64_t *)result_133 + ivtmp.460_478 * 1]
	.loc 1 217 9 is_stmt 1 view .LVU1813
	.loc 1 224 13 view .LVU1814
# sub_64_aligned.c:224:             borrow_array[i] = 0;
	.loc 1 224 29 is_stmt 0 view .LVU1815
	movups	%xmm10, (%rcx,%rsi)	# tmp929, MEM <vector(2) long unsigned int> [(uint64_t *)borrow_array_152 + ivtmp.460_478 * 1]
	.loc 1 212 25 is_stmt 1 view .LVU1816
	.loc 1 212 19 view .LVU1817
	addq	$16, %rsi	#, ivtmp.460
.L608:
	.loc 1 215 9 view .LVU1818
# sub_64_aligned.c:215:         result[i] = a[i] - b[i];
	.loc 1 215 26 is_stmt 0 view .LVU1819
	movdqu	(%r12,%rsi), %xmm15	# MEM <vector(2) long unsigned int> [(uint64_t *)a_156 + ivtmp.460_478 * 1], vect__163.336
	movdqu	(%rax,%rsi), %xmm0	# MEM <vector(2) long unsigned int> [(uint64_t *)b_159 + ivtmp.460_478 * 1], tmp1948
	psubq	%xmm0, %xmm15	# tmp1948, vect__163.336
# sub_64_aligned.c:215:         result[i] = a[i] - b[i];
	.loc 1 215 19 view .LVU1820
	movups	%xmm15, (%rbx,%rsi)	# vect__163.336, MEM <vector(2) long unsigned int> [(uint64_t *)result_133 + ivtmp.460_478 * 1]
	.loc 1 217 9 is_stmt 1 view .LVU1821
	.loc 1 224 13 view .LVU1822
# sub_64_aligned.c:224:             borrow_array[i] = 0;
	.loc 1 224 29 is_stmt 0 view .LVU1823
	movups	%xmm10, (%rcx,%rsi)	# tmp929, MEM <vector(2) long unsigned int> [(uint64_t *)borrow_array_152 + ivtmp.460_478 * 1]
	.loc 1 212 25 is_stmt 1 view .LVU1824
	.loc 1 212 19 view .LVU1825
	addq	$16, %rsi	#, ivtmp.460
.L607:
	.loc 1 215 9 view .LVU1826
# sub_64_aligned.c:215:         result[i] = a[i] - b[i];
	.loc 1 215 26 is_stmt 0 view .LVU1827
	movdqu	(%r12,%rsi), %xmm4	# MEM <vector(2) long unsigned int> [(uint64_t *)a_156 + ivtmp.460_478 * 1], vect__163.336
	movdqu	(%rax,%rsi), %xmm1	# MEM <vector(2) long unsigned int> [(uint64_t *)b_159 + ivtmp.460_478 * 1], tmp1950
	psubq	%xmm1, %xmm4	# tmp1950, vect__163.336
# sub_64_aligned.c:215:         result[i] = a[i] - b[i];
	.loc 1 215 19 view .LVU1828
	movups	%xmm4, (%rbx,%rsi)	# vect__163.336, MEM <vector(2) long unsigned int> [(uint64_t *)result_133 + ivtmp.460_478 * 1]
	.loc 1 217 9 is_stmt 1 view .LVU1829
	.loc 1 224 13 view .LVU1830
# sub_64_aligned.c:224:             borrow_array[i] = 0;
	.loc 1 224 29 is_stmt 0 view .LVU1831
	movups	%xmm10, (%rcx,%rsi)	# tmp929, MEM <vector(2) long unsigned int> [(uint64_t *)borrow_array_152 + ivtmp.460_478 * 1]
	.loc 1 212 25 is_stmt 1 view .LVU1832
	.loc 1 212 19 view .LVU1833
	addq	$16, %rsi	#, ivtmp.460
.L606:
	.loc 1 215 9 view .LVU1834
# sub_64_aligned.c:215:         result[i] = a[i] - b[i];
	.loc 1 215 26 is_stmt 0 view .LVU1835
	movdqu	(%r12,%rsi), %xmm5	# MEM <vector(2) long unsigned int> [(uint64_t *)a_156 + ivtmp.460_478 * 1], vect__163.336
	movdqu	(%rax,%rsi), %xmm8	# MEM <vector(2) long unsigned int> [(uint64_t *)b_159 + ivtmp.460_478 * 1], tmp1952
	psubq	%xmm8, %xmm5	# tmp1952, vect__163.336
# sub_64_aligned.c:215:         result[i] = a[i] - b[i];
	.loc 1 215 19 view .LVU1836
	movups	%xmm5, (%rbx,%rsi)	# vect__163.336, MEM <vector(2) long unsigned int> [(uint64_t *)result_133 + ivtmp.460_478 * 1]
	.loc 1 217 9 is_stmt 1 view .LVU1837
	.loc 1 224 13 view .LVU1838
# sub_64_aligned.c:224:             borrow_array[i] = 0;
	.loc 1 224 29 is_stmt 0 view .LVU1839
	movups	%xmm10, (%rcx,%rsi)	# tmp929, MEM <vector(2) long unsigned int> [(uint64_t *)borrow_array_152 + ivtmp.460_478 * 1]
	.loc 1 212 25 is_stmt 1 view .LVU1840
	.loc 1 212 19 view .LVU1841
	addq	$16, %rsi	#, ivtmp.460
.L605:
	.loc 1 215 9 view .LVU1842
# sub_64_aligned.c:215:         result[i] = a[i] - b[i];
	.loc 1 215 26 is_stmt 0 view .LVU1843
	movdqu	(%r12,%rsi), %xmm2	# MEM <vector(2) long unsigned int> [(uint64_t *)a_156 + ivtmp.460_478 * 1], vect__163.336
	movdqu	(%rax,%rsi), %xmm9	# MEM <vector(2) long unsigned int> [(uint64_t *)b_159 + ivtmp.460_478 * 1], tmp1954
	psubq	%xmm9, %xmm2	# tmp1954, vect__163.336
# sub_64_aligned.c:215:         result[i] = a[i] - b[i];
	.loc 1 215 19 view .LVU1844
	movups	%xmm2, (%rbx,%rsi)	# vect__163.336, MEM <vector(2) long unsigned int> [(uint64_t *)result_133 + ivtmp.460_478 * 1]
	.loc 1 217 9 is_stmt 1 view .LVU1845
	.loc 1 224 13 view .LVU1846
# sub_64_aligned.c:224:             borrow_array[i] = 0;
	.loc 1 224 29 is_stmt 0 view .LVU1847
	movups	%xmm10, (%rcx,%rsi)	# tmp929, MEM <vector(2) long unsigned int> [(uint64_t *)borrow_array_152 + ivtmp.460_478 * 1]
	.loc 1 212 25 is_stmt 1 view .LVU1848
	.loc 1 212 19 view .LVU1849
	addq	$16, %rsi	#, ivtmp.460
	cmpq	%r9, %rsi	# _485, ivtmp.460
	je	.L741	#,
.L316:
	.loc 1 215 9 view .LVU1850
# sub_64_aligned.c:215:         result[i] = a[i] - b[i];
	.loc 1 215 26 is_stmt 0 view .LVU1851
	movdqu	(%r12,%rsi), %xmm3	# MEM <vector(2) long unsigned int> [(uint64_t *)a_156 + ivtmp.460_478 * 1], vect__163.336
	movdqu	(%rax,%rsi), %xmm7	# MEM <vector(2) long unsigned int> [(uint64_t *)b_159 + ivtmp.460_478 * 1], tmp1849
	psubq	%xmm7, %xmm3	# tmp1849, vect__163.336
# sub_64_aligned.c:215:         result[i] = a[i] - b[i];
	.loc 1 215 19 view .LVU1852
	movups	%xmm3, (%rbx,%rsi)	# vect__163.336, MEM <vector(2) long unsigned int> [(uint64_t *)result_133 + ivtmp.460_478 * 1]
	.loc 1 217 9 is_stmt 1 view .LVU1853
	.loc 1 224 13 view .LVU1854
# sub_64_aligned.c:224:             borrow_array[i] = 0;
	.loc 1 224 29 is_stmt 0 view .LVU1855
	movups	%xmm10, (%rcx,%rsi)	# tmp929, MEM <vector(2) long unsigned int> [(uint64_t *)borrow_array_152 + ivtmp.460_478 * 1]
	.loc 1 212 25 is_stmt 1 view .LVU1856
	.loc 1 212 19 view .LVU1857
	.loc 1 215 9 view .LVU1858
# sub_64_aligned.c:215:         result[i] = a[i] - b[i];
	.loc 1 215 26 is_stmt 0 view .LVU1859
	movdqu	16(%r12,%rsi), %xmm6	# MEM <vector(2) long unsigned int> [(uint64_t *)a_156 + ivtmp.460_478 * 1], vect__163.336
	movdqu	16(%rax,%rsi), %xmm11	# MEM <vector(2) long unsigned int> [(uint64_t *)b_159 + ivtmp.460_478 * 1], tmp1851
	psubq	%xmm11, %xmm6	# tmp1851, vect__163.336
# sub_64_aligned.c:215:         result[i] = a[i] - b[i];
	.loc 1 215 19 view .LVU1860
	movups	%xmm6, 16(%rbx,%rsi)	# vect__163.336, MEM <vector(2) long unsigned int> [(uint64_t *)result_133 + ivtmp.460_478 * 1]
	.loc 1 217 9 is_stmt 1 view .LVU1861
	.loc 1 224 13 view .LVU1862
# sub_64_aligned.c:224:             borrow_array[i] = 0;
	.loc 1 224 29 is_stmt 0 view .LVU1863
	movups	%xmm10, 16(%rcx,%rsi)	# tmp929, MEM <vector(2) long unsigned int> [(uint64_t *)borrow_array_152 + ivtmp.460_478 * 1]
	.loc 1 212 25 is_stmt 1 view .LVU1864
	.loc 1 212 19 view .LVU1865
	.loc 1 215 9 view .LVU1866
# sub_64_aligned.c:215:         result[i] = a[i] - b[i];
	.loc 1 215 26 is_stmt 0 view .LVU1867
	movdqu	32(%r12,%rsi), %xmm12	# MEM <vector(2) long unsigned int> [(uint64_t *)a_156 + ivtmp.460_478 * 1], vect__163.336
	movdqu	32(%rax,%rsi), %xmm13	# MEM <vector(2) long unsigned int> [(uint64_t *)b_159 + ivtmp.460_478 * 1], tmp1853
	psubq	%xmm13, %xmm12	# tmp1853, vect__163.336
# sub_64_aligned.c:215:         result[i] = a[i] - b[i];
	.loc 1 215 19 view .LVU1868
	movups	%xmm12, 32(%rbx,%rsi)	# vect__163.336, MEM <vector(2) long unsigned int> [(uint64_t *)result_133 + ivtmp.460_478 * 1]
	.loc 1 217 9 is_stmt 1 view .LVU1869
	.loc 1 224 13 view .LVU1870
# sub_64_aligned.c:224:             borrow_array[i] = 0;
	.loc 1 224 29 is_stmt 0 view .LVU1871
	movups	%xmm10, 32(%rcx,%rsi)	# tmp929, MEM <vector(2) long unsigned int> [(uint64_t *)borrow_array_152 + ivtmp.460_478 * 1]
	.loc 1 212 25 is_stmt 1 view .LVU1872
	.loc 1 212 19 view .LVU1873
	.loc 1 215 9 view .LVU1874
# sub_64_aligned.c:215:         result[i] = a[i] - b[i];
	.loc 1 215 26 is_stmt 0 view .LVU1875
	movdqu	48(%r12,%rsi), %xmm14	# MEM <vector(2) long unsigned int> [(uint64_t *)a_156 + ivtmp.460_478 * 1], vect__163.336
	movdqu	48(%rax,%rsi), %xmm15	# MEM <vector(2) long unsigned int> [(uint64_t *)b_159 + ivtmp.460_478 * 1], tmp1855
	psubq	%xmm15, %xmm14	# tmp1855, vect__163.336
# sub_64_aligned.c:215:         result[i] = a[i] - b[i];
	.loc 1 215 19 view .LVU1876
	movups	%xmm14, 48(%rbx,%rsi)	# vect__163.336, MEM <vector(2) long unsigned int> [(uint64_t *)result_133 + ivtmp.460_478 * 1]
	.loc 1 217 9 is_stmt 1 view .LVU1877
	.loc 1 224 13 view .LVU1878
# sub_64_aligned.c:224:             borrow_array[i] = 0;
	.loc 1 224 29 is_stmt 0 view .LVU1879
	movups	%xmm10, 48(%rcx,%rsi)	# tmp929, MEM <vector(2) long unsigned int> [(uint64_t *)borrow_array_152 + ivtmp.460_478 * 1]
	.loc 1 212 25 is_stmt 1 view .LVU1880
	.loc 1 212 19 view .LVU1881
	.loc 1 215 9 view .LVU1882
# sub_64_aligned.c:215:         result[i] = a[i] - b[i];
	.loc 1 215 26 is_stmt 0 view .LVU1883
	movdqu	64(%r12,%rsi), %xmm0	# MEM <vector(2) long unsigned int> [(uint64_t *)a_156 + ivtmp.460_478 * 1], vect__163.336
	movdqu	64(%rax,%rsi), %xmm4	# MEM <vector(2) long unsigned int> [(uint64_t *)b_159 + ivtmp.460_478 * 1], tmp1857
	psubq	%xmm4, %xmm0	# tmp1857, vect__163.336
# sub_64_aligned.c:215:         result[i] = a[i] - b[i];
	.loc 1 215 19 view .LVU1884
	movups	%xmm0, 64(%rbx,%rsi)	# vect__163.336, MEM <vector(2) long unsigned int> [(uint64_t *)result_133 + ivtmp.460_478 * 1]
	.loc 1 217 9 is_stmt 1 view .LVU1885
	.loc 1 224 13 view .LVU1886
# sub_64_aligned.c:224:             borrow_array[i] = 0;
	.loc 1 224 29 is_stmt 0 view .LVU1887
	movups	%xmm10, 64(%rcx,%rsi)	# tmp929, MEM <vector(2) long unsigned int> [(uint64_t *)borrow_array_152 + ivtmp.460_478 * 1]
	.loc 1 212 25 is_stmt 1 view .LVU1888
	.loc 1 212 19 view .LVU1889
	.loc 1 215 9 view .LVU1890
# sub_64_aligned.c:215:         result[i] = a[i] - b[i];
	.loc 1 215 26 is_stmt 0 view .LVU1891
	movdqu	80(%r12,%rsi), %xmm1	# MEM <vector(2) long unsigned int> [(uint64_t *)a_156 + ivtmp.460_478 * 1], vect__163.336
	movdqu	80(%rax,%rsi), %xmm5	# MEM <vector(2) long unsigned int> [(uint64_t *)b_159 + ivtmp.460_478 * 1], tmp1859
	psubq	%xmm5, %xmm1	# tmp1859, vect__163.336
# sub_64_aligned.c:215:         result[i] = a[i] - b[i];
	.loc 1 215 19 view .LVU1892
	movups	%xmm1, 80(%rbx,%rsi)	# vect__163.336, MEM <vector(2) long unsigned int> [(uint64_t *)result_133 + ivtmp.460_478 * 1]
	.loc 1 217 9 is_stmt 1 view .LVU1893
	.loc 1 224 13 view .LVU1894
# sub_64_aligned.c:224:             borrow_array[i] = 0;
	.loc 1 224 29 is_stmt 0 view .LVU1895
	movups	%xmm10, 80(%rcx,%rsi)	# tmp929, MEM <vector(2) long unsigned int> [(uint64_t *)borrow_array_152 + ivtmp.460_478 * 1]
	.loc 1 212 25 is_stmt 1 view .LVU1896
	.loc 1 212 19 view .LVU1897
	.loc 1 215 9 view .LVU1898
# sub_64_aligned.c:215:         result[i] = a[i] - b[i];
	.loc 1 215 26 is_stmt 0 view .LVU1899
	movdqu	96(%r12,%rsi), %xmm8	# MEM <vector(2) long unsigned int> [(uint64_t *)a_156 + ivtmp.460_478 * 1], vect__163.336
	movdqu	96(%rax,%rsi), %xmm2	# MEM <vector(2) long unsigned int> [(uint64_t *)b_159 + ivtmp.460_478 * 1], tmp1861
	psubq	%xmm2, %xmm8	# tmp1861, vect__163.336
# sub_64_aligned.c:215:         result[i] = a[i] - b[i];
	.loc 1 215 19 view .LVU1900
	movups	%xmm8, 96(%rbx,%rsi)	# vect__163.336, MEM <vector(2) long unsigned int> [(uint64_t *)result_133 + ivtmp.460_478 * 1]
	.loc 1 217 9 is_stmt 1 view .LVU1901
	.loc 1 224 13 view .LVU1902
# sub_64_aligned.c:224:             borrow_array[i] = 0;
	.loc 1 224 29 is_stmt 0 view .LVU1903
	movups	%xmm10, 96(%rcx,%rsi)	# tmp929, MEM <vector(2) long unsigned int> [(uint64_t *)borrow_array_152 + ivtmp.460_478 * 1]
	.loc 1 212 25 is_stmt 1 view .LVU1904
	.loc 1 212 19 view .LVU1905
	.loc 1 215 9 view .LVU1906
# sub_64_aligned.c:215:         result[i] = a[i] - b[i];
	.loc 1 215 26 is_stmt 0 view .LVU1907
	movdqu	112(%r12,%rsi), %xmm9	# MEM <vector(2) long unsigned int> [(uint64_t *)a_156 + ivtmp.460_478 * 1], vect__163.336
	movdqu	112(%rax,%rsi), %xmm3	# MEM <vector(2) long unsigned int> [(uint64_t *)b_159 + ivtmp.460_478 * 1], tmp1863
	psubq	%xmm3, %xmm9	# tmp1863, vect__163.336
# sub_64_aligned.c:215:         result[i] = a[i] - b[i];
	.loc 1 215 19 view .LVU1908
	movups	%xmm9, 112(%rbx,%rsi)	# vect__163.336, MEM <vector(2) long unsigned int> [(uint64_t *)result_133 + ivtmp.460_478 * 1]
	.loc 1 217 9 is_stmt 1 view .LVU1909
	.loc 1 224 13 view .LVU1910
# sub_64_aligned.c:224:             borrow_array[i] = 0;
	.loc 1 224 29 is_stmt 0 view .LVU1911
	movups	%xmm10, 112(%rcx,%rsi)	# tmp929, MEM <vector(2) long unsigned int> [(uint64_t *)borrow_array_152 + ivtmp.460_478 * 1]
	.loc 1 212 25 is_stmt 1 view .LVU1912
	.loc 1 212 19 view .LVU1913
	subq	$-128, %rsi	#, ivtmp.460
	cmpq	%r9, %rsi	# _485, ivtmp.460
	jne	.L316	#,
.L741:
	.loc 1 212 19 is_stmt 0 view .LVU1914
	movl	%r14d, %r8d	# prephitmp_382, niters_vector_mult_vf.328
	andl	$-2, %r8d	#,
	testb	$1, %r14b	#, prephitmp_382
	je	.L322	#,
.LVL474:
	.loc 1 215 9 is_stmt 1 view .LVU1915
# sub_64_aligned.c:215:         result[i] = a[i] - b[i];
	.loc 1 215 26 is_stmt 0 view .LVU1916
	movq	(%r12,%r8,8), %r12	# *_509, *_509
.LVL475:
	.loc 1 215 26 view .LVU1917
	subq	(%rax,%r8,8), %r12	# *_511, *_509
# sub_64_aligned.c:215:         result[i] = a[i] - b[i];
	.loc 1 215 19 view .LVU1918
	movq	%r12, (%rbx,%r8,8)	# tmp933, *_513
	.loc 1 217 9 is_stmt 1 view .LVU1919
	.loc 1 224 13 view .LVU1920
# sub_64_aligned.c:224:             borrow_array[i] = 0;
	.loc 1 224 29 is_stmt 0 view .LVU1921
	movq	$0, (%rcx,%r8,8)	#, *_516
	.loc 1 212 25 is_stmt 1 view .LVU1922
.LVL476:
	.loc 1 212 19 view .LVU1923
.L322:
	.loc 1 229 5 view .LVU1924
.LBB640:
.LBI640:
	.loc 1 172 6 view .LVU1925
.LBB641:
	.loc 1 175 5 view .LVU1926
.LBB642:
.LBB643:
# sub_64_aligned.c:177:         memset(borrow_array, 0, n * sizeof(uint64_t)); // Clear the array if it's empty or has only one element
	.loc 1 177 9 is_stmt 0 view .LVU1927
	leaq	0(,%rdx,8), %r12	#, _438
.LBE643:
.LBE642:
# sub_64_aligned.c:175:     if (n <= 1)
	.loc 1 175 8 view .LVU1928
	cmpl	$1, %r14d	#, prephitmp_382
	jle	.L318	#,
# sub_64_aligned.c:182:     memmove(borrow_array, borrow_array + 1, (n - 1) * sizeof(uint64_t));
	.loc 1 182 5 view .LVU1929
	leaq	-8(%r12), %rdx	#, tmp945
# sub_64_aligned.c:182:     memmove(borrow_array, borrow_array + 1, (n - 1) * sizeof(uint64_t));
	.loc 1 182 40 view .LVU1930
	leaq	8(%rcx), %rsi	#, tmp946
.LBB648:
.LBB649:
# /usr/include/x86_64-linux-gnu/bits/string_fortified.h:36:   return __builtin___memmove_chk (__dest, __src, __len,
	.loc 4 36 10 view .LVU1931
	movq	%rcx, %rdi	# borrow_array,
	movq	%r11, -1456(%rbp)	# _132, %sfp
	movq	%r10, -1400(%rbp)	# sub_space.42_129, %sfp
	.loc 4 36 10 view .LVU1932
.LBE649:
.LBE648:
	.loc 1 182 5 is_stmt 1 view .LVU1933
.LVL477:
.LBB652:
.LBI648:
	.loc 4 34 1 view .LVU1934
.LBB650:
	.loc 4 36 3 view .LVU1935
# /usr/include/x86_64-linux-gnu/bits/string_fortified.h:36:   return __builtin___memmove_chk (__dest, __src, __len,
	.loc 4 36 10 is_stmt 0 view .LVU1936
	call	memmove@PLT	#
.LVL478:
	.loc 4 36 10 view .LVU1937
	movq	-1392(%rbp), %rdx	# %sfp, _151
	movq	-1456(%rbp), %r11	# %sfp, _132
.LBE650:
.LBE652:
# sub_64_aligned.c:185:     borrow_array[n - 1] = 0;
	.loc 1 185 25 view .LVU1938
	movq	$0, -8(%rax,%r12)	#, *_297
	movq	-1400(%rbp), %r12	# %sfp, sub_space.42_129
.LVL479:
.LBB653:
.LBB651:
# /usr/include/x86_64-linux-gnu/bits/string_fortified.h:36:   return __builtin___memmove_chk (__dest, __src, __len,
	.loc 4 36 10 view .LVU1939
	movq	%rax, %rcx	#, borrow_array
.LVL480:
	.loc 4 36 10 view .LVU1940
.LBE651:
.LBE653:
	.loc 1 185 5 is_stmt 1 view .LVU1941
	.loc 1 185 5 is_stmt 0 view .LVU1942
.LBE641:
.LBE640:
	.loc 1 234 19 is_stmt 1 view .LVU1943
	leaq	16(%r13,%rdx), %r10	#, tmp948
	cmpq	%r10, %rbx	# tmp948, result
	leaq	16(%r12,%r11), %rax	#, tmp952
	setnb	%r13b	#, tmp950
.LVL481:
	.loc 1 234 19 is_stmt 0 view .LVU1944
	cmpq	%rax, %rcx	# tmp952, borrow_array
	setnb	%r9b	#, tmp954
	orb	%r9b, %r13b	# tmp954, tmp1544
	je	.L360	#,
	cmpl	$2, %r14d	#, prephitmp_382
	jle	.L360	#,
	testl	%r14d, %r14d	# prephitmp_382
	movl	$1, %edi	#, tmp959
# sub_64_aligned.c:244:             borrow_array[i] = 0;
	.loc 1 244 29 view .LVU1945
	pxor	%xmm10, %xmm10	# tmp965
	cmovg	%r14d, %edi	# prephitmp_382,, niters.311
.LBB657:
.LBB655:
# sub_64_aligned.c:185:     borrow_array[n - 1] = 0;
	.loc 1 185 25 view .LVU1946
	xorl	%edx, %edx	# ivtmp.443
	movl	%edi, %esi	# niters.311, bnd.312
	shrl	%esi	#
	salq	$4, %rsi	#, _465
	leaq	-16(%rsi), %r8	#, tmp1069
	shrq	$4, %r8	#, tmp1067
	addq	$1, %r8	#, tmp1070
	andl	$7, %r8d	#, tmp1071
	je	.L327	#,
	cmpq	$1, %r8	#, tmp1071
	je	.L617	#,
	cmpq	$2, %r8	#, tmp1071
	je	.L618	#,
	cmpq	$3, %r8	#, tmp1071
	je	.L619	#,
	cmpq	$4, %r8	#, tmp1071
	je	.L620	#,
	cmpq	$5, %r8	#, tmp1071
	je	.L621	#,
	cmpq	$6, %r8	#, tmp1071
	je	.L622	#,
.LVL482:
	.loc 1 185 25 view .LVU1947
.LBE655:
.LBE657:
	.loc 1 236 9 is_stmt 1 view .LVU1948
# sub_64_aligned.c:236:         result[i] = result[i] - borrow_array[i];
	.loc 1 236 31 is_stmt 0 view .LVU1949
	movdqu	(%rbx), %xmm7	# MEM <vector(2) long unsigned int> [(uint64_t *)result_133 + ivtmp.443_597 * 1], vect__173.321
	movdqu	(%rcx), %xmm6	# MEM <vector(2) long unsigned int> [(uint64_t *)borrow_array_152 + ivtmp.443_597 * 1], tmp1928
	movl	$16, %edx	#, ivtmp.443
	psubq	%xmm6, %xmm7	# tmp1928, vect__173.321
# sub_64_aligned.c:236:         result[i] = result[i] - borrow_array[i];
	.loc 1 236 19 view .LVU1950
	movups	%xmm7, (%rbx)	# vect__173.321, MEM <vector(2) long unsigned int> [(uint64_t *)result_133 + ivtmp.443_597 * 1]
	.loc 1 237 9 is_stmt 1 view .LVU1951
	.loc 1 244 13 view .LVU1952
# sub_64_aligned.c:244:             borrow_array[i] = 0;
	.loc 1 244 29 is_stmt 0 view .LVU1953
	movups	%xmm10, (%rcx)	# tmp965, MEM <vector(2) long unsigned int> [(uint64_t *)borrow_array_152 + ivtmp.443_597 * 1]
	.loc 1 234 25 is_stmt 1 view .LVU1954
	.loc 1 234 19 view .LVU1955
.L622:
	.loc 1 236 9 view .LVU1956
# sub_64_aligned.c:236:         result[i] = result[i] - borrow_array[i];
	.loc 1 236 31 is_stmt 0 view .LVU1957
	movdqu	(%rbx,%rdx), %xmm11	# MEM <vector(2) long unsigned int> [(uint64_t *)result_133 + ivtmp.443_597 * 1], vect__173.321
	movdqu	(%rcx,%rdx), %xmm12	# MEM <vector(2) long unsigned int> [(uint64_t *)borrow_array_152 + ivtmp.443_597 * 1], tmp1930
	psubq	%xmm12, %xmm11	# tmp1930, vect__173.321
# sub_64_aligned.c:236:         result[i] = result[i] - borrow_array[i];
	.loc 1 236 19 view .LVU1958
	movups	%xmm11, (%rbx,%rdx)	# vect__173.321, MEM <vector(2) long unsigned int> [(uint64_t *)result_133 + ivtmp.443_597 * 1]
	.loc 1 237 9 is_stmt 1 view .LVU1959
	.loc 1 244 13 view .LVU1960
# sub_64_aligned.c:244:             borrow_array[i] = 0;
	.loc 1 244 29 is_stmt 0 view .LVU1961
	movups	%xmm10, (%rcx,%rdx)	# tmp965, MEM <vector(2) long unsigned int> [(uint64_t *)borrow_array_152 + ivtmp.443_597 * 1]
	.loc 1 234 25 is_stmt 1 view .LVU1962
	.loc 1 234 19 view .LVU1963
	addq	$16, %rdx	#, ivtmp.443
.L621:
	.loc 1 236 9 view .LVU1964
# sub_64_aligned.c:236:         result[i] = result[i] - borrow_array[i];
	.loc 1 236 31 is_stmt 0 view .LVU1965
	movdqu	(%rbx,%rdx), %xmm13	# MEM <vector(2) long unsigned int> [(uint64_t *)result_133 + ivtmp.443_597 * 1], vect__173.321
	movdqu	(%rcx,%rdx), %xmm14	# MEM <vector(2) long unsigned int> [(uint64_t *)borrow_array_152 + ivtmp.443_597 * 1], tmp1932
	psubq	%xmm14, %xmm13	# tmp1932, vect__173.321
# sub_64_aligned.c:236:         result[i] = result[i] - borrow_array[i];
	.loc 1 236 19 view .LVU1966
	movups	%xmm13, (%rbx,%rdx)	# vect__173.321, MEM <vector(2) long unsigned int> [(uint64_t *)result_133 + ivtmp.443_597 * 1]
	.loc 1 237 9 is_stmt 1 view .LVU1967
	.loc 1 244 13 view .LVU1968
# sub_64_aligned.c:244:             borrow_array[i] = 0;
	.loc 1 244 29 is_stmt 0 view .LVU1969
	movups	%xmm10, (%rcx,%rdx)	# tmp965, MEM <vector(2) long unsigned int> [(uint64_t *)borrow_array_152 + ivtmp.443_597 * 1]
	.loc 1 234 25 is_stmt 1 view .LVU1970
	.loc 1 234 19 view .LVU1971
	addq	$16, %rdx	#, ivtmp.443
.L620:
	.loc 1 236 9 view .LVU1972
# sub_64_aligned.c:236:         result[i] = result[i] - borrow_array[i];
	.loc 1 236 31 is_stmt 0 view .LVU1973
	movdqu	(%rbx,%rdx), %xmm15	# MEM <vector(2) long unsigned int> [(uint64_t *)result_133 + ivtmp.443_597 * 1], vect__173.321
	movdqu	(%rcx,%rdx), %xmm0	# MEM <vector(2) long unsigned int> [(uint64_t *)borrow_array_152 + ivtmp.443_597 * 1], tmp1934
	psubq	%xmm0, %xmm15	# tmp1934, vect__173.321
# sub_64_aligned.c:236:         result[i] = result[i] - borrow_array[i];
	.loc 1 236 19 view .LVU1974
	movups	%xmm15, (%rbx,%rdx)	# vect__173.321, MEM <vector(2) long unsigned int> [(uint64_t *)result_133 + ivtmp.443_597 * 1]
	.loc 1 237 9 is_stmt 1 view .LVU1975
	.loc 1 244 13 view .LVU1976
# sub_64_aligned.c:244:             borrow_array[i] = 0;
	.loc 1 244 29 is_stmt 0 view .LVU1977
	movups	%xmm10, (%rcx,%rdx)	# tmp965, MEM <vector(2) long unsigned int> [(uint64_t *)borrow_array_152 + ivtmp.443_597 * 1]
	.loc 1 234 25 is_stmt 1 view .LVU1978
	.loc 1 234 19 view .LVU1979
	addq	$16, %rdx	#, ivtmp.443
.L619:
	.loc 1 236 9 view .LVU1980
# sub_64_aligned.c:236:         result[i] = result[i] - borrow_array[i];
	.loc 1 236 31 is_stmt 0 view .LVU1981
	movdqu	(%rbx,%rdx), %xmm1	# MEM <vector(2) long unsigned int> [(uint64_t *)result_133 + ivtmp.443_597 * 1], vect__173.321
	movdqu	(%rcx,%rdx), %xmm4	# MEM <vector(2) long unsigned int> [(uint64_t *)borrow_array_152 + ivtmp.443_597 * 1], tmp1936
	psubq	%xmm4, %xmm1	# tmp1936, vect__173.321
# sub_64_aligned.c:236:         result[i] = result[i] - borrow_array[i];
	.loc 1 236 19 view .LVU1982
	movups	%xmm1, (%rbx,%rdx)	# vect__173.321, MEM <vector(2) long unsigned int> [(uint64_t *)result_133 + ivtmp.443_597 * 1]
	.loc 1 237 9 is_stmt 1 view .LVU1983
	.loc 1 244 13 view .LVU1984
# sub_64_aligned.c:244:             borrow_array[i] = 0;
	.loc 1 244 29 is_stmt 0 view .LVU1985
	movups	%xmm10, (%rcx,%rdx)	# tmp965, MEM <vector(2) long unsigned int> [(uint64_t *)borrow_array_152 + ivtmp.443_597 * 1]
	.loc 1 234 25 is_stmt 1 view .LVU1986
	.loc 1 234 19 view .LVU1987
	addq	$16, %rdx	#, ivtmp.443
.L618:
	.loc 1 236 9 view .LVU1988
# sub_64_aligned.c:236:         result[i] = result[i] - borrow_array[i];
	.loc 1 236 31 is_stmt 0 view .LVU1989
	movdqu	(%rbx,%rdx), %xmm5	# MEM <vector(2) long unsigned int> [(uint64_t *)result_133 + ivtmp.443_597 * 1], vect__173.321
	movdqu	(%rcx,%rdx), %xmm8	# MEM <vector(2) long unsigned int> [(uint64_t *)borrow_array_152 + ivtmp.443_597 * 1], tmp1938
	psubq	%xmm8, %xmm5	# tmp1938, vect__173.321
# sub_64_aligned.c:236:         result[i] = result[i] - borrow_array[i];
	.loc 1 236 19 view .LVU1990
	movups	%xmm5, (%rbx,%rdx)	# vect__173.321, MEM <vector(2) long unsigned int> [(uint64_t *)result_133 + ivtmp.443_597 * 1]
	.loc 1 237 9 is_stmt 1 view .LVU1991
	.loc 1 244 13 view .LVU1992
# sub_64_aligned.c:244:             borrow_array[i] = 0;
	.loc 1 244 29 is_stmt 0 view .LVU1993
	movups	%xmm10, (%rcx,%rdx)	# tmp965, MEM <vector(2) long unsigned int> [(uint64_t *)borrow_array_152 + ivtmp.443_597 * 1]
	.loc 1 234 25 is_stmt 1 view .LVU1994
	.loc 1 234 19 view .LVU1995
	addq	$16, %rdx	#, ivtmp.443
.L617:
	.loc 1 236 9 view .LVU1996
# sub_64_aligned.c:236:         result[i] = result[i] - borrow_array[i];
	.loc 1 236 31 is_stmt 0 view .LVU1997
	movdqu	(%rbx,%rdx), %xmm2	# MEM <vector(2) long unsigned int> [(uint64_t *)result_133 + ivtmp.443_597 * 1], vect__173.321
	movdqu	(%rcx,%rdx), %xmm9	# MEM <vector(2) long unsigned int> [(uint64_t *)borrow_array_152 + ivtmp.443_597 * 1], tmp1940
	psubq	%xmm9, %xmm2	# tmp1940, vect__173.321
# sub_64_aligned.c:236:         result[i] = result[i] - borrow_array[i];
	.loc 1 236 19 view .LVU1998
	movups	%xmm2, (%rbx,%rdx)	# vect__173.321, MEM <vector(2) long unsigned int> [(uint64_t *)result_133 + ivtmp.443_597 * 1]
	.loc 1 237 9 is_stmt 1 view .LVU1999
	.loc 1 244 13 view .LVU2000
# sub_64_aligned.c:244:             borrow_array[i] = 0;
	.loc 1 244 29 is_stmt 0 view .LVU2001
	movups	%xmm10, (%rcx,%rdx)	# tmp965, MEM <vector(2) long unsigned int> [(uint64_t *)borrow_array_152 + ivtmp.443_597 * 1]
	.loc 1 234 25 is_stmt 1 view .LVU2002
	.loc 1 234 19 view .LVU2003
	addq	$16, %rdx	#, ivtmp.443
	cmpq	%rsi, %rdx	# _465, ivtmp.443
	je	.L740	#,
.L327:
	.loc 1 236 9 view .LVU2004
# sub_64_aligned.c:236:         result[i] = result[i] - borrow_array[i];
	.loc 1 236 31 is_stmt 0 view .LVU2005
	movdqu	(%rbx,%rdx), %xmm3	# MEM <vector(2) long unsigned int> [(uint64_t *)result_133 + ivtmp.443_597 * 1], vect__173.321
	movdqu	(%rcx,%rdx), %xmm7	# MEM <vector(2) long unsigned int> [(uint64_t *)borrow_array_152 + ivtmp.443_597 * 1], tmp1870
	psubq	%xmm7, %xmm3	# tmp1870, vect__173.321
# sub_64_aligned.c:236:         result[i] = result[i] - borrow_array[i];
	.loc 1 236 19 view .LVU2006
	movups	%xmm3, (%rbx,%rdx)	# vect__173.321, MEM <vector(2) long unsigned int> [(uint64_t *)result_133 + ivtmp.443_597 * 1]
	.loc 1 237 9 is_stmt 1 view .LVU2007
	.loc 1 244 13 view .LVU2008
# sub_64_aligned.c:236:         result[i] = result[i] - borrow_array[i];
	.loc 1 236 31 is_stmt 0 view .LVU2009
	movdqu	16(%rcx,%rdx), %xmm11	# MEM <vector(2) long unsigned int> [(uint64_t *)borrow_array_152 + ivtmp.443_597 * 1], tmp1872
# sub_64_aligned.c:244:             borrow_array[i] = 0;
	.loc 1 244 29 view .LVU2010
	movups	%xmm10, (%rcx,%rdx)	# tmp965, MEM <vector(2) long unsigned int> [(uint64_t *)borrow_array_152 + ivtmp.443_597 * 1]
	.loc 1 234 25 is_stmt 1 view .LVU2011
	.loc 1 234 19 view .LVU2012
	.loc 1 236 9 view .LVU2013
# sub_64_aligned.c:236:         result[i] = result[i] - borrow_array[i];
	.loc 1 236 31 is_stmt 0 view .LVU2014
	movdqu	16(%rbx,%rdx), %xmm6	# MEM <vector(2) long unsigned int> [(uint64_t *)result_133 + ivtmp.443_597 * 1], vect__173.321
	psubq	%xmm11, %xmm6	# tmp1872, vect__173.321
# sub_64_aligned.c:236:         result[i] = result[i] - borrow_array[i];
	.loc 1 236 19 view .LVU2015
	movups	%xmm6, 16(%rbx,%rdx)	# vect__173.321, MEM <vector(2) long unsigned int> [(uint64_t *)result_133 + ivtmp.443_597 * 1]
	.loc 1 237 9 is_stmt 1 view .LVU2016
	.loc 1 244 13 view .LVU2017
# sub_64_aligned.c:236:         result[i] = result[i] - borrow_array[i];
	.loc 1 236 31 is_stmt 0 view .LVU2018
	movdqu	32(%rcx,%rdx), %xmm13	# MEM <vector(2) long unsigned int> [(uint64_t *)borrow_array_152 + ivtmp.443_597 * 1], tmp1874
# sub_64_aligned.c:244:             borrow_array[i] = 0;
	.loc 1 244 29 view .LVU2019
	movups	%xmm10, 16(%rcx,%rdx)	# tmp965, MEM <vector(2) long unsigned int> [(uint64_t *)borrow_array_152 + ivtmp.443_597 * 1]
	.loc 1 234 25 is_stmt 1 view .LVU2020
	.loc 1 234 19 view .LVU2021
	.loc 1 236 9 view .LVU2022
# sub_64_aligned.c:236:         result[i] = result[i] - borrow_array[i];
	.loc 1 236 31 is_stmt 0 view .LVU2023
	movdqu	32(%rbx,%rdx), %xmm12	# MEM <vector(2) long unsigned int> [(uint64_t *)result_133 + ivtmp.443_597 * 1], vect__173.321
	psubq	%xmm13, %xmm12	# tmp1874, vect__173.321
# sub_64_aligned.c:236:         result[i] = result[i] - borrow_array[i];
	.loc 1 236 19 view .LVU2024
	movups	%xmm12, 32(%rbx,%rdx)	# vect__173.321, MEM <vector(2) long unsigned int> [(uint64_t *)result_133 + ivtmp.443_597 * 1]
	.loc 1 237 9 is_stmt 1 view .LVU2025
	.loc 1 244 13 view .LVU2026
# sub_64_aligned.c:236:         result[i] = result[i] - borrow_array[i];
	.loc 1 236 31 is_stmt 0 view .LVU2027
	movdqu	48(%rcx,%rdx), %xmm15	# MEM <vector(2) long unsigned int> [(uint64_t *)borrow_array_152 + ivtmp.443_597 * 1], tmp1876
# sub_64_aligned.c:244:             borrow_array[i] = 0;
	.loc 1 244 29 view .LVU2028
	movups	%xmm10, 32(%rcx,%rdx)	# tmp965, MEM <vector(2) long unsigned int> [(uint64_t *)borrow_array_152 + ivtmp.443_597 * 1]
	.loc 1 234 25 is_stmt 1 view .LVU2029
	.loc 1 234 19 view .LVU2030
	.loc 1 236 9 view .LVU2031
# sub_64_aligned.c:236:         result[i] = result[i] - borrow_array[i];
	.loc 1 236 31 is_stmt 0 view .LVU2032
	movdqu	48(%rbx,%rdx), %xmm14	# MEM <vector(2) long unsigned int> [(uint64_t *)result_133 + ivtmp.443_597 * 1], vect__173.321
	psubq	%xmm15, %xmm14	# tmp1876, vect__173.321
# sub_64_aligned.c:236:         result[i] = result[i] - borrow_array[i];
	.loc 1 236 19 view .LVU2033
	movups	%xmm14, 48(%rbx,%rdx)	# vect__173.321, MEM <vector(2) long unsigned int> [(uint64_t *)result_133 + ivtmp.443_597 * 1]
	.loc 1 237 9 is_stmt 1 view .LVU2034
	.loc 1 244 13 view .LVU2035
# sub_64_aligned.c:236:         result[i] = result[i] - borrow_array[i];
	.loc 1 236 31 is_stmt 0 view .LVU2036
	movdqu	64(%rcx,%rdx), %xmm1	# MEM <vector(2) long unsigned int> [(uint64_t *)borrow_array_152 + ivtmp.443_597 * 1], tmp1878
# sub_64_aligned.c:244:             borrow_array[i] = 0;
	.loc 1 244 29 view .LVU2037
	movups	%xmm10, 48(%rcx,%rdx)	# tmp965, MEM <vector(2) long unsigned int> [(uint64_t *)borrow_array_152 + ivtmp.443_597 * 1]
	.loc 1 234 25 is_stmt 1 view .LVU2038
	.loc 1 234 19 view .LVU2039
	.loc 1 236 9 view .LVU2040
# sub_64_aligned.c:236:         result[i] = result[i] - borrow_array[i];
	.loc 1 236 31 is_stmt 0 view .LVU2041
	movdqu	64(%rbx,%rdx), %xmm0	# MEM <vector(2) long unsigned int> [(uint64_t *)result_133 + ivtmp.443_597 * 1], vect__173.321
	psubq	%xmm1, %xmm0	# tmp1878, vect__173.321
# sub_64_aligned.c:236:         result[i] = result[i] - borrow_array[i];
	.loc 1 236 19 view .LVU2042
	movups	%xmm0, 64(%rbx,%rdx)	# vect__173.321, MEM <vector(2) long unsigned int> [(uint64_t *)result_133 + ivtmp.443_597 * 1]
	.loc 1 237 9 is_stmt 1 view .LVU2043
	.loc 1 244 13 view .LVU2044
# sub_64_aligned.c:236:         result[i] = result[i] - borrow_array[i];
	.loc 1 236 31 is_stmt 0 view .LVU2045
	movdqu	80(%rcx,%rdx), %xmm5	# MEM <vector(2) long unsigned int> [(uint64_t *)borrow_array_152 + ivtmp.443_597 * 1], tmp1880
# sub_64_aligned.c:244:             borrow_array[i] = 0;
	.loc 1 244 29 view .LVU2046
	movups	%xmm10, 64(%rcx,%rdx)	# tmp965, MEM <vector(2) long unsigned int> [(uint64_t *)borrow_array_152 + ivtmp.443_597 * 1]
	.loc 1 234 25 is_stmt 1 view .LVU2047
	.loc 1 234 19 view .LVU2048
	.loc 1 236 9 view .LVU2049
# sub_64_aligned.c:236:         result[i] = result[i] - borrow_array[i];
	.loc 1 236 31 is_stmt 0 view .LVU2050
	movdqu	80(%rbx,%rdx), %xmm4	# MEM <vector(2) long unsigned int> [(uint64_t *)result_133 + ivtmp.443_597 * 1], vect__173.321
	psubq	%xmm5, %xmm4	# tmp1880, vect__173.321
# sub_64_aligned.c:236:         result[i] = result[i] - borrow_array[i];
	.loc 1 236 19 view .LVU2051
	movups	%xmm4, 80(%rbx,%rdx)	# vect__173.321, MEM <vector(2) long unsigned int> [(uint64_t *)result_133 + ivtmp.443_597 * 1]
	.loc 1 237 9 is_stmt 1 view .LVU2052
	.loc 1 244 13 view .LVU2053
# sub_64_aligned.c:236:         result[i] = result[i] - borrow_array[i];
	.loc 1 236 31 is_stmt 0 view .LVU2054
	movdqu	96(%rcx,%rdx), %xmm2	# MEM <vector(2) long unsigned int> [(uint64_t *)borrow_array_152 + ivtmp.443_597 * 1], tmp1882
# sub_64_aligned.c:244:             borrow_array[i] = 0;
	.loc 1 244 29 view .LVU2055
	movups	%xmm10, 80(%rcx,%rdx)	# tmp965, MEM <vector(2) long unsigned int> [(uint64_t *)borrow_array_152 + ivtmp.443_597 * 1]
	.loc 1 234 25 is_stmt 1 view .LVU2056
	.loc 1 234 19 view .LVU2057
	.loc 1 236 9 view .LVU2058
# sub_64_aligned.c:236:         result[i] = result[i] - borrow_array[i];
	.loc 1 236 31 is_stmt 0 view .LVU2059
	movdqu	96(%rbx,%rdx), %xmm8	# MEM <vector(2) long unsigned int> [(uint64_t *)result_133 + ivtmp.443_597 * 1], vect__173.321
	psubq	%xmm2, %xmm8	# tmp1882, vect__173.321
# sub_64_aligned.c:236:         result[i] = result[i] - borrow_array[i];
	.loc 1 236 19 view .LVU2060
	movups	%xmm8, 96(%rbx,%rdx)	# vect__173.321, MEM <vector(2) long unsigned int> [(uint64_t *)result_133 + ivtmp.443_597 * 1]
	.loc 1 237 9 is_stmt 1 view .LVU2061
	.loc 1 244 13 view .LVU2062
# sub_64_aligned.c:236:         result[i] = result[i] - borrow_array[i];
	.loc 1 236 31 is_stmt 0 view .LVU2063
	movdqu	112(%rcx,%rdx), %xmm3	# MEM <vector(2) long unsigned int> [(uint64_t *)borrow_array_152 + ivtmp.443_597 * 1], tmp1884
# sub_64_aligned.c:244:             borrow_array[i] = 0;
	.loc 1 244 29 view .LVU2064
	movups	%xmm10, 96(%rcx,%rdx)	# tmp965, MEM <vector(2) long unsigned int> [(uint64_t *)borrow_array_152 + ivtmp.443_597 * 1]
	.loc 1 234 25 is_stmt 1 view .LVU2065
	.loc 1 234 19 view .LVU2066
	.loc 1 236 9 view .LVU2067
# sub_64_aligned.c:236:         result[i] = result[i] - borrow_array[i];
	.loc 1 236 31 is_stmt 0 view .LVU2068
	movdqu	112(%rbx,%rdx), %xmm9	# MEM <vector(2) long unsigned int> [(uint64_t *)result_133 + ivtmp.443_597 * 1], vect__173.321
	psubq	%xmm3, %xmm9	# tmp1884, vect__173.321
# sub_64_aligned.c:236:         result[i] = result[i] - borrow_array[i];
	.loc 1 236 19 view .LVU2069
	movups	%xmm9, 112(%rbx,%rdx)	# vect__173.321, MEM <vector(2) long unsigned int> [(uint64_t *)result_133 + ivtmp.443_597 * 1]
	.loc 1 237 9 is_stmt 1 view .LVU2070
	.loc 1 244 13 view .LVU2071
# sub_64_aligned.c:244:             borrow_array[i] = 0;
	.loc 1 244 29 is_stmt 0 view .LVU2072
	movups	%xmm10, 112(%rcx,%rdx)	# tmp965, MEM <vector(2) long unsigned int> [(uint64_t *)borrow_array_152 + ivtmp.443_597 * 1]
	.loc 1 234 25 is_stmt 1 view .LVU2073
	.loc 1 234 19 view .LVU2074
	subq	$-128, %rdx	#, ivtmp.443
	cmpq	%rsi, %rdx	# _465, ivtmp.443
	jne	.L327	#,
.L740:
	.loc 1 234 19 is_stmt 0 view .LVU2075
	movl	%edi, %r10d	# niters.311, niters_vector_mult_vf.313
	andl	$-2, %r10d	#,
	andl	$1, %edi	#, niters.311
	je	.L329	#,
.LVL483:
	.loc 1 236 9 is_stmt 1 view .LVU2076
# sub_64_aligned.c:236:         result[i] = result[i] - borrow_array[i];
	.loc 1 236 27 is_stmt 0 view .LVU2077
	salq	$3, %r10	#, _101
.LVL484:
# sub_64_aligned.c:236:         result[i] = result[i] - borrow_array[i];
	.loc 1 236 45 view .LVU2078
	addq	%r10, %rcx	# _101, _90
# sub_64_aligned.c:236:         result[i] = result[i] - borrow_array[i];
	.loc 1 236 31 view .LVU2079
	movq	(%rcx), %r13	# *_90, *_90
	subq	%r13, (%rbx,%r10)	# *_90, *_99
	.loc 1 237 9 is_stmt 1 view .LVU2080
	.loc 1 244 13 view .LVU2081
# sub_64_aligned.c:244:             borrow_array[i] = 0;
	.loc 1 244 29 is_stmt 0 view .LVU2082
	movq	$0, (%rcx)	#,* _90
	.loc 1 234 25 is_stmt 1 view .LVU2083
.LVL485:
	.loc 1 234 19 view .LVU2084
.L329:
	.loc 1 270 22 view .LVU2085
# sub_64_aligned.c:270:     while (result[i] <= 0)
	.loc 1 270 18 is_stmt 0 view .LVU2086
	movq	(%rbx), %rax	# *result_133, iftmp.51_182
	leaq	8(%rbx), %r10	#, ivtmp.429
# sub_64_aligned.c:269:     i = 0;
	.loc 1 269 7 view .LVU2087
	xorl	%edx, %edx	# i
# sub_64_aligned.c:270:     while (result[i] <= 0)
	.loc 1 270 22 view .LVU2088
	testq	%rax, %rax	# iftmp.51_182
	jne	.L788	#,
.LVL486:
.L332:
	.loc 1 272 9 is_stmt 1 view .LVU2089
# sub_64_aligned.c:270:     while (result[i] <= 0)
	.loc 1 270 18 is_stmt 0 view .LVU2090
	movq	(%r10), %rax	# MEM[(uint64_t *)_779 + -8B], iftmp.51_182
# sub_64_aligned.c:272:         i++;
	.loc 1 272 10 view .LVU2091
	leal	1(%rdx), %ebx	#, tmp1061
.LVL487:
# sub_64_aligned.c:270:     while (result[i] <= 0)
	.loc 1 270 22 view .LVU2092
	leaq	8(%r10), %r13	#, tmp1062
# sub_64_aligned.c:270:     while (result[i] <= 0)
	.loc 1 270 18 view .LVU2093
	movq	%r10, %rdi	# ivtmp.429, _145
# sub_64_aligned.c:272:         i++;
	.loc 1 272 10 view .LVU2094
	movl	%ebx, %edx	# tmp1061, i
	.loc 1 270 22 is_stmt 1 view .LVU2095
	testq	%rax, %rax	# iftmp.51_182
	jne	.L760	#,
	.loc 1 272 9 view .LVU2096
.LVL488:
# sub_64_aligned.c:270:     while (result[i] <= 0)
	.loc 1 270 18 is_stmt 0 view .LVU2097
	movq	8(%r10), %rax	# MEM[(uint64_t *)_779 + -8B], iftmp.51_182
# sub_64_aligned.c:272:         i++;
	.loc 1 272 10 view .LVU2098
	addl	$1, %edx	#, i
.LVL489:
	.loc 1 270 22 is_stmt 1 view .LVU2099
# sub_64_aligned.c:270:     while (result[i] <= 0)
	.loc 1 270 18 is_stmt 0 view .LVU2100
	movq	%r13, %rdi	# tmp1062, _145
# sub_64_aligned.c:270:     while (result[i] <= 0)
	.loc 1 270 22 view .LVU2101
	leaq	16(%r10), %r12	#, ivtmp.429
	testq	%rax, %rax	# iftmp.51_182
	jne	.L760	#,
	.loc 1 272 9 is_stmt 1 view .LVU2102
.LVL490:
# sub_64_aligned.c:270:     while (result[i] <= 0)
	.loc 1 270 18 is_stmt 0 view .LVU2103
	movq	16(%r10), %rax	# MEM[(uint64_t *)_779 + -8B], iftmp.51_182
# sub_64_aligned.c:272:         i++;
	.loc 1 272 10 view .LVU2104
	leal	2(%rbx), %edx	#, i
.LVL491:
	.loc 1 270 22 is_stmt 1 view .LVU2105
# sub_64_aligned.c:270:     while (result[i] <= 0)
	.loc 1 270 18 is_stmt 0 view .LVU2106
	movq	%r12, %rdi	# ivtmp.429, _145
# sub_64_aligned.c:270:     while (result[i] <= 0)
	.loc 1 270 22 view .LVU2107
	leaq	24(%r10), %r11	#, ivtmp.429
	testq	%rax, %rax	# iftmp.51_182
	jne	.L760	#,
	.loc 1 272 9 is_stmt 1 view .LVU2108
.LVL492:
# sub_64_aligned.c:270:     while (result[i] <= 0)
	.loc 1 270 18 is_stmt 0 view .LVU2109
	movq	24(%r10), %rax	# MEM[(uint64_t *)_779 + -8B], iftmp.51_182
# sub_64_aligned.c:272:         i++;
	.loc 1 272 10 view .LVU2110
	leal	3(%rbx), %edx	#, i
.LVL493:
	.loc 1 270 22 is_stmt 1 view .LVU2111
# sub_64_aligned.c:270:     while (result[i] <= 0)
	.loc 1 270 18 is_stmt 0 view .LVU2112
	movq	%r11, %rdi	# ivtmp.429, _145
# sub_64_aligned.c:270:     while (result[i] <= 0)
	.loc 1 270 22 view .LVU2113
	leaq	32(%r10), %r8	#, ivtmp.429
	testq	%rax, %rax	# iftmp.51_182
	jne	.L760	#,
	.loc 1 272 9 is_stmt 1 view .LVU2114
.LVL494:
# sub_64_aligned.c:270:     while (result[i] <= 0)
	.loc 1 270 18 is_stmt 0 view .LVU2115
	movq	32(%r10), %rax	# MEM[(uint64_t *)_779 + -8B], iftmp.51_182
# sub_64_aligned.c:272:         i++;
	.loc 1 272 10 view .LVU2116
	leal	4(%rbx), %edx	#, i
.LVL495:
	.loc 1 270 22 is_stmt 1 view .LVU2117
# sub_64_aligned.c:270:     while (result[i] <= 0)
	.loc 1 270 18 is_stmt 0 view .LVU2118
	movq	%r8, %rdi	# ivtmp.429, _145
# sub_64_aligned.c:270:     while (result[i] <= 0)
	.loc 1 270 22 view .LVU2119
	leaq	40(%r10), %rsi	#, ivtmp.429
	testq	%rax, %rax	# iftmp.51_182
	jne	.L760	#,
	.loc 1 272 9 is_stmt 1 view .LVU2120
.LVL496:
# sub_64_aligned.c:270:     while (result[i] <= 0)
	.loc 1 270 18 is_stmt 0 view .LVU2121
	movq	40(%r10), %rax	# MEM[(uint64_t *)_779 + -8B], iftmp.51_182
# sub_64_aligned.c:272:         i++;
	.loc 1 272 10 view .LVU2122
	leal	5(%rbx), %edx	#, i
.LVL497:
	.loc 1 270 22 is_stmt 1 view .LVU2123
# sub_64_aligned.c:270:     while (result[i] <= 0)
	.loc 1 270 18 is_stmt 0 view .LVU2124
	movq	%rsi, %rdi	# ivtmp.429, _145
# sub_64_aligned.c:270:     while (result[i] <= 0)
	.loc 1 270 22 view .LVU2125
	leaq	48(%r10), %rcx	#, ivtmp.429
	testq	%rax, %rax	# iftmp.51_182
	jne	.L760	#,
	.loc 1 272 9 is_stmt 1 view .LVU2126
.LVL498:
# sub_64_aligned.c:270:     while (result[i] <= 0)
	.loc 1 270 18 is_stmt 0 view .LVU2127
	movq	48(%r10), %rax	# MEM[(uint64_t *)_779 + -8B], iftmp.51_182
# sub_64_aligned.c:272:         i++;
	.loc 1 272 10 view .LVU2128
	leal	6(%rbx), %edx	#, i
.LVL499:
	.loc 1 270 22 is_stmt 1 view .LVU2129
# sub_64_aligned.c:270:     while (result[i] <= 0)
	.loc 1 270 18 is_stmt 0 view .LVU2130
	movq	%rcx, %rdi	# ivtmp.429, _145
# sub_64_aligned.c:270:     while (result[i] <= 0)
	.loc 1 270 22 view .LVU2131
	leaq	56(%r10), %r9	#, ivtmp.429
	testq	%rax, %rax	# iftmp.51_182
	jne	.L760	#,
	.loc 1 272 9 is_stmt 1 view .LVU2132
.LVL500:
# sub_64_aligned.c:270:     while (result[i] <= 0)
	.loc 1 270 18 is_stmt 0 view .LVU2133
	movq	56(%r10), %rax	# MEM[(uint64_t *)_779 + -8B], iftmp.51_182
# sub_64_aligned.c:270:     while (result[i] <= 0)
	.loc 1 270 22 view .LVU2134
	addq	$64, %r10	#, ivtmp.429
# sub_64_aligned.c:272:         i++;
	.loc 1 272 10 view .LVU2135
	leal	7(%rbx), %edx	#, i
.LVL501:
	.loc 1 270 22 is_stmt 1 view .LVU2136
# sub_64_aligned.c:270:     while (result[i] <= 0)
	.loc 1 270 18 is_stmt 0 view .LVU2137
	movq	%r9, %rdi	# ivtmp.429, _145
# sub_64_aligned.c:270:     while (result[i] <= 0)
	.loc 1 270 22 view .LVU2138
	testq	%rax, %rax	# iftmp.51_182
	je	.L332	#,
	.p2align 4,,10
	.p2align 3
.L760:
	.loc 1 270 22 view .LVU2139
	movq	%rdi, -1400(%rbp)	# _145, %sfp
# sub_64_aligned.c:278:     *result_size = *result_size - i;
	.loc 1 278 33 view .LVU2140
	subl	%edx, %r14d	# i, prephitmp_382
.LVL502:
.L325:
	.loc 1 275 5 is_stmt 1 view .LVU2141
# sub_64_aligned.c:275:     result[i] = (is_less) ? -result[i] : result[i];
	.loc 1 275 40 is_stmt 0 view .LVU2142
	movq	%rax, %r10	# iftmp.51_182, tmp1050
# sub_64_aligned.c:275:     result[i] = (is_less) ? -result[i] : result[i];
	.loc 1 275 15 view .LVU2143
	movq	-1400(%rbp), %rbx	# %sfp, _145
# sub_64_aligned.c:278:     *result_size = *result_size - i;
	.loc 1 278 18 view .LVU2144
	movl	%r14d, -1332(%rbp)	# prephitmp_382, sub_size_test1
# sub_64_aligned.c:275:     result[i] = (is_less) ? -result[i] : result[i];
	.loc 1 275 40 view .LVU2145
	negq	%r10	# tmp1050
	cmpb	$0, -1433(%rbp)	#, %sfp
	cmovne	%r10, %rax	# tmp1050,, iftmp.51_182
# sub_64_aligned.c:275:     result[i] = (is_less) ? -result[i] : result[i];
	.loc 1 275 15 view .LVU2146
	movq	%rax, (%rbx)	# iftmp.51_182, *_145
	.loc 1 277 5 is_stmt 1 view .LVU2147
.LVL503:
	.loc 1 278 5 view .LVU2148
	.loc 1 278 5 is_stmt 0 view .LVU2149
.LBE662:
.LBE670:
	.loc 1 963 9 is_stmt 1 view .LVU2150
.LBB671:
.LBI671:
	.loc 1 100 27 view .LVU2151
.LBB672:
	.loc 1 102 5 view .LVU2152
	.loc 1 103 5 view .LVU2153
	.loc 1 104 5 view .LVU2154
#APP
# 104 "sub_64_aligned.c" 1
	RDTSCP
	mov %edx, %r14d	# cycles_high
	mov %eax, %r13d	# cycles_low
	CPUID
	
# 0 "" 2
.LVL504:
	.loc 1 109 5 view .LVU2155
# sub_64_aligned.c:109:     ticks = (((unsigned long long)cycles_high << 32) | cycles_low);
	.loc 1 109 47 is_stmt 0 view .LVU2156
#NO_APP
	movq	%r14, %rbx	# cycles_high, tmp972
# sub_64_aligned.c:109:     ticks = (((unsigned long long)cycles_high << 32) | cycles_low);
	.loc 1 109 54 view .LVU2157
	movl	%r13d, %r12d	# cycles_low, cycles_low
# sub_64_aligned.c:109:     ticks = (((unsigned long long)cycles_high << 32) | cycles_low);
	.loc 1 109 11 view .LVU2158
	leaq	fd(%rip), %r14	#, ivtmp.424
.LVL505:
# sub_64_aligned.c:109:     ticks = (((unsigned long long)cycles_high << 32) | cycles_low);
	.loc 1 109 47 view .LVU2159
	salq	$32, %rbx	#, tmp972
# sub_64_aligned.c:109:     ticks = (((unsigned long long)cycles_high << 32) | cycles_low);
	.loc 1 109 11 view .LVU2160
	orq	%r12, %rbx	# cycles_low, ticks
.LVL506:
	.loc 1 110 5 is_stmt 1 view .LVU2161
	.loc 1 110 5 is_stmt 0 view .LVU2162
.LBE672:
.LBE671:
	.loc 1 969 9 is_stmt 1 view .LVU2163
.LBB673:
.LBI673:
	.loc 1 653 6 view .LVU2164
.LBB674:
	.loc 1 655 23 view .LVU2165
	.p2align 4,,10
	.p2align 3
.L335:
	.loc 1 657 9 view .LVU2166
# sub_64_aligned.c:657:         if (ioctl(fd[j], PERF_EVENT_IOC_DISABLE, 0) == -1)
	.loc 1 657 13 is_stmt 0 view .LVU2167
	movl	(%r14), %edi	# MEM[(int *)_255],
	xorl	%edx, %edx	#
	xorl	%eax, %eax	#
	movl	$9217, %esi	#,
	call	ioctl@PLT	#
.LVL507:
# sub_64_aligned.c:657:         if (ioctl(fd[j], PERF_EVENT_IOC_DISABLE, 0) == -1)
	.loc 1 657 12 view .LVU2168
	cmpl	$-1, %eax	#, tmp1533
	je	.L339	#,
	.loc 1 655 38 is_stmt 1 view .LVU2169
.LVL508:
	.loc 1 655 23 view .LVU2170
	addq	$4, %r14	#, ivtmp.424
.LVL509:
	.loc 1 655 23 is_stmt 0 view .LVU2171
	leaq	24+fd(%rip), %r11	#, tmp1890
	cmpq	%r11, %r14	# tmp1890, ivtmp.424
	jne	.L335	#,
.LVL510:
	.loc 1 655 23 view .LVU2172
.LBE674:
.LBE673:
	.loc 1 972 9 is_stmt 1 view .LVU2173
	leaq	-1136(%rbp), %rdi	#, tmp1044
	movq	%rdi, -1392(%rbp)	# tmp1044, %sfp
	call	read_perf	#
.LVL511:
	.loc 1 974 9 view .LVU2174
# sub_64_aligned.c:974:         if (end_rdtsc < start_rdtsc)
	.loc 1 974 12 is_stmt 0 view .LVU2175
	cmpq	-1384(%rbp), %rbx	# %sfp, ticks
	jb	.L341	#,
	movq	-1392(%rbp), %r8	# %sfp, tmp1044
	movq	-1408(%rbp), %r14	# %sfp, file
	movq	%rbx, -1456(%rbp)	# ticks, %sfp
	leaq	.LC16(%rip), %r13	#, tmp1039
	movq	-1448(%rbp), %r12	# %sfp, _252
	movq	%r8, -1464(%rbp)	# ivtmp.396, %sfp
	movq	%r8, %rbx	# ivtmp.417, ivtmp.417
.LVL512:
	.p2align 4,,10
	.p2align 3
.L337:
.LBB677:
.LBB678:
	.loc 1 637 9 is_stmt 1 view .LVU2176
.LBB679:
.LBI679:
	.loc 6 103 1 view .LVU2177
.LBB680:
	.loc 6 105 3 view .LVU2178
# /usr/include/x86_64-linux-gnu/bits/stdio2.h:105:   return __fprintf_chk (__stream, __USE_FORTIFY_LEVEL - 1, __fmt,
	.loc 6 105 10 is_stmt 0 view .LVU2179
	movq	(%rbx), %rcx	# MEM[(long long int *)_578],
	movq	%r13, %rdx	# tmp1039,
	movl	$1, %esi	#,
	movq	%r14, %rdi	# file,
	xorl	%eax, %eax	#
.LBE680:
.LBE679:
# sub_64_aligned.c:635:     for (int j = 0; j < MAX_EVENTS; j++)
	.loc 1 635 23 view .LVU2180
	addq	$8, %rbx	#, ivtmp.417
.LVL513:
.LBB682:
.LBB681:
# /usr/include/x86_64-linux-gnu/bits/stdio2.h:105:   return __fprintf_chk (__stream, __USE_FORTIFY_LEVEL - 1, __fmt,
	.loc 6 105 10 view .LVU2181
	call	__fprintf_chk@PLT	#
.LVL514:
	.loc 6 105 10 view .LVU2182
.LBE681:
.LBE682:
	.loc 1 635 38 is_stmt 1 view .LVU2183
	.loc 1 635 23 view .LVU2184
	cmpq	%rbx, %r12	# ivtmp.417, _252
	jne	.L337	#,
.LBE678:
.LBB683:
.LBB684:
# /usr/include/x86_64-linux-gnu/bits/stdio2.h:105:   return __fprintf_chk (__stream, __USE_FORTIFY_LEVEL - 1, __fmt,
	.loc 6 105 10 is_stmt 0 view .LVU2185
	movq	-1408(%rbp), %rsi	# %sfp,
.LBE684:
.LBE683:
.LBE677:
# sub_64_aligned.c:987:         mpz_init(a1_test1_gmp);
	.loc 1 987 9 view .LVU2186
	leaq	-1216(%rbp), %r14	#, tmp1040
.LBB689:
.LBB687:
.LBB685:
# /usr/include/x86_64-linux-gnu/bits/stdio2.h:105:   return __fprintf_chk (__stream, __USE_FORTIFY_LEVEL - 1, __fmt,
	.loc 6 105 10 view .LVU2187
	movl	$10, %edi	#,
	movq	-1456(%rbp), %rbx	# %sfp, ticks
	movq	-1464(%rbp), %r12	# %sfp, ivtmp.396
.LBE685:
.LBE687:
	.loc 1 639 5 is_stmt 1 view .LVU2188
.LVL515:
.LBB688:
.LBI683:
	.loc 6 103 1 view .LVU2189
.LBB686:
	.loc 6 105 3 view .LVU2190
# /usr/include/x86_64-linux-gnu/bits/stdio2.h:105:   return __fprintf_chk (__stream, __USE_FORTIFY_LEVEL - 1, __fmt,
	.loc 6 105 10 is_stmt 0 view .LVU2191
	call	fputc@PLT	#
.LVL516:
	.loc 6 105 10 view .LVU2192
.LBE686:
.LBE688:
.LBE689:
	.loc 1 983 9 is_stmt 1 view .LVU2193
	.loc 1 986 9 view .LVU2194
	.loc 1 987 9 view .LVU2195
# sub_64_aligned.c:983:         test1_rdtsc += (end_rdtsc - start_rdtsc);
	.loc 1 983 35 is_stmt 0 view .LVU2196
	subq	-1384(%rbp), %rbx	# %sfp, tmp978
# sub_64_aligned.c:987:         mpz_init(a1_test1_gmp);
	.loc 1 987 9 view .LVU2197
	movq	%r14, %rdi	# tmp1040,
# sub_64_aligned.c:983:         test1_rdtsc += (end_rdtsc - start_rdtsc);
	.loc 1 983 21 view .LVU2198
	addq	%rbx, -1472(%rbp)	# tmp978, %sfp
.LVL517:
# sub_64_aligned.c:987:         mpz_init(a1_test1_gmp);
	.loc 1 987 9 view .LVU2199
	call	__gmpz_init@PLT	#
.LVL518:
	.loc 1 988 9 is_stmt 1 view .LVU2200
	leaq	-1200(%rbp), %rbx	#, tmp1041
	movq	%rbx, %rdi	# tmp1041,
	movq	%rbx, -1456(%rbp)	# tmp1041, %sfp
.LVL519:
	.loc 1 988 9 is_stmt 0 view .LVU2201
	call	__gmpz_init@PLT	#
.LVL520:
	.loc 1 989 9 is_stmt 1 view .LVU2202
	leaq	-1184(%rbp), %rdi	#, tmp1042
	movq	%rdi, -1384(%rbp)	# tmp1042, %sfp
.LVL521:
	.loc 1 989 9 is_stmt 0 view .LVU2203
	call	__gmpz_init@PLT	#
.LVL522:
	.loc 1 990 9 is_stmt 1 view .LVU2204
	movq	-1368(%rbp), %rsi	# %sfp,
	movq	%r14, %rdi	# tmp1040,
	movl	$10, %edx	#,
	call	__gmpz_set_str@PLT	#
.LVL523:
	.loc 1 991 9 view .LVU2205
	movq	-1352(%rbp), %rsi	# %sfp,
	movl	$10, %edx	#,
	movq	%rbx, %rdi	# tmp1041,
	call	__gmpz_set_str@PLT	#
.LVL524:
	.loc 1 994 9 view .LVU2206
.LBB690:
.LBI690:
	.loc 1 72 13 view .LVU2207
.LBB691:
	.loc 1 74 5 view .LVU2208
	.loc 1 75 5 view .LVU2209
#APP
# 75 "sub_64_aligned.c" 1
	CPUID
	RDTSC
	mov %edx, %esi	# cycles_high
	mov %eax, %edi	# cycles_low
	
# 0 "" 2
.LVL525:
	.loc 1 79 5 view .LVU2210
# 79 "sub_64_aligned.c" 1
	RDTSCP
	mov %edx, %esi	# cycles_high1
	mov %eax, %edi	# cycles_low1
	CPUID
	
# 0 "" 2
	.loc 1 79 5 is_stmt 0 view .LVU2211
#NO_APP
.LBE691:
.LBE690:
	.loc 1 1004 9 is_stmt 1 view .LVU2212
.LBB693:
.LBI693:
	.loc 1 644 6 view .LVU2213
.LVL526:
.LBB694:
	.loc 1 646 23 view .LVU2214
.LBE694:
.LBE693:
.LBB696:
.LBB692:
# sub_64_aligned.c:79:     asm volatile("RDTSCP\n\t"
	.loc 1 79 5 is_stmt 0 view .LVU2215
	leaq	fd(%rip), %rbx	#, ivtmp.410
.LVL527:
	.p2align 4,,10
	.p2align 3
.L338:
	.loc 1 79 5 view .LVU2216
.LBE692:
.LBE696:
.LBB697:
.LBB695:
	.loc 1 648 9 is_stmt 1 view .LVU2217
	movl	(%rbx), %edi	# MEM[(int *)_551],
	xorl	%edx, %edx	#
	movl	$9219, %esi	#,
	xorl	%eax, %eax	#
# sub_64_aligned.c:646:     for (int j = 0; j < MAX_EVENTS; j++)
	.loc 1 646 23 is_stmt 0 view .LVU2218
	addq	$4, %rbx	#, ivtmp.410
.LVL528:
# sub_64_aligned.c:648:         ioctl(fd[j], PERF_EVENT_IOC_RESET, 0);
	.loc 1 648 9 view .LVU2219
	call	ioctl@PLT	#
.LVL529:
	.loc 1 649 9 is_stmt 1 view .LVU2220
	movl	-4(%rbx), %edi	# MEM[(int *)_551],
	xorl	%edx, %edx	#
	movl	$9216, %esi	#,
	xorl	%eax, %eax	#
	call	ioctl@PLT	#
.LVL530:
	.loc 1 646 38 view .LVU2221
	.loc 1 646 23 view .LVU2222
	leaq	24+fd(%rip), %rcx	#, tmp1896
	cmpq	%rbx, %rcx	# ivtmp.410, tmp1896
	jne	.L338	#,
.LBE695:
.LBE697:
	.loc 1 1007 9 view .LVU2223
.LBB698:
.LBI698:
	.loc 1 87 27 view .LVU2224
.LBB699:
	.loc 1 89 5 view .LVU2225
	.loc 1 90 5 view .LVU2226
	.loc 1 91 5 view .LVU2227
#APP
# 91 "sub_64_aligned.c" 1
	CPUID
	RDTSC
	mov %edx, %r9d	# cycles_high
	mov %eax, %r10d	# cycles_low
	
# 0 "" 2
.LVL531:
	.loc 1 95 5 view .LVU2228
# sub_64_aligned.c:95:     ticks = (((unsigned long long)cycles_high << 32) | cycles_low);
	.loc 1 95 54 is_stmt 0 view .LVU2229
#NO_APP
	movl	%r10d, %edx	# cycles_low, cycles_low
# sub_64_aligned.c:95:     ticks = (((unsigned long long)cycles_high << 32) | cycles_low);
	.loc 1 95 47 view .LVU2230
	salq	$32, %r9	#, tmp991
.LVL532:
	.loc 1 95 47 view .LVU2231
.LBE699:
.LBE698:
# sub_64_aligned.c:1010:         mpz_sub(sub_gmp_test1, a1_test1_gmp, b1_test1_gmp);
	.loc 1 1010 9 view .LVU2232
	movq	-1384(%rbp), %rdi	# %sfp,
	movq	%r14, %rsi	# tmp1040,
.LBB702:
.LBB700:
# sub_64_aligned.c:95:     ticks = (((unsigned long long)cycles_high << 32) | cycles_low);
	.loc 1 95 11 view .LVU2233
	orq	%rdx, %r9	# cycles_low, tmp991
.LBE700:
.LBE702:
# sub_64_aligned.c:1010:         mpz_sub(sub_gmp_test1, a1_test1_gmp, b1_test1_gmp);
	.loc 1 1010 9 view .LVU2234
	movq	-1456(%rbp), %rdx	# %sfp,
.LBB703:
.LBB701:
# sub_64_aligned.c:95:     ticks = (((unsigned long long)cycles_high << 32) | cycles_low);
	.loc 1 95 11 view .LVU2235
	movq	%r9, -1352(%rbp)	# tmp991, %sfp
.LVL533:
	.loc 1 96 5 is_stmt 1 view .LVU2236
	.loc 1 96 5 is_stmt 0 view .LVU2237
.LBE701:
.LBE703:
	.loc 1 1010 9 is_stmt 1 view .LVU2238
	call	__gmpz_sub@PLT	#
.LVL534:
	.loc 1 1012 9 view .LVU2239
.LBB704:
.LBI704:
	.loc 1 100 27 view .LVU2240
.LBB705:
	.loc 1 102 5 view .LVU2241
	.loc 1 103 5 view .LVU2242
	.loc 1 104 5 view .LVU2243
#APP
# 104 "sub_64_aligned.c" 1
	RDTSCP
	mov %edx, %r11d	# cycles_high
	mov %eax, %r8d	# cycles_low
	CPUID
	
# 0 "" 2
.LVL535:
	.loc 1 109 5 view .LVU2244
# sub_64_aligned.c:109:     ticks = (((unsigned long long)cycles_high << 32) | cycles_low);
	.loc 1 109 47 is_stmt 0 view .LVU2245
#NO_APP
	movq	%r11, %rbx	# cycles_high, tmp999
# sub_64_aligned.c:109:     ticks = (((unsigned long long)cycles_high << 32) | cycles_low);
	.loc 1 109 54 view .LVU2246
	movl	%r8d, %eax	# cycles_low, cycles_low
# sub_64_aligned.c:109:     ticks = (((unsigned long long)cycles_high << 32) | cycles_low);
	.loc 1 109 47 view .LVU2247
	salq	$32, %rbx	#, tmp999
# sub_64_aligned.c:109:     ticks = (((unsigned long long)cycles_high << 32) | cycles_low);
	.loc 1 109 11 view .LVU2248
	orq	%rax, %rbx	# cycles_low, ticks
.LVL536:
	.loc 1 110 5 is_stmt 1 view .LVU2249
	.loc 1 110 5 is_stmt 0 view .LVU2250
.LBE705:
.LBE704:
	.loc 1 1017 9 is_stmt 1 view .LVU2251
.LBB706:
.LBI706:
	.loc 1 653 6 view .LVU2252
.LBB707:
	.loc 1 655 23 view .LVU2253
	.p2align 4,,10
	.p2align 3
.L340:
	.loc 1 657 9 view .LVU2254
# sub_64_aligned.c:657:         if (ioctl(fd[j], PERF_EVENT_IOC_DISABLE, 0) == -1)
	.loc 1 657 13 is_stmt 0 view .LVU2255
	movl	(%r15), %edi	# MEM[(int *)_935],
	xorl	%edx, %edx	#
	xorl	%eax, %eax	#
	movl	$9217, %esi	#,
	call	ioctl@PLT	#
.LVL537:
# sub_64_aligned.c:657:         if (ioctl(fd[j], PERF_EVENT_IOC_DISABLE, 0) == -1)
	.loc 1 657 12 view .LVU2256
	cmpl	$-1, %eax	#, tmp1534
	je	.L339	#,
	.loc 1 655 38 is_stmt 1 view .LVU2257
.LVL538:
	.loc 1 655 23 view .LVU2258
	addq	$4, %r15	#, ivtmp.403
.LVL539:
	.loc 1 655 23 is_stmt 0 view .LVU2259
	leaq	24+fd(%rip), %rsi	#, tmp1899
	cmpq	%r15, %rsi	# ivtmp.403, tmp1899
	jne	.L340	#,
.LVL540:
	.loc 1 655 23 view .LVU2260
.LBE707:
.LBE706:
	.loc 1 1020 9 is_stmt 1 view .LVU2261
	movq	-1392(%rbp), %rdi	# %sfp,
	call	read_perf	#
.LVL541:
	.loc 1 1022 9 view .LVU2262
# sub_64_aligned.c:1022:         if (end_rdtsc_gmp < start_rdtsc_gmp)
	.loc 1 1022 12 is_stmt 0 view .LVU2263
	cmpq	-1352(%rbp), %rbx	# %sfp, ticks
	jb	.L341	#,
	movq	-1432(%rbp), %r14	# %sfp, file
	movq	-1448(%rbp), %r15	# %sfp, _252
	.p2align 4,,10
	.p2align 3
.L342:
.LVL542:
.LBB708:
.LBB709:
	.loc 1 637 9 is_stmt 1 view .LVU2264
.LBB710:
.LBI710:
	.loc 6 103 1 view .LVU2265
.LBB711:
	.loc 6 105 3 view .LVU2266
# /usr/include/x86_64-linux-gnu/bits/stdio2.h:105:   return __fprintf_chk (__stream, __USE_FORTIFY_LEVEL - 1, __fmt,
	.loc 6 105 10 is_stmt 0 view .LVU2267
	movq	(%r12), %rcx	# MEM[(long long int *)_863],
	movq	%r13, %rdx	# tmp1039,
	movl	$1, %esi	#,
	movq	%r14, %rdi	# file,
	xorl	%eax, %eax	#
.LBE711:
.LBE710:
# sub_64_aligned.c:635:     for (int j = 0; j < MAX_EVENTS; j++)
	.loc 1 635 23 view .LVU2268
	addq	$8, %r12	#, ivtmp.396
.LVL543:
.LBB713:
.LBB712:
# /usr/include/x86_64-linux-gnu/bits/stdio2.h:105:   return __fprintf_chk (__stream, __USE_FORTIFY_LEVEL - 1, __fmt,
	.loc 6 105 10 view .LVU2269
	call	__fprintf_chk@PLT	#
.LVL544:
	.loc 6 105 10 view .LVU2270
.LBE712:
.LBE713:
	.loc 1 635 38 is_stmt 1 view .LVU2271
	.loc 1 635 23 view .LVU2272
	cmpq	%r12, %r15	# ivtmp.396, _252
	jne	.L342	#,
.LBE709:
	.loc 1 639 5 view .LVU2273
.LVL545:
.LBB714:
.LBI714:
	.loc 6 103 1 view .LVU2274
.LBB715:
	.loc 6 105 3 view .LVU2275
# /usr/include/x86_64-linux-gnu/bits/stdio2.h:105:   return __fprintf_chk (__stream, __USE_FORTIFY_LEVEL - 1, __fmt,
	.loc 6 105 10 is_stmt 0 view .LVU2276
	movq	-1432(%rbp), %rsi	# %sfp,
	movl	$10, %edi	#,
	call	fputc@PLT	#
.LVL546:
	.loc 6 105 10 view .LVU2277
.LBE715:
.LBE714:
.LBE708:
	.loc 1 1031 9 is_stmt 1 view .LVU2278
	.loc 1 1034 9 view .LVU2279
# sub_64_aligned.c:1034:         char *sub_str_test1 = formatResult(sub_test1, &sub_size_test1);
	.loc 1 1034 31 is_stmt 0 view .LVU2280
	movq	-1400(%rbp), %rdi	# %sfp,
	leaq	-1332(%rbp), %rsi	#, tmp1004
# sub_64_aligned.c:1031:         test1_rdtsc_gmp += (end_rdtsc_gmp - start_rdtsc_gmp);
	.loc 1 1031 43 view .LVU2281
	subq	-1352(%rbp), %rbx	# %sfp, tmp1003
.LVL547:
# sub_64_aligned.c:1031:         test1_rdtsc_gmp += (end_rdtsc_gmp - start_rdtsc_gmp);
	.loc 1 1031 25 view .LVU2282
	addq	%rbx, -1480(%rbp)	# tmp1003, %sfp
.LVL548:
# sub_64_aligned.c:1034:         char *sub_str_test1 = formatResult(sub_test1, &sub_size_test1);
	.loc 1 1034 31 view .LVU2283
	call	formatResult	#
.LVL549:
# sub_64_aligned.c:1037:         char *sub_gmp_str_test1 = mpz_get_str(NULL, 10, sub_gmp_test1);
	.loc 1 1037 35 view .LVU2284
	movq	-1384(%rbp), %rdx	# %sfp,
	xorl	%edi, %edi	#
	movl	$10, %esi	#,
# sub_64_aligned.c:1034:         char *sub_str_test1 = formatResult(sub_test1, &sub_size_test1);
	.loc 1 1034 31 view .LVU2285
	movq	%rax, %r12	# tmp1535, sub_str_test1
.LVL550:
	.loc 1 1037 9 is_stmt 1 view .LVU2286
# sub_64_aligned.c:1037:         char *sub_gmp_str_test1 = mpz_get_str(NULL, 10, sub_gmp_test1);
	.loc 1 1037 35 is_stmt 0 view .LVU2287
	call	__gmpz_get_str@PLT	#
.LVL551:
.LBB716:
.LBB717:
# sub_64_aligned.c:718:     if (strlen(result) != strlen(result_gmp))
	.loc 1 718 9 view .LVU2288
	movq	%r12, %rdi	# sub_str_test1,
.LBE717:
.LBE716:
# sub_64_aligned.c:1040:         if (!check_result(sub_str_test1, sub_gmp_str_test1, sub_size_test1))
	.loc 1 1040 14 view .LVU2289
	movl	-1332(%rbp), %r14d	# sub_size_test1, sub_size_test1.41_36
# sub_64_aligned.c:1037:         char *sub_gmp_str_test1 = mpz_get_str(NULL, 10, sub_gmp_test1);
	.loc 1 1037 35 view .LVU2290
	movq	%rax, %r13	# tmp1536, sub_gmp_str_test1
.LVL552:
	.loc 1 1040 9 is_stmt 1 view .LVU2291
.LBB720:
.LBI716:
	.loc 1 715 6 view .LVU2292
.LBB719:
	.loc 1 718 5 view .LVU2293
# sub_64_aligned.c:718:     if (strlen(result) != strlen(result_gmp))
	.loc 1 718 9 is_stmt 0 view .LVU2294
	call	strlen@PLT	#
.LVL553:
# sub_64_aligned.c:718:     if (strlen(result) != strlen(result_gmp))
	.loc 1 718 27 view .LVU2295
	movq	%r13, %rdi	# sub_gmp_str_test1,
# sub_64_aligned.c:718:     if (strlen(result) != strlen(result_gmp))
	.loc 1 718 9 view .LVU2296
	movq	%rax, %rbx	# tmp1537, tmp1007
# sub_64_aligned.c:718:     if (strlen(result) != strlen(result_gmp))
	.loc 1 718 27 view .LVU2297
	call	strlen@PLT	#
.LVL554:
# sub_64_aligned.c:718:     if (strlen(result) != strlen(result_gmp))
	.loc 1 718 8 view .LVU2298
	cmpq	%rax, %rbx	# tmp1538, tmp1007
	jne	.L343	#,
.LVL555:
.LBB718:
	.loc 1 725 23 is_stmt 1 view .LVU2299
	testl	%r14d, %r14d	# sub_size_test1.41_36
	jle	.L344	#,
	movslq	%r14d, %rdi	# sub_size_test1.41_36, _815
	xorl	%r9d, %r9d	# ivtmp.385
	andl	$7, %r14d	#, tmp1059
.LVL556:
	.loc 1 725 23 is_stmt 0 view .LVU2300
	je	.L345	#,
	cmpq	$1, %r14	#, tmp1059
	je	.L625	#,
	cmpq	$2, %r14	#, tmp1059
	je	.L626	#,
	cmpq	$3, %r14	#, tmp1059
	je	.L627	#,
	cmpq	$4, %r14	#, tmp1059
	je	.L628	#,
	cmpq	$5, %r14	#, tmp1059
	je	.L629	#,
	cmpq	$6, %r14	#, tmp1059
	je	.L630	#,
	.loc 1 727 9 is_stmt 1 view .LVU2301
# sub_64_aligned.c:727:         if (result[i] != result_gmp[i])
	.loc 1 727 12 is_stmt 0 view .LVU2302
	movzbl	0(%r13), %ecx	# MEM[(char *)sub_gmp_str_test1_106 + ivtmp.385_635 * 1], tmp1914
	cmpb	%cl, (%r12)	# tmp1914, MEM[(char *)sub_str_test1_104 + ivtmp.385_635 * 1]
	jne	.L343	#,
	.loc 1 725 39 is_stmt 1 view .LVU2303
.LVL557:
	.loc 1 725 23 view .LVU2304
	.loc 1 725 23 is_stmt 0 view .LVU2305
	movl	$1, %r9d	#, ivtmp.385
.L630:
	.loc 1 727 9 is_stmt 1 view .LVU2306
# sub_64_aligned.c:727:         if (result[i] != result_gmp[i])
	.loc 1 727 12 is_stmt 0 view .LVU2307
	movzbl	0(%r13,%r9), %r10d	# MEM[(char *)sub_gmp_str_test1_106 + ivtmp.385_635 * 1], tmp1915
	cmpb	%r10b, (%r12,%r9)	# tmp1915, MEM[(char *)sub_str_test1_104 + ivtmp.385_635 * 1]
	jne	.L343	#,
	.loc 1 725 39 is_stmt 1 view .LVU2308
	.loc 1 725 23 view .LVU2309
.LVL558:
	.loc 1 725 23 is_stmt 0 view .LVU2310
	addq	$1, %r9	#, ivtmp.385
.LVL559:
.L629:
	.loc 1 727 9 is_stmt 1 view .LVU2311
# sub_64_aligned.c:727:         if (result[i] != result_gmp[i])
	.loc 1 727 12 is_stmt 0 view .LVU2312
	movzbl	0(%r13,%r9), %edx	# MEM[(char *)sub_gmp_str_test1_106 + ivtmp.385_635 * 1], tmp1916
	cmpb	%dl, (%r12,%r9)	# tmp1916, MEM[(char *)sub_str_test1_104 + ivtmp.385_635 * 1]
	jne	.L343	#,
	.loc 1 725 39 is_stmt 1 view .LVU2313
	.loc 1 725 23 view .LVU2314
.LVL560:
	.loc 1 725 23 is_stmt 0 view .LVU2315
	addq	$1, %r9	#, ivtmp.385
.LVL561:
.L628:
	.loc 1 727 9 is_stmt 1 view .LVU2316
# sub_64_aligned.c:727:         if (result[i] != result_gmp[i])
	.loc 1 727 12 is_stmt 0 view .LVU2317
	movzbl	0(%r13,%r9), %r11d	# MEM[(char *)sub_gmp_str_test1_106 + ivtmp.385_635 * 1], tmp1917
	cmpb	%r11b, (%r12,%r9)	# tmp1917, MEM[(char *)sub_str_test1_104 + ivtmp.385_635 * 1]
	jne	.L343	#,
	.loc 1 725 39 is_stmt 1 view .LVU2318
	.loc 1 725 23 view .LVU2319
.LVL562:
	.loc 1 725 23 is_stmt 0 view .LVU2320
	addq	$1, %r9	#, ivtmp.385
.LVL563:
.L627:
	.loc 1 727 9 is_stmt 1 view .LVU2321
# sub_64_aligned.c:727:         if (result[i] != result_gmp[i])
	.loc 1 727 12 is_stmt 0 view .LVU2322
	movzbl	0(%r13,%r9), %r8d	# MEM[(char *)sub_gmp_str_test1_106 + ivtmp.385_635 * 1], tmp1918
	cmpb	%r8b, (%r12,%r9)	# tmp1918, MEM[(char *)sub_str_test1_104 + ivtmp.385_635 * 1]
	jne	.L343	#,
	.loc 1 725 39 is_stmt 1 view .LVU2323
	.loc 1 725 23 view .LVU2324
.LVL564:
	.loc 1 725 23 is_stmt 0 view .LVU2325
	addq	$1, %r9	#, ivtmp.385
.LVL565:
.L626:
	.loc 1 727 9 is_stmt 1 view .LVU2326
# sub_64_aligned.c:727:         if (result[i] != result_gmp[i])
	.loc 1 727 12 is_stmt 0 view .LVU2327
	movzbl	0(%r13,%r9), %eax	# MEM[(char *)sub_gmp_str_test1_106 + ivtmp.385_635 * 1], tmp1919
	cmpb	%al, (%r12,%r9)	# tmp1919, MEM[(char *)sub_str_test1_104 + ivtmp.385_635 * 1]
	jne	.L343	#,
	.loc 1 725 39 is_stmt 1 view .LVU2328
	.loc 1 725 23 view .LVU2329
.LVL566:
	.loc 1 725 23 is_stmt 0 view .LVU2330
	addq	$1, %r9	#, ivtmp.385
.LVL567:
.L625:
	.loc 1 727 9 is_stmt 1 view .LVU2331
# sub_64_aligned.c:727:         if (result[i] != result_gmp[i])
	.loc 1 727 12 is_stmt 0 view .LVU2332
	movzbl	0(%r13,%r9), %esi	# MEM[(char *)sub_gmp_str_test1_106 + ivtmp.385_635 * 1], tmp1920
	cmpb	%sil, (%r12,%r9)	# tmp1920, MEM[(char *)sub_str_test1_104 + ivtmp.385_635 * 1]
	jne	.L343	#,
	.loc 1 725 39 is_stmt 1 view .LVU2333
	.loc 1 725 23 view .LVU2334
.LVL568:
	.loc 1 725 23 is_stmt 0 view .LVU2335
	addq	$1, %r9	#, ivtmp.385
.LVL569:
	.loc 1 725 23 view .LVU2336
	cmpq	%rdi, %r9	# _815, ivtmp.385
	je	.L344	#,
.LVL570:
.L345:
	.loc 1 727 9 is_stmt 1 view .LVU2337
# sub_64_aligned.c:727:         if (result[i] != result_gmp[i])
	.loc 1 727 12 is_stmt 0 view .LVU2338
	movzbl	0(%r13,%r9), %r15d	# MEM[(char *)sub_gmp_str_test1_106 + ivtmp.385_635 * 1], tmp1902
	cmpb	%r15b, (%r12,%r9)	# tmp1902, MEM[(char *)sub_str_test1_104 + ivtmp.385_635 * 1]
	jne	.L343	#,
	.loc 1 725 39 is_stmt 1 view .LVU2339
	.loc 1 725 23 view .LVU2340
	.loc 1 727 9 view .LVU2341
# sub_64_aligned.c:727:         if (result[i] != result_gmp[i])
	.loc 1 727 12 is_stmt 0 view .LVU2342
	movzbl	1(%r13,%r9), %r14d	# MEM[(char *)sub_gmp_str_test1_106 + ivtmp.385_635 * 1], tmp1903
	cmpb	%r14b, 1(%r12,%r9)	# tmp1903, MEM[(char *)sub_str_test1_104 + ivtmp.385_635 * 1]
	jne	.L343	#,
	.loc 1 725 39 is_stmt 1 view .LVU2343
	.loc 1 725 23 view .LVU2344
	.loc 1 727 9 view .LVU2345
# sub_64_aligned.c:727:         if (result[i] != result_gmp[i])
	.loc 1 727 12 is_stmt 0 view .LVU2346
	movzbl	2(%r13,%r9), %ebx	# MEM[(char *)sub_gmp_str_test1_106 + ivtmp.385_635 * 1], tmp1921
	cmpb	%bl, 2(%r12,%r9)	# tmp1921, MEM[(char *)sub_str_test1_104 + ivtmp.385_635 * 1]
	jne	.L343	#,
	.loc 1 725 39 is_stmt 1 view .LVU2347
	.loc 1 725 23 view .LVU2348
	.loc 1 727 9 view .LVU2349
# sub_64_aligned.c:727:         if (result[i] != result_gmp[i])
	.loc 1 727 12 is_stmt 0 view .LVU2350
	movzbl	3(%r13,%r9), %ecx	# MEM[(char *)sub_gmp_str_test1_106 + ivtmp.385_635 * 1], tmp1922
	cmpb	%cl, 3(%r12,%r9)	# tmp1922, MEM[(char *)sub_str_test1_104 + ivtmp.385_635 * 1]
	jne	.L343	#,
	.loc 1 725 39 is_stmt 1 view .LVU2351
	.loc 1 725 23 view .LVU2352
	.loc 1 727 9 view .LVU2353
# sub_64_aligned.c:727:         if (result[i] != result_gmp[i])
	.loc 1 727 12 is_stmt 0 view .LVU2354
	movzbl	4(%r13,%r9), %r10d	# MEM[(char *)sub_gmp_str_test1_106 + ivtmp.385_635 * 1], tmp1923
	cmpb	%r10b, 4(%r12,%r9)	# tmp1923, MEM[(char *)sub_str_test1_104 + ivtmp.385_635 * 1]
	jne	.L343	#,
	.loc 1 725 39 is_stmt 1 view .LVU2355
	.loc 1 725 23 view .LVU2356
	.loc 1 727 9 view .LVU2357
# sub_64_aligned.c:727:         if (result[i] != result_gmp[i])
	.loc 1 727 12 is_stmt 0 view .LVU2358
	movzbl	5(%r13,%r9), %edx	# MEM[(char *)sub_gmp_str_test1_106 + ivtmp.385_635 * 1], tmp1924
	cmpb	%dl, 5(%r12,%r9)	# tmp1924, MEM[(char *)sub_str_test1_104 + ivtmp.385_635 * 1]
	jne	.L343	#,
	.loc 1 725 39 is_stmt 1 view .LVU2359
	.loc 1 725 23 view .LVU2360
	.loc 1 727 9 view .LVU2361
# sub_64_aligned.c:727:         if (result[i] != result_gmp[i])
	.loc 1 727 12 is_stmt 0 view .LVU2362
	movzbl	6(%r13,%r9), %r11d	# MEM[(char *)sub_gmp_str_test1_106 + ivtmp.385_635 * 1], tmp1925
	cmpb	%r11b, 6(%r12,%r9)	# tmp1925, MEM[(char *)sub_str_test1_104 + ivtmp.385_635 * 1]
	jne	.L343	#,
	.loc 1 725 39 is_stmt 1 view .LVU2363
	.loc 1 725 23 view .LVU2364
	.loc 1 727 9 view .LVU2365
# sub_64_aligned.c:727:         if (result[i] != result_gmp[i])
	.loc 1 727 12 is_stmt 0 view .LVU2366
	movzbl	7(%r13,%r9), %r8d	# MEM[(char *)sub_gmp_str_test1_106 + ivtmp.385_635 * 1], tmp1926
	cmpb	%r8b, 7(%r12,%r9)	# tmp1926, MEM[(char *)sub_str_test1_104 + ivtmp.385_635 * 1]
	jne	.L343	#,
	.loc 1 725 39 is_stmt 1 view .LVU2367
	.loc 1 725 23 view .LVU2368
	addq	$8, %r9	#, ivtmp.385
	cmpq	%rdi, %r9	# _815, ivtmp.385
	jne	.L345	#,
.LVL571:
.L344:
	.loc 1 725 23 is_stmt 0 view .LVU2369
.LBE718:
.LBE719:
.LBE720:
	.loc 1 1048 13 is_stmt 1 view .LVU2370
.LBB721:
.LBI721:
	.loc 6 110 1 view .LVU2371
.LBB722:
	.loc 6 112 3 view .LVU2372
# /usr/include/x86_64-linux-gnu/bits/stdio2.h:112:   return __printf_chk (__USE_FORTIFY_LEVEL - 1, __fmt, __va_arg_pack ());
	.loc 6 112 10 is_stmt 0 view .LVU2373
	movl	-1376(%rbp), %edx	# %sfp,
	leaq	.LC37(%rip), %rsi	#, tmp1034
	movl	$1, %edi	#,
	xorl	%eax, %eax	#
	movq	%rsi, -1352(%rbp)	# tmp1034, %sfp
.LVL572:
	.loc 6 112 10 view .LVU2374
	call	__printf_chk@PLT	#
.LVL573:
	movq	-1352(%rbp), %rsi	# %sfp, tmp1034
.LVL574:
	.p2align 4,,10
	.p2align 3
.L351:
	.loc 6 112 10 view .LVU2375
.LBE722:
.LBE721:
	.loc 1 1050 9 is_stmt 1 discriminator 2 view .LVU2376
.LBB723:
.LBI723:
	.loc 6 110 1 discriminator 2 view .LVU2377
.LBB724:
	.loc 6 112 3 discriminator 2 view .LVU2378
# /usr/include/x86_64-linux-gnu/bits/stdio2.h:112:   return __printf_chk (__USE_FORTIFY_LEVEL - 1, __fmt, __va_arg_pack ());
	.loc 6 112 10 is_stmt 0 discriminator 2 view .LVU2379
	movl	-1376(%rbp), %r12d	# %sfp, i
.LVL575:
	.loc 6 112 10 discriminator 2 view .LVU2380
	movl	$1, %edi	#,
	xorl	%eax, %eax	#
	movl	%r12d, %edx	# i,
.LBE724:
.LBE723:
.LBE598:
# sub_64_aligned.c:897:     for (int i = 0; i < ITERATIONS; i++)
	.loc 1 897 38 discriminator 2 view .LVU2381
	movl	%r12d, %r13d	# i, i
.LVL576:
.LBB736:
.LBB726:
.LBB725:
# /usr/include/x86_64-linux-gnu/bits/stdio2.h:112:   return __printf_chk (__USE_FORTIFY_LEVEL - 1, __fmt, __va_arg_pack ());
	.loc 6 112 10 discriminator 2 view .LVU2382
	call	__printf_chk@PLT	#
.LVL577:
	.loc 6 112 10 discriminator 2 view .LVU2383
.LBE725:
.LBE726:
	.loc 1 1051 9 is_stmt 1 discriminator 2 view .LVU2384
.LBE736:
# sub_64_aligned.c:897:     for (int i = 0; i < ITERATIONS; i++)
	.loc 1 897 38 is_stmt 0 discriminator 2 view .LVU2385
	addl	$1, %r13d	#, i
.LBB737:
# sub_64_aligned.c:1051:         sleep(0.1);
	.loc 1 1051 9 discriminator 2 view .LVU2386
	xorl	%edi, %edi	#
	call	sleep@PLT	#
.LVL578:
	.loc 1 1051 9 discriminator 2 view .LVU2387
.LBE737:
	.loc 1 897 38 is_stmt 1 discriminator 2 view .LVU2388
	movl	%r13d, -1376(%rbp)	# i, %sfp
.LVL579:
	.loc 1 897 23 discriminator 2 view .LVU2389
	cmpl	$100000, %r13d	#, i
	jne	.L346	#,
.LBE740:
	.loc 1 1053 5 view .LVU2390
.LVL580:
.LBB741:
.LBI741:
	.loc 6 110 1 view .LVU2391
.LBB742:
	.loc 6 112 3 view .LVU2392
# /usr/include/x86_64-linux-gnu/bits/stdio2.h:112:   return __printf_chk (__USE_FORTIFY_LEVEL - 1, __fmt, __va_arg_pack ());
	.loc 6 112 10 is_stmt 0 view .LVU2393
	leaq	.LC38(%rip), %rdi	#, tmp1015
	call	puts@PLT	#
.LVL581:
	.loc 6 112 10 view .LVU2394
.LBE742:
.LBE741:
	.loc 1 1054 5 is_stmt 1 view .LVU2395
.LBB743:
.LBI743:
	.loc 6 110 1 view .LVU2396
.LBB744:
	.loc 6 112 3 view .LVU2397
# /usr/include/x86_64-linux-gnu/bits/stdio2.h:112:   return __printf_chk (__USE_FORTIFY_LEVEL - 1, __fmt, __va_arg_pack ());
	.loc 6 112 10 is_stmt 0 view .LVU2398
	movq	-1480(%rbp), %r15	# %sfp, test1_rdtsc_gmp
	xorl	%eax, %eax	#
	movq	-1472(%rbp), %rdx	# %sfp,
	leaq	.LC39(%rip), %rsi	#, tmp1016
	movl	$1, %edi	#,
	movq	%r15, %rcx	# test1_rdtsc_gmp,
	call	__printf_chk@PLT	#
.LVL582:
	.loc 6 112 10 view .LVU2399
.LBE744:
.LBE743:
	.loc 1 1055 5 is_stmt 1 view .LVU2400
.LBB745:
.LBI745:
	.loc 6 110 1 view .LVU2401
.LBB746:
	.loc 6 112 3 view .LVU2402
.LBE746:
.LBE745:
# sub_64_aligned.c:1055:     printf("RDTSC Speedup: %f\n", (double)test1_rdtsc_gmp / test1_rdtsc);
	.loc 1 1055 35 is_stmt 0 view .LVU2403
	testq	%r15, %r15	# test1_rdtsc_gmp
	js	.L347	#,
# sub_64_aligned.c:1055:     printf("RDTSC Speedup: %f\n", (double)test1_rdtsc_gmp / test1_rdtsc);
	.loc 1 1055 5 view .LVU2404
	movq	-1472(%rbp), %rsi	# %sfp, test1_rdtsc
# sub_64_aligned.c:1055:     printf("RDTSC Speedup: %f\n", (double)test1_rdtsc_gmp / test1_rdtsc);
	.loc 1 1055 35 view .LVU2405
	pxor	%xmm0, %xmm0	# tmp1017
	cvtsi2sdq	%r15, %xmm0	# test1_rdtsc_gmp, tmp1017
# sub_64_aligned.c:1055:     printf("RDTSC Speedup: %f\n", (double)test1_rdtsc_gmp / test1_rdtsc);
	.loc 1 1055 5 view .LVU2406
	testq	%rsi, %rsi	# test1_rdtsc
	js	.L349	#,
.L790:
	pxor	%xmm10, %xmm10	# tmp1021
	cvtsi2sdq	%rsi, %xmm10	# test1_rdtsc, tmp1021
.L350:
	divsd	%xmm10, %xmm0	# tmp1021, tmp1025
.LBB748:
.LBB747:
# /usr/include/x86_64-linux-gnu/bits/stdio2.h:112:   return __printf_chk (__USE_FORTIFY_LEVEL - 1, __fmt, __va_arg_pack ());
	.loc 6 112 10 view .LVU2407
	movl	$1, %edi	#,
	movl	$1, %eax	#,
	leaq	.LC40(%rip), %rsi	#, tmp1026
	call	__printf_chk@PLT	#
.LVL583:
	.loc 6 112 10 view .LVU2408
.LBE747:
.LBE748:
# sub_64_aligned.c:1056: }
	.loc 1 1056 1 view .LVU2409
	movq	-56(%rbp), %rax	# D.39990, tmp1545
	subq	%fs:40, %rax	# MEM[(<address-space-1> long unsigned int *)40B], tmp1545
	jne	.L789	#,
	leaq	-48(%rbp), %rsp	#,
	popq	%rbx	#
	popq	%rcx	#
	.cfi_remember_state
	.cfi_def_cfa 10, 0
	popq	%r12	#
	popq	%r13	#
.LVL584:
	.loc 1 1056 1 view .LVU2410
	popq	%r14	#
	popq	%r15	#
	popq	%rbp	#
.LVL585:
	.loc 1 1056 1 view .LVU2411
	leaq	-8(%rcx), %rsp	#,
	.cfi_def_cfa 7, 8
.LVL586:
	.loc 1 1056 1 view .LVU2412
	ret	
.LVL587:
	.p2align 4,,10
	.p2align 3
.L343:
	.cfi_restore_state
.LBB749:
.LBB738:
	.loc 1 1044 13 is_stmt 1 view .LVU2413
.LBB727:
.LBI727:
	.loc 6 110 1 view .LVU2414
.LBB728:
	.loc 6 112 3 view .LVU2415
# /usr/include/x86_64-linux-gnu/bits/stdio2.h:112:   return __printf_chk (__USE_FORTIFY_LEVEL - 1, __fmt, __va_arg_pack ());
	.loc 6 112 10 is_stmt 0 view .LVU2416
	movl	-1376(%rbp), %edx	# %sfp,
	leaq	.LC36(%rip), %rsi	#, tmp1013
	movl	$1, %edi	#,
	xorl	%eax, %eax	#
	call	__printf_chk@PLT	#
.LVL588:
	leaq	.LC37(%rip), %rsi	#, tmp1034
	jmp	.L351	#
.LVL589:
	.p2align 4,,10
	.p2align 3
.L314:
	.loc 6 112 10 view .LVU2417
.LBE728:
.LBE727:
.LBB729:
.LBB663:
	.loc 1 229 5 is_stmt 1 view .LVU2418
.LBB658:
	.loc 1 172 6 view .LVU2419
.LBB656:
	.loc 1 175 5 view .LVU2420
.LBB654:
.LBB646:
# sub_64_aligned.c:177:         memset(borrow_array, 0, n * sizeof(uint64_t)); // Clear the array if it's empty or has only one element
	.loc 1 177 9 is_stmt 0 view .LVU2421
	leaq	0(,%rdx,8), %r12	#, _438
.LVL590:
.L318:
	.loc 1 177 9 view .LVU2422
.LBE646:
.LBI642:
	.loc 1 172 6 is_stmt 1 view .LVU2423
.LBB647:
	.loc 1 177 9 view .LVU2424
.LBB644:
.LBI644:
	.loc 4 57 1 view .LVU2425
.LBB645:
	.loc 4 59 3 view .LVU2426
# /usr/include/x86_64-linux-gnu/bits/string_fortified.h:59:   return __builtin___memset_chk (__dest, __ch, __len,
	.loc 4 59 10 is_stmt 0 view .LVU2427
	xorl	%esi, %esi	#
	movq	%r12, %rdx	# _438,
.LVL591:
	.loc 4 59 10 view .LVU2428
	movq	%rcx, %rdi	# borrow_array,
	call	memset@PLT	#
.LVL592:
	.loc 4 59 10 view .LVU2429
.LBE645:
.LBE644:
	.loc 1 178 9 is_stmt 1 view .LVU2430
	.loc 1 178 9 is_stmt 0 view .LVU2431
.LBE647:
.LBE654:
.LBE656:
.LBE658:
	.loc 1 234 19 is_stmt 1 view .LVU2432
	cmpl	$1, %r14d	#, prephitmp_382
	jne	.L329	#,
	.loc 1 236 9 view .LVU2433
# sub_64_aligned.c:236:         result[i] = result[i] - borrow_array[i];
	.loc 1 236 31 is_stmt 0 view .LVU2434
	movq	(%rax), %r9	# MEM[(uint64_t *)borrow_array_152], MEM[(uint64_t *)borrow_array_152]
	subq	%r9, (%rbx)	# MEM[(uint64_t *)borrow_array_152], MEM[(uint64_t *)result_133]
	.loc 1 237 9 is_stmt 1 view .LVU2435
	.loc 1 244 13 view .LVU2436
	leaq	8(%rbx), %r10	#, ivtmp.429
# sub_64_aligned.c:269:     i = 0;
	.loc 1 269 7 is_stmt 0 view .LVU2437
	xorl	%edx, %edx	# i
# sub_64_aligned.c:244:             borrow_array[i] = 0;
	.loc 1 244 29 view .LVU2438
	movq	$0, (%rax)	#,* borrow_array
	.loc 1 234 25 is_stmt 1 view .LVU2439
.LVL593:
	.loc 1 234 19 view .LVU2440
	.loc 1 270 22 view .LVU2441
# sub_64_aligned.c:270:     while (result[i] <= 0)
	.loc 1 270 18 is_stmt 0 view .LVU2442
	movq	(%rbx), %rax	# *result_133, iftmp.51_182
# sub_64_aligned.c:270:     while (result[i] <= 0)
	.loc 1 270 22 view .LVU2443
	testq	%rax, %rax	# iftmp.51_182
	je	.L332	#,
.LVL594:
	.p2align 4,,10
	.p2align 3
.L788:
	.loc 1 270 22 view .LVU2444
	movq	%rbx, -1400(%rbp)	# result, %sfp
	jmp	.L325	#
.LVL595:
	.p2align 4,,10
	.p2align 3
.L315:
	.loc 1 270 22 view .LVU2445
	movq	%r14, %rdi	# prephitmp_382, tmp1076
	movl	%r14d, %r9d	# prephitmp_382, _477
# sub_64_aligned.c:212:     for (i = 0; i < n; i++)
	.loc 1 212 19 view .LVU2446
	xorl	%esi, %esi	# ivtmp.449
	andl	$7, %edi	#, tmp1076
	je	.L321	#,
	cmpq	$1, %rdi	#, tmp1076
	je	.L611	#,
	cmpq	$2, %rdi	#, tmp1076
	je	.L612	#,
	cmpq	$3, %rdi	#, tmp1076
	je	.L613	#,
	cmpq	$4, %rdi	#, tmp1076
	je	.L614	#,
	cmpq	$5, %rdi	#, tmp1076
	je	.L615	#,
	cmpq	$6, %rdi	#, tmp1076
	je	.L616	#,
	.loc 1 215 9 is_stmt 1 view .LVU2447
# sub_64_aligned.c:215:         result[i] = a[i] - b[i];
	.loc 1 215 26 is_stmt 0 view .LVU2448
	movq	(%r12), %rsi	# MEM[(uint64_t *)a_156 + ivtmp.449_466 * 8], MEM[(uint64_t *)a_156 + ivtmp.449_466 * 8]
	subq	(%rax), %rsi	# MEM[(uint64_t *)b_159 + ivtmp.449_466 * 8], tmp1379
# sub_64_aligned.c:215:         result[i] = a[i] - b[i];
	.loc 1 215 19 view .LVU2449
	movq	%rsi, (%rbx)	# tmp1379, MEM[(uint64_t *)result_133 + ivtmp.449_466 * 8]
	.loc 1 217 9 is_stmt 1 view .LVU2450
	.loc 1 224 13 view .LVU2451
# sub_64_aligned.c:212:     for (i = 0; i < n; i++)
	.loc 1 212 19 is_stmt 0 view .LVU2452
	movl	$1, %esi	#, ivtmp.449
# sub_64_aligned.c:224:             borrow_array[i] = 0;
	.loc 1 224 29 view .LVU2453
	movq	$0, (%rcx)	#, MEM[(uint64_t *)borrow_array_152 + ivtmp.449_466 * 8]
	.loc 1 212 25 is_stmt 1 view .LVU2454
.LVL596:
	.loc 1 212 19 view .LVU2455
.L616:
	.loc 1 215 9 view .LVU2456
# sub_64_aligned.c:215:         result[i] = a[i] - b[i];
	.loc 1 215 26 is_stmt 0 view .LVU2457
	movq	(%r12,%rsi,8), %r8	# MEM[(uint64_t *)a_156 + ivtmp.449_466 * 8], MEM[(uint64_t *)a_156 + ivtmp.449_466 * 8]
	subq	(%rax,%rsi,8), %r8	# MEM[(uint64_t *)b_159 + ivtmp.449_466 * 8], tmp1381
# sub_64_aligned.c:215:         result[i] = a[i] - b[i];
	.loc 1 215 19 view .LVU2458
	movq	%r8, (%rbx,%rsi,8)	# tmp1381, MEM[(uint64_t *)result_133 + ivtmp.449_466 * 8]
	.loc 1 217 9 is_stmt 1 view .LVU2459
	.loc 1 224 13 view .LVU2460
# sub_64_aligned.c:224:             borrow_array[i] = 0;
	.loc 1 224 29 is_stmt 0 view .LVU2461
	movq	$0, (%rcx,%rsi,8)	#, MEM[(uint64_t *)borrow_array_152 + ivtmp.449_466 * 8]
	.loc 1 212 25 is_stmt 1 view .LVU2462
	.loc 1 212 19 view .LVU2463
.LVL597:
	.loc 1 212 19 is_stmt 0 view .LVU2464
	addq	$1, %rsi	#, ivtmp.449
.LVL598:
.L615:
	.loc 1 215 9 is_stmt 1 view .LVU2465
# sub_64_aligned.c:215:         result[i] = a[i] - b[i];
	.loc 1 215 26 is_stmt 0 view .LVU2466
	movq	(%r12,%rsi,8), %rdi	# MEM[(uint64_t *)a_156 + ivtmp.449_466 * 8], MEM[(uint64_t *)a_156 + ivtmp.449_466 * 8]
	subq	(%rax,%rsi,8), %rdi	# MEM[(uint64_t *)b_159 + ivtmp.449_466 * 8], tmp1383
# sub_64_aligned.c:215:         result[i] = a[i] - b[i];
	.loc 1 215 19 view .LVU2467
	movq	%rdi, (%rbx,%rsi,8)	# tmp1383, MEM[(uint64_t *)result_133 + ivtmp.449_466 * 8]
	.loc 1 217 9 is_stmt 1 view .LVU2468
	.loc 1 224 13 view .LVU2469
# sub_64_aligned.c:224:             borrow_array[i] = 0;
	.loc 1 224 29 is_stmt 0 view .LVU2470
	movq	$0, (%rcx,%rsi,8)	#, MEM[(uint64_t *)borrow_array_152 + ivtmp.449_466 * 8]
	.loc 1 212 25 is_stmt 1 view .LVU2471
	.loc 1 212 19 view .LVU2472
.LVL599:
	.loc 1 212 19 is_stmt 0 view .LVU2473
	addq	$1, %rsi	#, ivtmp.449
.LVL600:
.L614:
	.loc 1 215 9 is_stmt 1 view .LVU2474
# sub_64_aligned.c:215:         result[i] = a[i] - b[i];
	.loc 1 215 26 is_stmt 0 view .LVU2475
	movq	(%r12,%rsi,8), %r8	# MEM[(uint64_t *)a_156 + ivtmp.449_466 * 8], MEM[(uint64_t *)a_156 + ivtmp.449_466 * 8]
	subq	(%rax,%rsi,8), %r8	# MEM[(uint64_t *)b_159 + ivtmp.449_466 * 8], tmp1385
# sub_64_aligned.c:215:         result[i] = a[i] - b[i];
	.loc 1 215 19 view .LVU2476
	movq	%r8, (%rbx,%rsi,8)	# tmp1385, MEM[(uint64_t *)result_133 + ivtmp.449_466 * 8]
	.loc 1 217 9 is_stmt 1 view .LVU2477
	.loc 1 224 13 view .LVU2478
# sub_64_aligned.c:224:             borrow_array[i] = 0;
	.loc 1 224 29 is_stmt 0 view .LVU2479
	movq	$0, (%rcx,%rsi,8)	#, MEM[(uint64_t *)borrow_array_152 + ivtmp.449_466 * 8]
	.loc 1 212 25 is_stmt 1 view .LVU2480
	.loc 1 212 19 view .LVU2481
.LVL601:
	.loc 1 212 19 is_stmt 0 view .LVU2482
	addq	$1, %rsi	#, ivtmp.449
.LVL602:
.L613:
	.loc 1 215 9 is_stmt 1 view .LVU2483
# sub_64_aligned.c:215:         result[i] = a[i] - b[i];
	.loc 1 215 26 is_stmt 0 view .LVU2484
	movq	(%r12,%rsi,8), %rdi	# MEM[(uint64_t *)a_156 + ivtmp.449_466 * 8], MEM[(uint64_t *)a_156 + ivtmp.449_466 * 8]
	subq	(%rax,%rsi,8), %rdi	# MEM[(uint64_t *)b_159 + ivtmp.449_466 * 8], tmp1387
# sub_64_aligned.c:215:         result[i] = a[i] - b[i];
	.loc 1 215 19 view .LVU2485
	movq	%rdi, (%rbx,%rsi,8)	# tmp1387, MEM[(uint64_t *)result_133 + ivtmp.449_466 * 8]
	.loc 1 217 9 is_stmt 1 view .LVU2486
	.loc 1 224 13 view .LVU2487
# sub_64_aligned.c:224:             borrow_array[i] = 0;
	.loc 1 224 29 is_stmt 0 view .LVU2488
	movq	$0, (%rcx,%rsi,8)	#, MEM[(uint64_t *)borrow_array_152 + ivtmp.449_466 * 8]
	.loc 1 212 25 is_stmt 1 view .LVU2489
	.loc 1 212 19 view .LVU2490
.LVL603:
	.loc 1 212 19 is_stmt 0 view .LVU2491
	addq	$1, %rsi	#, ivtmp.449
.LVL604:
.L612:
	.loc 1 215 9 is_stmt 1 view .LVU2492
# sub_64_aligned.c:215:         result[i] = a[i] - b[i];
	.loc 1 215 26 is_stmt 0 view .LVU2493
	movq	(%r12,%rsi,8), %r8	# MEM[(uint64_t *)a_156 + ivtmp.449_466 * 8], MEM[(uint64_t *)a_156 + ivtmp.449_466 * 8]
	subq	(%rax,%rsi,8), %r8	# MEM[(uint64_t *)b_159 + ivtmp.449_466 * 8], tmp1389
# sub_64_aligned.c:215:         result[i] = a[i] - b[i];
	.loc 1 215 19 view .LVU2494
	movq	%r8, (%rbx,%rsi,8)	# tmp1389, MEM[(uint64_t *)result_133 + ivtmp.449_466 * 8]
	.loc 1 217 9 is_stmt 1 view .LVU2495
	.loc 1 224 13 view .LVU2496
# sub_64_aligned.c:224:             borrow_array[i] = 0;
	.loc 1 224 29 is_stmt 0 view .LVU2497
	movq	$0, (%rcx,%rsi,8)	#, MEM[(uint64_t *)borrow_array_152 + ivtmp.449_466 * 8]
	.loc 1 212 25 is_stmt 1 view .LVU2498
	.loc 1 212 19 view .LVU2499
.LVL605:
	.loc 1 212 19 is_stmt 0 view .LVU2500
	addq	$1, %rsi	#, ivtmp.449
.LVL606:
.L611:
	.loc 1 215 9 is_stmt 1 view .LVU2501
# sub_64_aligned.c:215:         result[i] = a[i] - b[i];
	.loc 1 215 26 is_stmt 0 view .LVU2502
	movq	(%r12,%rsi,8), %rdi	# MEM[(uint64_t *)a_156 + ivtmp.449_466 * 8], MEM[(uint64_t *)a_156 + ivtmp.449_466 * 8]
	subq	(%rax,%rsi,8), %rdi	# MEM[(uint64_t *)b_159 + ivtmp.449_466 * 8], tmp1391
# sub_64_aligned.c:215:         result[i] = a[i] - b[i];
	.loc 1 215 19 view .LVU2503
	movq	%rdi, (%rbx,%rsi,8)	# tmp1391, MEM[(uint64_t *)result_133 + ivtmp.449_466 * 8]
	.loc 1 217 9 is_stmt 1 view .LVU2504
	.loc 1 224 13 view .LVU2505
# sub_64_aligned.c:224:             borrow_array[i] = 0;
	.loc 1 224 29 is_stmt 0 view .LVU2506
	movq	$0, (%rcx,%rsi,8)	#, MEM[(uint64_t *)borrow_array_152 + ivtmp.449_466 * 8]
	.loc 1 212 25 is_stmt 1 view .LVU2507
	.loc 1 212 19 view .LVU2508
.LVL607:
	.loc 1 212 19 is_stmt 0 view .LVU2509
	addq	$1, %rsi	#, ivtmp.449
.LVL608:
	.loc 1 212 19 view .LVU2510
	cmpq	%r9, %rsi	# _477, ivtmp.449
	je	.L322	#,
.LVL609:
.L321:
	.loc 1 215 9 is_stmt 1 view .LVU2511
# sub_64_aligned.c:215:         result[i] = a[i] - b[i];
	.loc 1 215 26 is_stmt 0 view .LVU2512
	movq	(%r12,%rsi,8), %r8	# MEM[(uint64_t *)a_156 + ivtmp.449_466 * 8], MEM[(uint64_t *)a_156 + ivtmp.449_466 * 8]
# sub_64_aligned.c:212:     for (i = 0; i < n; i++)
	.loc 1 212 19 view .LVU2513
	leaq	1(%rsi), %rdi	#, tmp1077
# sub_64_aligned.c:215:         result[i] = a[i] - b[i];
	.loc 1 215 26 view .LVU2514
	subq	(%rax,%rsi,8), %r8	# MEM[(uint64_t *)b_159 + ivtmp.449_466 * 8], tmp937
# sub_64_aligned.c:215:         result[i] = a[i] - b[i];
	.loc 1 215 19 view .LVU2515
	movq	%r8, (%rbx,%rsi,8)	# tmp937, MEM[(uint64_t *)result_133 + ivtmp.449_466 * 8]
	.loc 1 217 9 is_stmt 1 view .LVU2516
	.loc 1 224 13 view .LVU2517
# sub_64_aligned.c:224:             borrow_array[i] = 0;
	.loc 1 224 29 is_stmt 0 view .LVU2518
	movq	$0, (%rcx,%rsi,8)	#, MEM[(uint64_t *)borrow_array_152 + ivtmp.449_466 * 8]
	.loc 1 212 25 is_stmt 1 view .LVU2519
	.loc 1 212 19 view .LVU2520
	.loc 1 215 9 view .LVU2521
# sub_64_aligned.c:215:         result[i] = a[i] - b[i];
	.loc 1 215 26 is_stmt 0 view .LVU2522
	movq	(%r12,%rdi,8), %r8	# MEM[(uint64_t *)a_156 + ivtmp.449_466 * 8], MEM[(uint64_t *)a_156 + ivtmp.449_466 * 8]
	subq	(%rax,%rdi,8), %r8	# MEM[(uint64_t *)b_159 + ivtmp.449_466 * 8], tmp1256
# sub_64_aligned.c:215:         result[i] = a[i] - b[i];
	.loc 1 215 19 view .LVU2523
	movq	%r8, (%rbx,%rdi,8)	# tmp1256, MEM[(uint64_t *)result_133 + ivtmp.449_466 * 8]
	.loc 1 217 9 is_stmt 1 view .LVU2524
	.loc 1 224 13 view .LVU2525
# sub_64_aligned.c:224:             borrow_array[i] = 0;
	.loc 1 224 29 is_stmt 0 view .LVU2526
	movq	$0, (%rcx,%rdi,8)	#, MEM[(uint64_t *)borrow_array_152 + ivtmp.449_466 * 8]
	.loc 1 212 25 is_stmt 1 view .LVU2527
	.loc 1 212 19 view .LVU2528
	leaq	2(%rsi), %rdi	#, ivtmp.449
	.loc 1 215 9 view .LVU2529
# sub_64_aligned.c:215:         result[i] = a[i] - b[i];
	.loc 1 215 26 is_stmt 0 view .LVU2530
	movq	(%r12,%rdi,8), %r8	# MEM[(uint64_t *)a_156 + ivtmp.449_466 * 8], MEM[(uint64_t *)a_156 + ivtmp.449_466 * 8]
	subq	(%rax,%rdi,8), %r8	# MEM[(uint64_t *)b_159 + ivtmp.449_466 * 8], tmp1259
# sub_64_aligned.c:215:         result[i] = a[i] - b[i];
	.loc 1 215 19 view .LVU2531
	movq	%r8, (%rbx,%rdi,8)	# tmp1259, MEM[(uint64_t *)result_133 + ivtmp.449_466 * 8]
	.loc 1 217 9 is_stmt 1 view .LVU2532
	.loc 1 224 13 view .LVU2533
# sub_64_aligned.c:224:             borrow_array[i] = 0;
	.loc 1 224 29 is_stmt 0 view .LVU2534
	movq	$0, (%rcx,%rdi,8)	#, MEM[(uint64_t *)borrow_array_152 + ivtmp.449_466 * 8]
	.loc 1 212 25 is_stmt 1 view .LVU2535
	.loc 1 212 19 view .LVU2536
	leaq	3(%rsi), %rdi	#, ivtmp.449
	.loc 1 215 9 view .LVU2537
# sub_64_aligned.c:215:         result[i] = a[i] - b[i];
	.loc 1 215 26 is_stmt 0 view .LVU2538
	movq	(%r12,%rdi,8), %r8	# MEM[(uint64_t *)a_156 + ivtmp.449_466 * 8], MEM[(uint64_t *)a_156 + ivtmp.449_466 * 8]
	subq	(%rax,%rdi,8), %r8	# MEM[(uint64_t *)b_159 + ivtmp.449_466 * 8], tmp1262
# sub_64_aligned.c:215:         result[i] = a[i] - b[i];
	.loc 1 215 19 view .LVU2539
	movq	%r8, (%rbx,%rdi,8)	# tmp1262, MEM[(uint64_t *)result_133 + ivtmp.449_466 * 8]
	.loc 1 217 9 is_stmt 1 view .LVU2540
	.loc 1 224 13 view .LVU2541
# sub_64_aligned.c:224:             borrow_array[i] = 0;
	.loc 1 224 29 is_stmt 0 view .LVU2542
	movq	$0, (%rcx,%rdi,8)	#, MEM[(uint64_t *)borrow_array_152 + ivtmp.449_466 * 8]
	.loc 1 212 25 is_stmt 1 view .LVU2543
	.loc 1 212 19 view .LVU2544
	leaq	4(%rsi), %rdi	#, ivtmp.449
	.loc 1 215 9 view .LVU2545
# sub_64_aligned.c:215:         result[i] = a[i] - b[i];
	.loc 1 215 26 is_stmt 0 view .LVU2546
	movq	(%r12,%rdi,8), %r8	# MEM[(uint64_t *)a_156 + ivtmp.449_466 * 8], MEM[(uint64_t *)a_156 + ivtmp.449_466 * 8]
	subq	(%rax,%rdi,8), %r8	# MEM[(uint64_t *)b_159 + ivtmp.449_466 * 8], tmp1265
# sub_64_aligned.c:215:         result[i] = a[i] - b[i];
	.loc 1 215 19 view .LVU2547
	movq	%r8, (%rbx,%rdi,8)	# tmp1265, MEM[(uint64_t *)result_133 + ivtmp.449_466 * 8]
	.loc 1 217 9 is_stmt 1 view .LVU2548
	.loc 1 224 13 view .LVU2549
# sub_64_aligned.c:224:             borrow_array[i] = 0;
	.loc 1 224 29 is_stmt 0 view .LVU2550
	movq	$0, (%rcx,%rdi,8)	#, MEM[(uint64_t *)borrow_array_152 + ivtmp.449_466 * 8]
	.loc 1 212 25 is_stmt 1 view .LVU2551
	.loc 1 212 19 view .LVU2552
	leaq	5(%rsi), %rdi	#, ivtmp.449
	.loc 1 215 9 view .LVU2553
# sub_64_aligned.c:215:         result[i] = a[i] - b[i];
	.loc 1 215 26 is_stmt 0 view .LVU2554
	movq	(%r12,%rdi,8), %r8	# MEM[(uint64_t *)a_156 + ivtmp.449_466 * 8], MEM[(uint64_t *)a_156 + ivtmp.449_466 * 8]
	subq	(%rax,%rdi,8), %r8	# MEM[(uint64_t *)b_159 + ivtmp.449_466 * 8], tmp1268
# sub_64_aligned.c:215:         result[i] = a[i] - b[i];
	.loc 1 215 19 view .LVU2555
	movq	%r8, (%rbx,%rdi,8)	# tmp1268, MEM[(uint64_t *)result_133 + ivtmp.449_466 * 8]
	.loc 1 217 9 is_stmt 1 view .LVU2556
	.loc 1 224 13 view .LVU2557
# sub_64_aligned.c:224:             borrow_array[i] = 0;
	.loc 1 224 29 is_stmt 0 view .LVU2558
	movq	$0, (%rcx,%rdi,8)	#, MEM[(uint64_t *)borrow_array_152 + ivtmp.449_466 * 8]
	.loc 1 212 25 is_stmt 1 view .LVU2559
	.loc 1 212 19 view .LVU2560
	leaq	6(%rsi), %rdi	#, ivtmp.449
	.loc 1 215 9 view .LVU2561
# sub_64_aligned.c:215:         result[i] = a[i] - b[i];
	.loc 1 215 26 is_stmt 0 view .LVU2562
	movq	(%r12,%rdi,8), %r8	# MEM[(uint64_t *)a_156 + ivtmp.449_466 * 8], MEM[(uint64_t *)a_156 + ivtmp.449_466 * 8]
	subq	(%rax,%rdi,8), %r8	# MEM[(uint64_t *)b_159 + ivtmp.449_466 * 8], tmp1271
# sub_64_aligned.c:215:         result[i] = a[i] - b[i];
	.loc 1 215 19 view .LVU2563
	movq	%r8, (%rbx,%rdi,8)	# tmp1271, MEM[(uint64_t *)result_133 + ivtmp.449_466 * 8]
	.loc 1 217 9 is_stmt 1 view .LVU2564
	.loc 1 224 13 view .LVU2565
# sub_64_aligned.c:224:             borrow_array[i] = 0;
	.loc 1 224 29 is_stmt 0 view .LVU2566
	movq	$0, (%rcx,%rdi,8)	#, MEM[(uint64_t *)borrow_array_152 + ivtmp.449_466 * 8]
	.loc 1 212 25 is_stmt 1 view .LVU2567
	.loc 1 212 19 view .LVU2568
	leaq	7(%rsi), %rdi	#, ivtmp.449
	.loc 1 215 9 view .LVU2569
# sub_64_aligned.c:212:     for (i = 0; i < n; i++)
	.loc 1 212 19 is_stmt 0 view .LVU2570
	addq	$8, %rsi	#, ivtmp.449
# sub_64_aligned.c:215:         result[i] = a[i] - b[i];
	.loc 1 215 26 view .LVU2571
	movq	(%r12,%rdi,8), %r8	# MEM[(uint64_t *)a_156 + ivtmp.449_466 * 8], MEM[(uint64_t *)a_156 + ivtmp.449_466 * 8]
	subq	(%rax,%rdi,8), %r8	# MEM[(uint64_t *)b_159 + ivtmp.449_466 * 8], tmp1274
# sub_64_aligned.c:215:         result[i] = a[i] - b[i];
	.loc 1 215 19 view .LVU2572
	movq	%r8, (%rbx,%rdi,8)	# tmp1274, MEM[(uint64_t *)result_133 + ivtmp.449_466 * 8]
	.loc 1 217 9 is_stmt 1 view .LVU2573
	.loc 1 224 13 view .LVU2574
# sub_64_aligned.c:224:             borrow_array[i] = 0;
	.loc 1 224 29 is_stmt 0 view .LVU2575
	movq	$0, (%rcx,%rdi,8)	#, MEM[(uint64_t *)borrow_array_152 + ivtmp.449_466 * 8]
	.loc 1 212 25 is_stmt 1 view .LVU2576
	.loc 1 212 19 view .LVU2577
.LVL610:
	.loc 1 212 19 is_stmt 0 view .LVU2578
	cmpq	%r9, %rsi	# _477, ivtmp.449
	jne	.L321	#,
	jmp	.L322	#
.LVL611:
	.p2align 4,,10
	.p2align 3
.L306:
	.loc 1 212 19 view .LVU2579
	movl	-1360(%rbp), %r9d	# %sfp,
.LBE663:
.LBE729:
.LBB730:
.LBB616:
# sub_64_aligned.c:817:     if (str == NULL)
	.loc 1 817 8 view .LVU2580
	xorl	%r15d, %r15d	# ivtmp.483
	movq	%r9, %r12	#,
	andl	$7, %r12d	#, tmp1091
	je	.L746	#,
	cmpq	$1, %r12	#, tmp1091
	je	.L599	#,
	cmpq	$2, %r12	#, tmp1091
	je	.L600	#,
	cmpq	$3, %r12	#, tmp1091
	je	.L601	#,
	cmpq	$4, %r12	#, tmp1091
	je	.L602	#,
	cmpq	$5, %r12	#, tmp1091
	je	.L603	#,
	cmpq	$6, %r12	#, tmp1091
	je	.L604	#,
.LVL612:
.LBB613:
	.loc 1 824 9 is_stmt 1 view .LVU2581
# sub_64_aligned.c:824:         str[i] = digits[i] + '0';
	.loc 1 824 28 is_stmt 0 view .LVU2582
	movzbl	(%rbx), %eax	# MEM[(uint64_t *)b1_test1.27_221 + ivtmp.483_505 * 8], tmp1968
.LVL613:
	.loc 1 824 28 view .LVU2583
	movq	-1352(%rbp), %r11	# %sfp, str
# sub_64_aligned.c:822:     for (int i = 0; i < n; i++)
	.loc 1 822 23 view .LVU2584
	movl	$1, %r15d	#, ivtmp.483
# sub_64_aligned.c:824:         str[i] = digits[i] + '0';
	.loc 1 824 28 view .LVU2585
	addl	$48, %eax	#, tmp1446
	movb	%al, (%r11)	# tmp1446, MEM[(char *)str_400 + ivtmp.483_505 * 1]
	.loc 1 822 29 is_stmt 1 view .LVU2586
.LVL614:
	.loc 1 822 23 view .LVU2587
.L604:
	.loc 1 824 9 view .LVU2588
# sub_64_aligned.c:824:         str[i] = digits[i] + '0';
	.loc 1 824 28 is_stmt 0 view .LVU2589
	movzbl	(%rbx,%r15,8), %ecx	# MEM[(uint64_t *)b1_test1.27_221 + ivtmp.483_505 * 8], tmp1970
	movq	-1352(%rbp), %rsi	# %sfp, str
	addl	$48, %ecx	#, tmp1448
	movb	%cl, (%rsi,%r15)	# tmp1448, MEM[(char *)str_400 + ivtmp.483_505 * 1]
	.loc 1 822 29 is_stmt 1 view .LVU2590
	.loc 1 822 23 view .LVU2591
.LVL615:
	.loc 1 822 23 is_stmt 0 view .LVU2592
	addq	$1, %r15	#, ivtmp.483
.LVL616:
.L603:
	.loc 1 824 9 is_stmt 1 view .LVU2593
# sub_64_aligned.c:824:         str[i] = digits[i] + '0';
	.loc 1 824 28 is_stmt 0 view .LVU2594
	movzbl	(%rbx,%r15,8), %r10d	# MEM[(uint64_t *)b1_test1.27_221 + ivtmp.483_505 * 8], tmp1972
	movq	-1352(%rbp), %rdx	# %sfp, str
	addl	$48, %r10d	#, tmp1450
	movb	%r10b, (%rdx,%r15)	# tmp1450, MEM[(char *)str_400 + ivtmp.483_505 * 1]
	.loc 1 822 29 is_stmt 1 view .LVU2595
	.loc 1 822 23 view .LVU2596
.LVL617:
	.loc 1 822 23 is_stmt 0 view .LVU2597
	addq	$1, %r15	#, ivtmp.483
.LVL618:
.L602:
	.loc 1 824 9 is_stmt 1 view .LVU2598
# sub_64_aligned.c:824:         str[i] = digits[i] + '0';
	.loc 1 824 28 is_stmt 0 view .LVU2599
	movzbl	(%rbx,%r15,8), %r8d	# MEM[(uint64_t *)b1_test1.27_221 + ivtmp.483_505 * 8], tmp1974
.LVL619:
	.loc 1 824 28 view .LVU2600
	movq	-1352(%rbp), %rdi	# %sfp, str
	addl	$48, %r8d	#, tmp1452
	movb	%r8b, (%rdi,%r15)	# tmp1452, MEM[(char *)str_400 + ivtmp.483_505 * 1]
	.loc 1 822 29 is_stmt 1 view .LVU2601
	.loc 1 822 23 view .LVU2602
.LVL620:
	.loc 1 822 23 is_stmt 0 view .LVU2603
	addq	$1, %r15	#, ivtmp.483
.LVL621:
.L601:
	.loc 1 824 9 is_stmt 1 view .LVU2604
# sub_64_aligned.c:824:         str[i] = digits[i] + '0';
	.loc 1 824 28 is_stmt 0 view .LVU2605
	movzbl	(%rbx,%r15,8), %r14d	# MEM[(uint64_t *)b1_test1.27_221 + ivtmp.483_505 * 8], tmp1976
	movq	-1352(%rbp), %r12	# %sfp, str
	addl	$48, %r14d	#, tmp1454
	movb	%r14b, (%r12,%r15)	# tmp1454, MEM[(char *)str_400 + ivtmp.483_505 * 1]
	.loc 1 822 29 is_stmt 1 view .LVU2606
	.loc 1 822 23 view .LVU2607
.LVL622:
	.loc 1 822 23 is_stmt 0 view .LVU2608
	addq	$1, %r15	#, ivtmp.483
.LVL623:
.L600:
	.loc 1 824 9 is_stmt 1 view .LVU2609
# sub_64_aligned.c:824:         str[i] = digits[i] + '0';
	.loc 1 824 28 is_stmt 0 view .LVU2610
	movzbl	(%rbx,%r15,8), %eax	# MEM[(uint64_t *)b1_test1.27_221 + ivtmp.483_505 * 8], tmp1978
	movq	-1352(%rbp), %r11	# %sfp, str
	addl	$48, %eax	#, tmp1456
	movb	%al, (%r11,%r15)	# tmp1456, MEM[(char *)str_400 + ivtmp.483_505 * 1]
	.loc 1 822 29 is_stmt 1 view .LVU2611
	.loc 1 822 23 view .LVU2612
.LVL624:
	.loc 1 822 23 is_stmt 0 view .LVU2613
	addq	$1, %r15	#, ivtmp.483
.LVL625:
.L599:
	.loc 1 824 9 is_stmt 1 view .LVU2614
# sub_64_aligned.c:824:         str[i] = digits[i] + '0';
	.loc 1 824 28 is_stmt 0 view .LVU2615
	movzbl	(%rbx,%r15,8), %ecx	# MEM[(uint64_t *)b1_test1.27_221 + ivtmp.483_505 * 8], tmp1980
	movq	-1352(%rbp), %rdx	# %sfp, str
	addl	$48, %ecx	#, tmp1458
	movq	%rdx, %r10	# str, str
	movb	%cl, (%rdx,%r15)	# tmp1458, MEM[(char *)str_400 + ivtmp.483_505 * 1]
	.loc 1 822 29 is_stmt 1 view .LVU2616
	.loc 1 822 23 view .LVU2617
.LVL626:
	.loc 1 822 23 is_stmt 0 view .LVU2618
	addq	$1, %r15	#, ivtmp.483
.LVL627:
	.loc 1 822 23 view .LVU2619
	cmpq	%r15, %r9	# ivtmp.483, _373
	je	.L354	#,
.LVL628:
.L309:
	.loc 1 824 9 is_stmt 1 view .LVU2620
# sub_64_aligned.c:824:         str[i] = digits[i] + '0';
	.loc 1 824 28 is_stmt 0 view .LVU2621
	movzbl	(%rbx,%r15,8), %esi	# MEM[(uint64_t *)b1_test1.27_221 + ivtmp.483_505 * 8], tmp1827
	addl	$48, %esi	#, tmp881
	movb	%sil, (%r10,%r15)	# tmp881, MEM[(char *)str_400 + ivtmp.483_505 * 1]
	.loc 1 822 29 is_stmt 1 view .LVU2622
	.loc 1 822 23 view .LVU2623
	.loc 1 824 9 view .LVU2624
# sub_64_aligned.c:824:         str[i] = digits[i] + '0';
	.loc 1 824 28 is_stmt 0 view .LVU2625
	movzbl	8(%rbx,%r15,8), %r8d	# MEM[(uint64_t *)b1_test1.27_221 + ivtmp.483_505 * 8], tmp1828
	addl	$48, %r8d	#, tmp1201
	movb	%r8b, 1(%r10,%r15)	# tmp1201, MEM[(char *)str_400 + ivtmp.483_505 * 1]
	.loc 1 822 29 is_stmt 1 view .LVU2626
	.loc 1 822 23 view .LVU2627
	.loc 1 824 9 view .LVU2628
# sub_64_aligned.c:824:         str[i] = digits[i] + '0';
	.loc 1 824 28 is_stmt 0 view .LVU2629
	movzbl	16(%rbx,%r15,8), %edi	# MEM[(uint64_t *)b1_test1.27_221 + ivtmp.483_505 * 8], tmp1829
	addl	$48, %edi	#, tmp1204
	movb	%dil, 2(%r10,%r15)	# tmp1204, MEM[(char *)str_400 + ivtmp.483_505 * 1]
	.loc 1 822 29 is_stmt 1 view .LVU2630
	.loc 1 822 23 view .LVU2631
	.loc 1 824 9 view .LVU2632
# sub_64_aligned.c:824:         str[i] = digits[i] + '0';
	.loc 1 824 28 is_stmt 0 view .LVU2633
	movzbl	24(%rbx,%r15,8), %r14d	# MEM[(uint64_t *)b1_test1.27_221 + ivtmp.483_505 * 8], tmp1830
	addl	$48, %r14d	#, tmp1207
	movb	%r14b, 3(%r10,%r15)	# tmp1207, MEM[(char *)str_400 + ivtmp.483_505 * 1]
	.loc 1 822 29 is_stmt 1 view .LVU2634
	.loc 1 822 23 view .LVU2635
	.loc 1 824 9 view .LVU2636
# sub_64_aligned.c:824:         str[i] = digits[i] + '0';
	.loc 1 824 28 is_stmt 0 view .LVU2637
	movzbl	32(%rbx,%r15,8), %r12d	# MEM[(uint64_t *)b1_test1.27_221 + ivtmp.483_505 * 8], tmp1831
	addl	$48, %r12d	#, tmp1210
	movb	%r12b, 4(%r10,%r15)	# tmp1210, MEM[(char *)str_400 + ivtmp.483_505 * 1]
	.loc 1 822 29 is_stmt 1 view .LVU2638
	.loc 1 822 23 view .LVU2639
	.loc 1 824 9 view .LVU2640
# sub_64_aligned.c:824:         str[i] = digits[i] + '0';
	.loc 1 824 28 is_stmt 0 view .LVU2641
	movzbl	40(%rbx,%r15,8), %eax	# MEM[(uint64_t *)b1_test1.27_221 + ivtmp.483_505 * 8], tmp1832
	addl	$48, %eax	#, tmp1213
	movb	%al, 5(%r10,%r15)	# tmp1213, MEM[(char *)str_400 + ivtmp.483_505 * 1]
	.loc 1 822 29 is_stmt 1 view .LVU2642
	.loc 1 822 23 view .LVU2643
	.loc 1 824 9 view .LVU2644
# sub_64_aligned.c:824:         str[i] = digits[i] + '0';
	.loc 1 824 28 is_stmt 0 view .LVU2645
	movzbl	48(%rbx,%r15,8), %r11d	# MEM[(uint64_t *)b1_test1.27_221 + ivtmp.483_505 * 8], tmp1833
	leal	48(%r11), %ecx	#, tmp1216
	movb	%cl, 6(%r10,%r15)	# tmp1216, MEM[(char *)str_400 + ivtmp.483_505 * 1]
	.loc 1 822 29 is_stmt 1 view .LVU2646
	.loc 1 822 23 view .LVU2647
	.loc 1 824 9 view .LVU2648
# sub_64_aligned.c:824:         str[i] = digits[i] + '0';
	.loc 1 824 28 is_stmt 0 view .LVU2649
	movzbl	56(%rbx,%r15,8), %edx	# MEM[(uint64_t *)b1_test1.27_221 + ivtmp.483_505 * 8], tmp1834
	addl	$48, %edx	#, tmp1219
	movb	%dl, 7(%r10,%r15)	# tmp1219, MEM[(char *)str_400 + ivtmp.483_505 * 1]
	.loc 1 822 29 is_stmt 1 view .LVU2650
	.loc 1 822 23 view .LVU2651
.LVL629:
	.loc 1 822 23 is_stmt 0 view .LVU2652
	addq	$8, %r15	#, ivtmp.483
.LVL630:
	.loc 1 822 23 view .LVU2653
	cmpq	%r15, %r9	# ivtmp.483, _373
	jne	.L309	#,
	jmp	.L354	#
.LVL631:
	.p2align 4,,10
	.p2align 3
.L301:
	.loc 1 822 23 view .LVU2654
	movl	-1360(%rbp), %r11d	# %sfp,
.LBE613:
.LBE616:
.LBE730:
.LBB731:
.LBB607:
.LBB603:
	xorl	%ecx, %ecx	# ivtmp.498
	movq	%r11, %r9	#,
	andl	$7, %r9d	#, tmp1103
	je	.L745	#,
	cmpq	$1, %r9	#, tmp1103
	je	.L593	#,
	cmpq	$2, %r9	#, tmp1103
	je	.L594	#,
	cmpq	$3, %r9	#, tmp1103
	je	.L595	#,
	cmpq	$4, %r9	#, tmp1103
	je	.L596	#,
	cmpq	$5, %r9	#, tmp1103
	je	.L597	#,
	cmpq	$6, %r9	#, tmp1103
	je	.L598	#,
	.loc 1 824 9 is_stmt 1 view .LVU2655
# sub_64_aligned.c:824:         str[i] = digits[i] + '0';
	.loc 1 824 28 is_stmt 0 view .LVU2656
	movzbl	(%rbx), %eax	# MEM[(uint64_t *)a1_test1.25_19 + ivtmp.498_987 * 8], tmp1996
.LVL632:
	.loc 1 824 28 view .LVU2657
	movq	-1368(%rbp), %r10	# %sfp, str
# sub_64_aligned.c:822:     for (int i = 0; i < n; i++)
	.loc 1 822 23 view .LVU2658
	movl	$1, %ecx	#, ivtmp.498
# sub_64_aligned.c:824:         str[i] = digits[i] + '0';
	.loc 1 824 28 view .LVU2659
	addl	$48, %eax	#, tmp1486
	movb	%al, (%r10)	# tmp1486, MEM[(char *)str_276 + ivtmp.498_987 * 1]
	.loc 1 822 29 is_stmt 1 view .LVU2660
.LVL633:
	.loc 1 822 23 view .LVU2661
.L598:
	.loc 1 824 9 view .LVU2662
# sub_64_aligned.c:824:         str[i] = digits[i] + '0';
	.loc 1 824 28 is_stmt 0 view .LVU2663
	movzbl	(%rbx,%rcx,8), %edx	# MEM[(uint64_t *)a1_test1.25_19 + ivtmp.498_987 * 8], tmp1998
	movq	-1368(%rbp), %r8	# %sfp, str
	addl	$48, %edx	#, tmp1488
	movb	%dl, (%r8,%rcx)	# tmp1488, MEM[(char *)str_276 + ivtmp.498_987 * 1]
	.loc 1 822 29 is_stmt 1 view .LVU2664
	.loc 1 822 23 view .LVU2665
.LVL634:
	.loc 1 822 23 is_stmt 0 view .LVU2666
	addq	$1, %rcx	#, ivtmp.498
.LVL635:
.L597:
	.loc 1 824 9 is_stmt 1 view .LVU2667
# sub_64_aligned.c:824:         str[i] = digits[i] + '0';
	.loc 1 824 28 is_stmt 0 view .LVU2668
	movzbl	(%rbx,%rcx,8), %r9d	# MEM[(uint64_t *)a1_test1.25_19 + ivtmp.498_987 * 8], tmp2000
	movq	-1368(%rbp), %rdi	# %sfp, str
	addl	$48, %r9d	#, tmp1490
	movb	%r9b, (%rdi,%rcx)	# tmp1490, MEM[(char *)str_276 + ivtmp.498_987 * 1]
	.loc 1 822 29 is_stmt 1 view .LVU2669
	.loc 1 822 23 view .LVU2670
.LVL636:
	.loc 1 822 23 is_stmt 0 view .LVU2671
	addq	$1, %rcx	#, ivtmp.498
.LVL637:
.L596:
	.loc 1 824 9 is_stmt 1 view .LVU2672
# sub_64_aligned.c:824:         str[i] = digits[i] + '0';
	.loc 1 824 28 is_stmt 0 view .LVU2673
	movzbl	(%rbx,%rcx,8), %eax	# MEM[(uint64_t *)a1_test1.25_19 + ivtmp.498_987 * 8], tmp2002
	movq	-1368(%rbp), %r10	# %sfp, str
	addl	$48, %eax	#, tmp1492
	movb	%al, (%r10,%rcx)	# tmp1492, MEM[(char *)str_276 + ivtmp.498_987 * 1]
	.loc 1 822 29 is_stmt 1 view .LVU2674
	.loc 1 822 23 view .LVU2675
.LVL638:
	.loc 1 822 23 is_stmt 0 view .LVU2676
	addq	$1, %rcx	#, ivtmp.498
.LVL639:
.L595:
	.loc 1 824 9 is_stmt 1 view .LVU2677
# sub_64_aligned.c:824:         str[i] = digits[i] + '0';
	.loc 1 824 28 is_stmt 0 view .LVU2678
	movzbl	(%rbx,%rcx,8), %edx	# MEM[(uint64_t *)a1_test1.25_19 + ivtmp.498_987 * 8], tmp2004
	movq	-1368(%rbp), %r8	# %sfp, str
	addl	$48, %edx	#, tmp1494
	movb	%dl, (%r8,%rcx)	# tmp1494, MEM[(char *)str_276 + ivtmp.498_987 * 1]
	.loc 1 822 29 is_stmt 1 view .LVU2679
	.loc 1 822 23 view .LVU2680
.LVL640:
	.loc 1 822 23 is_stmt 0 view .LVU2681
	addq	$1, %rcx	#, ivtmp.498
.LVL641:
.L594:
	.loc 1 824 9 is_stmt 1 view .LVU2682
# sub_64_aligned.c:824:         str[i] = digits[i] + '0';
	.loc 1 824 28 is_stmt 0 view .LVU2683
	movzbl	(%rbx,%rcx,8), %r9d	# MEM[(uint64_t *)a1_test1.25_19 + ivtmp.498_987 * 8], tmp2006
	movq	-1368(%rbp), %rdi	# %sfp, str
	addl	$48, %r9d	#, tmp1496
	movb	%r9b, (%rdi,%rcx)	# tmp1496, MEM[(char *)str_276 + ivtmp.498_987 * 1]
	.loc 1 822 29 is_stmt 1 view .LVU2684
	.loc 1 822 23 view .LVU2685
.LVL642:
	.loc 1 822 23 is_stmt 0 view .LVU2686
	addq	$1, %rcx	#, ivtmp.498
.LVL643:
.L593:
	.loc 1 824 9 is_stmt 1 view .LVU2687
# sub_64_aligned.c:824:         str[i] = digits[i] + '0';
	.loc 1 824 28 is_stmt 0 view .LVU2688
	movzbl	(%rbx,%rcx,8), %eax	# MEM[(uint64_t *)a1_test1.25_19 + ivtmp.498_987 * 8], tmp2008
	movq	-1368(%rbp), %rdx	# %sfp, str
	addl	$48, %eax	#, tmp1498
	movq	%rdx, %r10	# str, str
	movb	%al, (%rdx,%rcx)	# tmp1498, MEM[(char *)str_276 + ivtmp.498_987 * 1]
	.loc 1 822 29 is_stmt 1 view .LVU2689
	.loc 1 822 23 view .LVU2690
.LVL644:
	.loc 1 822 23 is_stmt 0 view .LVU2691
	addq	$1, %rcx	#, ivtmp.498
.LVL645:
	.loc 1 822 23 view .LVU2692
	cmpq	%r11, %rcx	# _992, ivtmp.498
	je	.L305	#,
.LVL646:
.L304:
	.loc 1 824 9 is_stmt 1 view .LVU2693
# sub_64_aligned.c:824:         str[i] = digits[i] + '0';
	.loc 1 824 28 is_stmt 0 view .LVU2694
	movzbl	(%rbx,%rcx,8), %r8d	# MEM[(uint64_t *)a1_test1.25_19 + ivtmp.498_987 * 8], tmp1746
	addl	$48, %r8d	#, tmp799
	movb	%r8b, (%r10,%rcx)	# tmp799, MEM[(char *)str_276 + ivtmp.498_987 * 1]
	.loc 1 822 29 is_stmt 1 view .LVU2695
	.loc 1 822 23 view .LVU2696
	.loc 1 824 9 view .LVU2697
# sub_64_aligned.c:824:         str[i] = digits[i] + '0';
	.loc 1 824 28 is_stmt 0 view .LVU2698
	movzbl	8(%rbx,%rcx,8), %r9d	# MEM[(uint64_t *)a1_test1.25_19 + ivtmp.498_987 * 8], tmp1747
	addl	$48, %r9d	#, tmp1146
	movb	%r9b, 1(%r10,%rcx)	# tmp1146, MEM[(char *)str_276 + ivtmp.498_987 * 1]
	.loc 1 822 29 is_stmt 1 view .LVU2699
	.loc 1 822 23 view .LVU2700
	.loc 1 824 9 view .LVU2701
# sub_64_aligned.c:824:         str[i] = digits[i] + '0';
	.loc 1 824 28 is_stmt 0 view .LVU2702
	movzbl	16(%rbx,%rcx,8), %edi	# MEM[(uint64_t *)a1_test1.25_19 + ivtmp.498_987 * 8], tmp1748
	addl	$48, %edi	#, tmp1149
	movb	%dil, 2(%r10,%rcx)	# tmp1149, MEM[(char *)str_276 + ivtmp.498_987 * 1]
	.loc 1 822 29 is_stmt 1 view .LVU2703
	.loc 1 822 23 view .LVU2704
	.loc 1 824 9 view .LVU2705
# sub_64_aligned.c:824:         str[i] = digits[i] + '0';
	.loc 1 824 28 is_stmt 0 view .LVU2706
	movzbl	24(%rbx,%rcx,8), %eax	# MEM[(uint64_t *)a1_test1.25_19 + ivtmp.498_987 * 8], tmp1749
	addl	$48, %eax	#, tmp1152
	movb	%al, 3(%r10,%rcx)	# tmp1152, MEM[(char *)str_276 + ivtmp.498_987 * 1]
	.loc 1 822 29 is_stmt 1 view .LVU2707
	.loc 1 822 23 view .LVU2708
	.loc 1 824 9 view .LVU2709
# sub_64_aligned.c:824:         str[i] = digits[i] + '0';
	.loc 1 824 28 is_stmt 0 view .LVU2710
	movzbl	32(%rbx,%rcx,8), %edx	# MEM[(uint64_t *)a1_test1.25_19 + ivtmp.498_987 * 8], tmp1750
	addl	$48, %edx	#, tmp1155
	movb	%dl, 4(%r10,%rcx)	# tmp1155, MEM[(char *)str_276 + ivtmp.498_987 * 1]
	.loc 1 822 29 is_stmt 1 view .LVU2711
	.loc 1 822 23 view .LVU2712
	.loc 1 824 9 view .LVU2713
# sub_64_aligned.c:824:         str[i] = digits[i] + '0';
	.loc 1 824 28 is_stmt 0 view .LVU2714
	movzbl	40(%rbx,%rcx,8), %r8d	# MEM[(uint64_t *)a1_test1.25_19 + ivtmp.498_987 * 8], tmp1751
	addl	$48, %r8d	#, tmp1158
	movb	%r8b, 5(%r10,%rcx)	# tmp1158, MEM[(char *)str_276 + ivtmp.498_987 * 1]
	.loc 1 822 29 is_stmt 1 view .LVU2715
	.loc 1 822 23 view .LVU2716
	.loc 1 824 9 view .LVU2717
# sub_64_aligned.c:824:         str[i] = digits[i] + '0';
	.loc 1 824 28 is_stmt 0 view .LVU2718
	movzbl	48(%rbx,%rcx,8), %r9d	# MEM[(uint64_t *)a1_test1.25_19 + ivtmp.498_987 * 8], tmp1752
	addl	$48, %r9d	#, tmp1161
	movb	%r9b, 6(%r10,%rcx)	# tmp1161, MEM[(char *)str_276 + ivtmp.498_987 * 1]
	.loc 1 822 29 is_stmt 1 view .LVU2719
	.loc 1 822 23 view .LVU2720
	.loc 1 824 9 view .LVU2721
# sub_64_aligned.c:824:         str[i] = digits[i] + '0';
	.loc 1 824 28 is_stmt 0 view .LVU2722
	movzbl	56(%rbx,%rcx,8), %edi	# MEM[(uint64_t *)a1_test1.25_19 + ivtmp.498_987 * 8], tmp1753
	addl	$48, %edi	#, tmp1164
	movb	%dil, 7(%r10,%rcx)	# tmp1164, MEM[(char *)str_276 + ivtmp.498_987 * 1]
	.loc 1 822 29 is_stmt 1 view .LVU2723
	.loc 1 822 23 view .LVU2724
.LVL647:
	.loc 1 822 23 is_stmt 0 view .LVU2725
	addq	$8, %rcx	#, ivtmp.498
.LVL648:
	.loc 1 822 23 view .LVU2726
	cmpq	%r11, %rcx	# _992, ivtmp.498
	jne	.L304	#,
	jmp	.L305	#
.LVL649:
	.p2align 4,,10
	.p2align 3
.L786:
	.loc 1 822 23 view .LVU2727
.LBE603:
	.loc 1 826 5 is_stmt 1 view .LVU2728
# sub_64_aligned.c:826:     str[n] = '\0';
	.loc 1 826 12 is_stmt 0 view .LVU2729
	movb	$0, (%rsi)	#, *_440
	.loc 1 827 5 is_stmt 1 view .LVU2730
.LVL650:
	.loc 1 827 5 is_stmt 0 view .LVU2731
.LBE607:
.LBE731:
	.loc 1 922 9 is_stmt 1 view .LVU2732
.LBB732:
	.loc 1 814 7 view .LVU2733
.LBB617:
	.loc 1 816 5 view .LVU2734
# sub_64_aligned.c:816:     char *str = (char *)calloc(n + 1, sizeof(char));
	.loc 1 816 25 is_stmt 0 view .LVU2735
	movq	%r12, %rdi	# _275,
	movl	$1, %esi	#,
	call	calloc@PLT	#
.LVL651:
	.loc 1 816 25 view .LVU2736
	movq	%rax, -1352(%rbp)	# str, %sfp
.LVL652:
	.loc 1 817 5 is_stmt 1 view .LVU2737
# sub_64_aligned.c:817:     if (str == NULL)
	.loc 1 817 8 is_stmt 0 view .LVU2738
	testq	%rax, %rax	# str
	jne	.L354	#,
.LVL653:
.L298:
	.loc 1 817 8 view .LVU2739
.LBE617:
.LBE732:
.LBB733:
.LBB608:
.LBB604:
.LBI604:
	.loc 1 814 7 is_stmt 1 view .LVU2740
.LBB605:
	.loc 1 819 9 view .LVU2741
	leaq	.LC23(%rip), %rdi	#, tmp715
	call	perror@PLT	#
.LVL654:
	.loc 1 820 9 view .LVU2742
	xorl	%edi, %edi	#
	call	exit@PLT	#
.LVL655:
	.p2align 4,,10
	.p2align 3
.L787:
	.loc 1 820 9 is_stmt 0 view .LVU2743
	testq	%r9, %r9	# tmp1086
	je	.L313	#,
	cmpq	$1, %r9	#, tmp1086
	je	.L644	#,
	cmpq	$2, %r9	#, tmp1086
	je	.L645	#,
	cmpq	$3, %r9	#, tmp1086
	je	.L646	#,
	cmpq	$4, %r9	#, tmp1086
	je	.L647	#,
	cmpq	$5, %r9	#, tmp1086
	je	.L648	#,
	cmpq	$6, %r9	#, tmp1086
	je	.L649	#,
.LVL656:
	.loc 1 820 9 view .LVU2744
.LBE605:
.LBE604:
.LBE608:
.LBE733:
.LBB734:
.LBB664:
.LBB659:
.LBB638:
	.loc 1 157 5 is_stmt 1 view .LVU2745
	.loc 1 159 9 view .LVU2746
# sub_64_aligned.c:159:         if (*(a + i) < *(b + i))
	.loc 1 159 12 is_stmt 0 view .LVU2747
	movq	8(%r13), %r8	# MEM[(uint64_t *)b1_limbs_83 + ivtmp.470_486 * 8], tmp1955
.LVL657:
	.loc 1 159 12 view .LVU2748
	cmpq	%r8, 8(%r12)	# tmp1955, MEM[(uint64_t *)a1_limbs_81 + ivtmp.470_486 * 8]
	jb	.L357	#,
	.loc 1 163 14 is_stmt 1 view .LVU2749
# sub_64_aligned.c:163:         else if (*(a + i) > *(b + i))
	.loc 1 163 17 is_stmt 0 view .LVU2750
	ja	.L358	#,
	.loc 1 167 9 is_stmt 1 view .LVU2751
.LVL658:
	.loc 1 168 14 view .LVU2752
	addq	$1, %rcx	#, ivtmp.470
.LVL659:
.L649:
	.loc 1 157 5 view .LVU2753
	.loc 1 159 9 view .LVU2754
# sub_64_aligned.c:159:         if (*(a + i) < *(b + i))
	.loc 1 159 12 is_stmt 0 view .LVU2755
	movq	0(%r13,%rcx,8), %rsi	# MEM[(uint64_t *)b1_limbs_83 + ivtmp.470_486 * 8], tmp1956
	cmpq	%rsi, (%r12,%rcx,8)	# tmp1956, MEM[(uint64_t *)a1_limbs_81 + ivtmp.470_486 * 8]
	jb	.L357	#,
	.loc 1 163 14 is_stmt 1 view .LVU2756
# sub_64_aligned.c:163:         else if (*(a + i) > *(b + i))
	.loc 1 163 17 is_stmt 0 view .LVU2757
	ja	.L358	#,
	.loc 1 167 9 is_stmt 1 view .LVU2758
.LVL660:
	.loc 1 168 14 view .LVU2759
	addq	$1, %rcx	#, ivtmp.470
.LVL661:
.L648:
	.loc 1 157 5 view .LVU2760
	.loc 1 159 9 view .LVU2761
# sub_64_aligned.c:159:         if (*(a + i) < *(b + i))
	.loc 1 159 12 is_stmt 0 view .LVU2762
	movq	0(%r13,%rcx,8), %rdi	# MEM[(uint64_t *)b1_limbs_83 + ivtmp.470_486 * 8], tmp1957
	cmpq	%rdi, (%r12,%rcx,8)	# tmp1957, MEM[(uint64_t *)a1_limbs_81 + ivtmp.470_486 * 8]
	jb	.L357	#,
	.loc 1 163 14 is_stmt 1 view .LVU2763
# sub_64_aligned.c:163:         else if (*(a + i) > *(b + i))
	.loc 1 163 17 is_stmt 0 view .LVU2764
	ja	.L358	#,
	.loc 1 167 9 is_stmt 1 view .LVU2765
.LVL662:
	.loc 1 168 14 view .LVU2766
	addq	$1, %rcx	#, ivtmp.470
.LVL663:
.L647:
	.loc 1 157 5 view .LVU2767
	.loc 1 159 9 view .LVU2768
# sub_64_aligned.c:159:         if (*(a + i) < *(b + i))
	.loc 1 159 12 is_stmt 0 view .LVU2769
	movq	0(%r13,%rcx,8), %rax	# MEM[(uint64_t *)b1_limbs_83 + ivtmp.470_486 * 8], tmp1958
	cmpq	%rax, (%r12,%rcx,8)	# tmp1958, MEM[(uint64_t *)a1_limbs_81 + ivtmp.470_486 * 8]
	jb	.L357	#,
	.loc 1 163 14 is_stmt 1 view .LVU2770
# sub_64_aligned.c:163:         else if (*(a + i) > *(b + i))
	.loc 1 163 17 is_stmt 0 view .LVU2771
	ja	.L358	#,
	.loc 1 167 9 is_stmt 1 view .LVU2772
.LVL664:
	.loc 1 168 14 view .LVU2773
	addq	$1, %rcx	#, ivtmp.470
.LVL665:
.L646:
	.loc 1 157 5 view .LVU2774
	.loc 1 159 9 view .LVU2775
# sub_64_aligned.c:159:         if (*(a + i) < *(b + i))
	.loc 1 159 12 is_stmt 0 view .LVU2776
	movq	0(%r13,%rcx,8), %r9	# MEM[(uint64_t *)b1_limbs_83 + ivtmp.470_486 * 8], tmp1959
	cmpq	%r9, (%r12,%rcx,8)	# tmp1959, MEM[(uint64_t *)a1_limbs_81 + ivtmp.470_486 * 8]
	jb	.L357	#,
	.loc 1 163 14 is_stmt 1 view .LVU2777
# sub_64_aligned.c:163:         else if (*(a + i) > *(b + i))
	.loc 1 163 17 is_stmt 0 view .LVU2778
	ja	.L358	#,
	.loc 1 167 9 is_stmt 1 view .LVU2779
.LVL666:
	.loc 1 168 14 view .LVU2780
	addq	$1, %rcx	#, ivtmp.470
.LVL667:
.L645:
	.loc 1 157 5 view .LVU2781
	.loc 1 159 9 view .LVU2782
# sub_64_aligned.c:159:         if (*(a + i) < *(b + i))
	.loc 1 159 12 is_stmt 0 view .LVU2783
	movq	0(%r13,%rcx,8), %r8	# MEM[(uint64_t *)b1_limbs_83 + ivtmp.470_486 * 8], tmp1960
	cmpq	%r8, (%r12,%rcx,8)	# tmp1960, MEM[(uint64_t *)a1_limbs_81 + ivtmp.470_486 * 8]
	jb	.L357	#,
	.loc 1 163 14 is_stmt 1 view .LVU2784
# sub_64_aligned.c:163:         else if (*(a + i) > *(b + i))
	.loc 1 163 17 is_stmt 0 view .LVU2785
	ja	.L358	#,
	.loc 1 167 9 is_stmt 1 view .LVU2786
.LVL668:
	.loc 1 168 14 view .LVU2787
	addq	$1, %rcx	#, ivtmp.470
.LVL669:
.L644:
	.loc 1 157 5 view .LVU2788
	.loc 1 159 9 view .LVU2789
# sub_64_aligned.c:159:         if (*(a + i) < *(b + i))
	.loc 1 159 12 is_stmt 0 view .LVU2790
	movq	0(%r13,%rcx,8), %rsi	# MEM[(uint64_t *)b1_limbs_83 + ivtmp.470_486 * 8], tmp1961
	cmpq	%rsi, (%r12,%rcx,8)	# tmp1961, MEM[(uint64_t *)a1_limbs_81 + ivtmp.470_486 * 8]
	jb	.L357	#,
	.loc 1 163 14 is_stmt 1 view .LVU2791
# sub_64_aligned.c:163:         else if (*(a + i) > *(b + i))
	.loc 1 163 17 is_stmt 0 view .LVU2792
	ja	.L358	#,
	.loc 1 167 9 is_stmt 1 view .LVU2793
.LVL670:
	.loc 1 168 14 view .LVU2794
	addq	$1, %rcx	#, ivtmp.470
	cmpq	%rcx, %rdx	# ivtmp.470, _134
	jbe	.L742	#,
.LVL671:
.L313:
	.loc 1 157 5 view .LVU2795
	.loc 1 159 9 view .LVU2796
# sub_64_aligned.c:159:         if (*(a + i) < *(b + i))
	.loc 1 159 12 is_stmt 0 view .LVU2797
	movq	0(%r13,%rcx,8), %rdi	# MEM[(uint64_t *)b1_limbs_83 + ivtmp.470_486 * 8], tmp1842
	cmpq	%rdi, (%r12,%rcx,8)	# tmp1842, MEM[(uint64_t *)a1_limbs_81 + ivtmp.470_486 * 8]
	jb	.L357	#,
	.loc 1 163 14 is_stmt 1 view .LVU2798
# sub_64_aligned.c:163:         else if (*(a + i) > *(b + i))
	.loc 1 163 17 is_stmt 0 view .LVU2799
	ja	.L358	#,
	.loc 1 167 9 is_stmt 1 view .LVU2800
.LVL672:
	.loc 1 168 14 view .LVU2801
# sub_64_aligned.c:159:         if (*(a + i) < *(b + i))
	.loc 1 159 12 is_stmt 0 view .LVU2802
	movq	8(%r13,%rcx,8), %r9	# MEM[(uint64_t *)b1_limbs_83 + ivtmp.470_486 * 8], tmp1843
# sub_64_aligned.c:168:     } while (unlikely(i < n));
	.loc 1 168 14 view .LVU2803
	leaq	1(%rcx), %rax	#, tmp1087
.LVL673:
	.loc 1 157 5 is_stmt 1 view .LVU2804
	.loc 1 159 9 view .LVU2805
# sub_64_aligned.c:159:         if (*(a + i) < *(b + i))
	.loc 1 159 12 is_stmt 0 view .LVU2806
	cmpq	%r9, 8(%r12,%rcx,8)	# tmp1843, MEM[(uint64_t *)a1_limbs_81 + ivtmp.470_486 * 8]
	jb	.L357	#,
	.loc 1 163 14 is_stmt 1 view .LVU2807
# sub_64_aligned.c:163:         else if (*(a + i) > *(b + i))
	.loc 1 163 17 is_stmt 0 view .LVU2808
	ja	.L358	#,
	.loc 1 167 9 is_stmt 1 view .LVU2809
.LVL674:
	.loc 1 168 14 view .LVU2810
	.loc 1 157 5 view .LVU2811
	.loc 1 159 9 view .LVU2812
# sub_64_aligned.c:159:         if (*(a + i) < *(b + i))
	.loc 1 159 12 is_stmt 0 view .LVU2813
	movq	16(%r13,%rcx,8), %r8	# MEM[(uint64_t *)b1_limbs_83 + ivtmp.470_486 * 8], tmp1962
	cmpq	%r8, 16(%r12,%rcx,8)	# tmp1962, MEM[(uint64_t *)a1_limbs_81 + ivtmp.470_486 * 8]
	jb	.L357	#,
	.loc 1 163 14 is_stmt 1 view .LVU2814
# sub_64_aligned.c:163:         else if (*(a + i) > *(b + i))
	.loc 1 163 17 is_stmt 0 view .LVU2815
	ja	.L358	#,
	.loc 1 167 9 is_stmt 1 view .LVU2816
.LVL675:
	.loc 1 168 14 view .LVU2817
	.loc 1 157 5 view .LVU2818
	.loc 1 159 9 view .LVU2819
# sub_64_aligned.c:159:         if (*(a + i) < *(b + i))
	.loc 1 159 12 is_stmt 0 view .LVU2820
	movq	24(%r13,%rcx,8), %rsi	# MEM[(uint64_t *)b1_limbs_83 + ivtmp.470_486 * 8], tmp1963
	cmpq	%rsi, 24(%r12,%rcx,8)	# tmp1963, MEM[(uint64_t *)a1_limbs_81 + ivtmp.470_486 * 8]
	jb	.L357	#,
	.loc 1 163 14 is_stmt 1 view .LVU2821
# sub_64_aligned.c:163:         else if (*(a + i) > *(b + i))
	.loc 1 163 17 is_stmt 0 view .LVU2822
	ja	.L358	#,
	.loc 1 167 9 is_stmt 1 view .LVU2823
.LVL676:
	.loc 1 168 14 view .LVU2824
	.loc 1 157 5 view .LVU2825
	.loc 1 159 9 view .LVU2826
# sub_64_aligned.c:159:         if (*(a + i) < *(b + i))
	.loc 1 159 12 is_stmt 0 view .LVU2827
	movq	32(%r13,%rcx,8), %rdi	# MEM[(uint64_t *)b1_limbs_83 + ivtmp.470_486 * 8], tmp1964
	cmpq	%rdi, 32(%r12,%rcx,8)	# tmp1964, MEM[(uint64_t *)a1_limbs_81 + ivtmp.470_486 * 8]
	jb	.L357	#,
	.loc 1 163 14 is_stmt 1 view .LVU2828
# sub_64_aligned.c:163:         else if (*(a + i) > *(b + i))
	.loc 1 163 17 is_stmt 0 view .LVU2829
	ja	.L358	#,
	.loc 1 167 9 is_stmt 1 view .LVU2830
.LVL677:
	.loc 1 168 14 view .LVU2831
	.loc 1 157 5 view .LVU2832
	.loc 1 159 9 view .LVU2833
# sub_64_aligned.c:159:         if (*(a + i) < *(b + i))
	.loc 1 159 12 is_stmt 0 view .LVU2834
	movq	32(%r13,%rax,8), %rcx	# MEM[(uint64_t *)b1_limbs_83 + ivtmp.470_486 * 8], tmp1965
	cmpq	%rcx, 32(%r12,%rax,8)	# tmp1965, MEM[(uint64_t *)a1_limbs_81 + ivtmp.470_486 * 8]
	jb	.L357	#,
	.loc 1 163 14 is_stmt 1 view .LVU2835
# sub_64_aligned.c:163:         else if (*(a + i) > *(b + i))
	.loc 1 163 17 is_stmt 0 view .LVU2836
	ja	.L358	#,
	.loc 1 167 9 is_stmt 1 view .LVU2837
.LVL678:
	.loc 1 168 14 view .LVU2838
	.loc 1 157 5 view .LVU2839
	.loc 1 159 9 view .LVU2840
# sub_64_aligned.c:159:         if (*(a + i) < *(b + i))
	.loc 1 159 12 is_stmt 0 view .LVU2841
	movq	40(%r13,%rax,8), %r9	# MEM[(uint64_t *)b1_limbs_83 + ivtmp.470_486 * 8], tmp1966
	cmpq	%r9, 40(%r12,%rax,8)	# tmp1966, MEM[(uint64_t *)a1_limbs_81 + ivtmp.470_486 * 8]
	jb	.L357	#,
	.loc 1 163 14 is_stmt 1 view .LVU2842
# sub_64_aligned.c:163:         else if (*(a + i) > *(b + i))
	.loc 1 163 17 is_stmt 0 view .LVU2843
	ja	.L358	#,
	.loc 1 167 9 is_stmt 1 view .LVU2844
.LVL679:
	.loc 1 168 14 view .LVU2845
	.loc 1 157 5 view .LVU2846
	.loc 1 159 9 view .LVU2847
# sub_64_aligned.c:159:         if (*(a + i) < *(b + i))
	.loc 1 159 12 is_stmt 0 view .LVU2848
	movq	48(%r13,%rax,8), %r8	# MEM[(uint64_t *)b1_limbs_83 + ivtmp.470_486 * 8], tmp1967
	cmpq	%r8, 48(%r12,%rax,8)	# tmp1967, MEM[(uint64_t *)a1_limbs_81 + ivtmp.470_486 * 8]
	jb	.L357	#,
	.loc 1 163 14 is_stmt 1 view .LVU2849
# sub_64_aligned.c:163:         else if (*(a + i) > *(b + i))
	.loc 1 163 17 is_stmt 0 view .LVU2850
	ja	.L358	#,
	.loc 1 167 9 is_stmt 1 view .LVU2851
.LVL680:
	.loc 1 168 14 view .LVU2852
	leaq	7(%rax), %rcx	#, ivtmp.470
	cmpq	%rcx, %rdx	# ivtmp.470, _134
	jbe	.L742	#,
	jmp	.L313	#
.LVL681:
	.p2align 4,,10
	.p2align 3
.L357:
	.loc 1 168 14 is_stmt 0 view .LVU2853
	movq	%r12, %rax	# a1_limbs, b
# sub_64_aligned.c:161:             return true;
	.loc 1 161 20 view .LVU2854
	movb	$1, -1433(%rbp)	#, %sfp
	movq	%r13, %r12	# b1_limbs, a
.LVL682:
	.loc 1 161 20 view .LVU2855
	jmp	.L312	#
.LVL683:
.L358:
# sub_64_aligned.c:165:             return false;
	.loc 1 165 20 view .LVU2856
	movb	$0, -1433(%rbp)	#, %sfp
	movq	%r13, %rax	# b1_limbs, b
	jmp	.L312	#
.LVL684:
.L360:
	.loc 1 165 20 view .LVU2857
	leal	-1(%r14), %r12d	#, tmp1063
.LBE638:
.LBE659:
# sub_64_aligned.c:236:         result[i] = result[i] - borrow_array[i];
	.loc 1 236 31 view .LVU2858
	movq	(%rcx), %r11	# MEM[(uint64_t *)borrow_array_152 + ivtmp.434_791 * 8], MEM[(uint64_t *)borrow_array_152 + ivtmp.434_791 * 8]
# sub_64_aligned.c:234:     for (i = 0; i < n; i++)
	.loc 1 234 19 view .LVU2859
	movl	$1, %r9d	#, ivtmp.434
# sub_64_aligned.c:236:         result[i] = result[i] - borrow_array[i];
	.loc 1 236 31 view .LVU2860
	subq	%r11, (%rbx)	# MEM[(uint64_t *)borrow_array_152 + ivtmp.434_791 * 8], MEM[(uint64_t *)result_133 + ivtmp.434_791 * 8]
	andl	$7, %r12d	#, tmp1065
	.loc 1 236 9 is_stmt 1 view .LVU2861
	.loc 1 237 9 view .LVU2862
	.loc 1 244 13 view .LVU2863
# sub_64_aligned.c:244:             borrow_array[i] = 0;
	.loc 1 244 29 is_stmt 0 view .LVU2864
	movq	$0, (%rcx)	#, MEM[(uint64_t *)borrow_array_152 + ivtmp.434_791 * 8]
	.loc 1 234 25 is_stmt 1 view .LVU2865
.LVL685:
	.loc 1 234 19 view .LVU2866
	cmpl	$1, %r14d	#, prephitmp_382
	jle	.L329	#,
	testl	%r12d, %r12d	# tmp1065
	je	.L326	#,
	cmpl	$1, %r12d	#, tmp1065
	je	.L637	#,
	cmpl	$2, %r12d	#, tmp1065
	je	.L638	#,
	cmpl	$3, %r12d	#, tmp1065
	je	.L639	#,
	cmpl	$4, %r12d	#, tmp1065
	je	.L640	#,
	cmpl	$5, %r12d	#, tmp1065
	je	.L641	#,
	cmpl	$6, %r12d	#, tmp1065
	je	.L642	#,
.LVL686:
	.loc 1 236 9 view .LVU2867
# sub_64_aligned.c:236:         result[i] = result[i] - borrow_array[i];
	.loc 1 236 31 is_stmt 0 view .LVU2868
	movq	8(%rcx), %rax	# MEM[(uint64_t *)borrow_array_152 + ivtmp.434_791 * 8], MEM[(uint64_t *)borrow_array_152 + ivtmp.434_791 * 8]
	subq	%rax, 8(%rbx)	# MEM[(uint64_t *)borrow_array_152 + ivtmp.434_791 * 8], MEM[(uint64_t *)result_133 + ivtmp.434_791 * 8]
	.loc 1 237 9 is_stmt 1 view .LVU2869
	.loc 1 244 13 view .LVU2870
# sub_64_aligned.c:234:     for (i = 0; i < n; i++)
	.loc 1 234 19 is_stmt 0 view .LVU2871
	movl	$2, %r9d	#, ivtmp.434
# sub_64_aligned.c:244:             borrow_array[i] = 0;
	.loc 1 244 29 view .LVU2872
	movq	$0, 8(%rcx)	#, MEM[(uint64_t *)borrow_array_152 + ivtmp.434_791 * 8]
	.loc 1 234 25 is_stmt 1 view .LVU2873
.LVL687:
	.loc 1 234 19 view .LVU2874
.L642:
	.loc 1 236 9 view .LVU2875
# sub_64_aligned.c:236:         result[i] = result[i] - borrow_array[i];
	.loc 1 236 31 is_stmt 0 view .LVU2876
	movq	(%rcx,%r9,8), %rdi	# MEM[(uint64_t *)borrow_array_152 + ivtmp.434_791 * 8], MEM[(uint64_t *)borrow_array_152 + ivtmp.434_791 * 8]
	subq	%rdi, (%rbx,%r9,8)	# MEM[(uint64_t *)borrow_array_152 + ivtmp.434_791 * 8], MEM[(uint64_t *)result_133 + ivtmp.434_791 * 8]
	.loc 1 237 9 is_stmt 1 view .LVU2877
	.loc 1 244 13 view .LVU2878
# sub_64_aligned.c:244:             borrow_array[i] = 0;
	.loc 1 244 29 is_stmt 0 view .LVU2879
	movq	$0, (%rcx,%r9,8)	#, MEM[(uint64_t *)borrow_array_152 + ivtmp.434_791 * 8]
	.loc 1 234 25 is_stmt 1 view .LVU2880
.LVL688:
	.loc 1 234 19 view .LVU2881
	addq	$1, %r9	#, ivtmp.434
.LVL689:
.L641:
	.loc 1 236 9 view .LVU2882
# sub_64_aligned.c:236:         result[i] = result[i] - borrow_array[i];
	.loc 1 236 31 is_stmt 0 view .LVU2883
	movq	(%rcx,%r9,8), %rsi	# MEM[(uint64_t *)borrow_array_152 + ivtmp.434_791 * 8], MEM[(uint64_t *)borrow_array_152 + ivtmp.434_791 * 8]
	subq	%rsi, (%rbx,%r9,8)	# MEM[(uint64_t *)borrow_array_152 + ivtmp.434_791 * 8], MEM[(uint64_t *)result_133 + ivtmp.434_791 * 8]
	.loc 1 237 9 is_stmt 1 view .LVU2884
	.loc 1 244 13 view .LVU2885
# sub_64_aligned.c:244:             borrow_array[i] = 0;
	.loc 1 244 29 is_stmt 0 view .LVU2886
	movq	$0, (%rcx,%r9,8)	#, MEM[(uint64_t *)borrow_array_152 + ivtmp.434_791 * 8]
	.loc 1 234 25 is_stmt 1 view .LVU2887
.LVL690:
	.loc 1 234 19 view .LVU2888
	addq	$1, %r9	#, ivtmp.434
.LVL691:
.L640:
	.loc 1 236 9 view .LVU2889
# sub_64_aligned.c:236:         result[i] = result[i] - borrow_array[i];
	.loc 1 236 31 is_stmt 0 view .LVU2890
	movq	(%rcx,%r9,8), %r8	# MEM[(uint64_t *)borrow_array_152 + ivtmp.434_791 * 8], MEM[(uint64_t *)borrow_array_152 + ivtmp.434_791 * 8]
	subq	%r8, (%rbx,%r9,8)	# MEM[(uint64_t *)borrow_array_152 + ivtmp.434_791 * 8], MEM[(uint64_t *)result_133 + ivtmp.434_791 * 8]
	.loc 1 237 9 is_stmt 1 view .LVU2891
	.loc 1 244 13 view .LVU2892
# sub_64_aligned.c:244:             borrow_array[i] = 0;
	.loc 1 244 29 is_stmt 0 view .LVU2893
	movq	$0, (%rcx,%r9,8)	#, MEM[(uint64_t *)borrow_array_152 + ivtmp.434_791 * 8]
	.loc 1 234 25 is_stmt 1 view .LVU2894
.LVL692:
	.loc 1 234 19 view .LVU2895
	addq	$1, %r9	#, ivtmp.434
.LVL693:
.L639:
	.loc 1 236 9 view .LVU2896
# sub_64_aligned.c:236:         result[i] = result[i] - borrow_array[i];
	.loc 1 236 31 is_stmt 0 view .LVU2897
	movq	(%rcx,%r9,8), %rdx	# MEM[(uint64_t *)borrow_array_152 + ivtmp.434_791 * 8], MEM[(uint64_t *)borrow_array_152 + ivtmp.434_791 * 8]
	subq	%rdx, (%rbx,%r9,8)	# MEM[(uint64_t *)borrow_array_152 + ivtmp.434_791 * 8], MEM[(uint64_t *)result_133 + ivtmp.434_791 * 8]
	.loc 1 237 9 is_stmt 1 view .LVU2898
	.loc 1 244 13 view .LVU2899
# sub_64_aligned.c:244:             borrow_array[i] = 0;
	.loc 1 244 29 is_stmt 0 view .LVU2900
	movq	$0, (%rcx,%r9,8)	#, MEM[(uint64_t *)borrow_array_152 + ivtmp.434_791 * 8]
	.loc 1 234 25 is_stmt 1 view .LVU2901
.LVL694:
	.loc 1 234 19 view .LVU2902
	addq	$1, %r9	#, ivtmp.434
.LVL695:
.L638:
	.loc 1 236 9 view .LVU2903
# sub_64_aligned.c:236:         result[i] = result[i] - borrow_array[i];
	.loc 1 236 31 is_stmt 0 view .LVU2904
	movq	(%rcx,%r9,8), %r10	# MEM[(uint64_t *)borrow_array_152 + ivtmp.434_791 * 8], MEM[(uint64_t *)borrow_array_152 + ivtmp.434_791 * 8]
	subq	%r10, (%rbx,%r9,8)	# MEM[(uint64_t *)borrow_array_152 + ivtmp.434_791 * 8], MEM[(uint64_t *)result_133 + ivtmp.434_791 * 8]
	.loc 1 237 9 is_stmt 1 view .LVU2905
	.loc 1 244 13 view .LVU2906
# sub_64_aligned.c:244:             borrow_array[i] = 0;
	.loc 1 244 29 is_stmt 0 view .LVU2907
	movq	$0, (%rcx,%r9,8)	#, MEM[(uint64_t *)borrow_array_152 + ivtmp.434_791 * 8]
	.loc 1 234 25 is_stmt 1 view .LVU2908
.LVL696:
	.loc 1 234 19 view .LVU2909
	addq	$1, %r9	#, ivtmp.434
.LVL697:
.L637:
	.loc 1 236 9 view .LVU2910
# sub_64_aligned.c:236:         result[i] = result[i] - borrow_array[i];
	.loc 1 236 31 is_stmt 0 view .LVU2911
	movq	(%rcx,%r9,8), %r13	# MEM[(uint64_t *)borrow_array_152 + ivtmp.434_791 * 8], MEM[(uint64_t *)borrow_array_152 + ivtmp.434_791 * 8]
	subq	%r13, (%rbx,%r9,8)	# MEM[(uint64_t *)borrow_array_152 + ivtmp.434_791 * 8], MEM[(uint64_t *)result_133 + ivtmp.434_791 * 8]
	.loc 1 237 9 is_stmt 1 view .LVU2912
	.loc 1 244 13 view .LVU2913
# sub_64_aligned.c:244:             borrow_array[i] = 0;
	.loc 1 244 29 is_stmt 0 view .LVU2914
	movq	$0, (%rcx,%r9,8)	#, MEM[(uint64_t *)borrow_array_152 + ivtmp.434_791 * 8]
	.loc 1 234 25 is_stmt 1 view .LVU2915
.LVL698:
	.loc 1 234 19 view .LVU2916
	addq	$1, %r9	#, ivtmp.434
	cmpl	%r9d, %r14d	# ivtmp.434, prephitmp_382
	jle	.L329	#,
.LVL699:
	.p2align 4,,10
	.p2align 3
.L326:
	.loc 1 236 9 view .LVU2917
# sub_64_aligned.c:234:     for (i = 0; i < n; i++)
	.loc 1 234 19 is_stmt 0 view .LVU2918
	leaq	1(%r9), %r11	#, tmp1066
	leaq	2(%r9), %rdi	#, ivtmp.434
# sub_64_aligned.c:236:         result[i] = result[i] - borrow_array[i];
	.loc 1 236 31 view .LVU2919
	movq	(%rcx,%r9,8), %r12	# MEM[(uint64_t *)borrow_array_152 + ivtmp.434_791 * 8], MEM[(uint64_t *)borrow_array_152 + ivtmp.434_791 * 8]
	subq	%r12, (%rbx,%r9,8)	# MEM[(uint64_t *)borrow_array_152 + ivtmp.434_791 * 8], MEM[(uint64_t *)result_133 + ivtmp.434_791 * 8]
	.loc 1 237 9 is_stmt 1 view .LVU2920
	.loc 1 244 13 view .LVU2921
# sub_64_aligned.c:234:     for (i = 0; i < n; i++)
	.loc 1 234 19 is_stmt 0 view .LVU2922
	leaq	3(%r9), %r8	#, ivtmp.434
# sub_64_aligned.c:244:             borrow_array[i] = 0;
	.loc 1 244 29 view .LVU2923
	movq	$0, (%rcx,%r9,8)	#, MEM[(uint64_t *)borrow_array_152 + ivtmp.434_791 * 8]
	.loc 1 234 25 is_stmt 1 view .LVU2924
.LVL700:
	.loc 1 234 19 view .LVU2925
	.loc 1 236 9 view .LVU2926
# sub_64_aligned.c:234:     for (i = 0; i < n; i++)
	.loc 1 234 19 is_stmt 0 view .LVU2927
	leaq	4(%r9), %r10	#, ivtmp.434
# sub_64_aligned.c:236:         result[i] = result[i] - borrow_array[i];
	.loc 1 236 31 view .LVU2928
	movq	(%rcx,%r11,8), %rax	# MEM[(uint64_t *)borrow_array_152 + ivtmp.434_791 * 8], MEM[(uint64_t *)borrow_array_152 + ivtmp.434_791 * 8]
# sub_64_aligned.c:234:     for (i = 0; i < n; i++)
	.loc 1 234 19 view .LVU2929
	leaq	5(%r9), %r12	#, ivtmp.434
# sub_64_aligned.c:236:         result[i] = result[i] - borrow_array[i];
	.loc 1 236 31 view .LVU2930
	subq	%rax, (%rbx,%r11,8)	# MEM[(uint64_t *)borrow_array_152 + ivtmp.434_791 * 8], MEM[(uint64_t *)result_133 + ivtmp.434_791 * 8]
	.loc 1 237 9 is_stmt 1 view .LVU2931
	.loc 1 244 13 view .LVU2932
# sub_64_aligned.c:234:     for (i = 0; i < n; i++)
	.loc 1 234 19 is_stmt 0 view .LVU2933
	leaq	6(%r9), %rax	#, ivtmp.434
# sub_64_aligned.c:244:             borrow_array[i] = 0;
	.loc 1 244 29 view .LVU2934
	movq	$0, (%rcx,%r11,8)	#, MEM[(uint64_t *)borrow_array_152 + ivtmp.434_791 * 8]
	.loc 1 234 25 is_stmt 1 view .LVU2935
.LVL701:
	.loc 1 234 19 view .LVU2936
	.loc 1 236 9 view .LVU2937
# sub_64_aligned.c:236:         result[i] = result[i] - borrow_array[i];
	.loc 1 236 31 is_stmt 0 view .LVU2938
	movq	(%rcx,%rdi,8), %rsi	# MEM[(uint64_t *)borrow_array_152 + ivtmp.434_791 * 8], MEM[(uint64_t *)borrow_array_152 + ivtmp.434_791 * 8]
	subq	%rsi, (%rbx,%rdi,8)	# MEM[(uint64_t *)borrow_array_152 + ivtmp.434_791 * 8], MEM[(uint64_t *)result_133 + ivtmp.434_791 * 8]
	.loc 1 237 9 is_stmt 1 view .LVU2939
	.loc 1 244 13 view .LVU2940
# sub_64_aligned.c:244:             borrow_array[i] = 0;
	.loc 1 244 29 is_stmt 0 view .LVU2941
	movq	$0, (%rcx,%rdi,8)	#, MEM[(uint64_t *)borrow_array_152 + ivtmp.434_791 * 8]
	.loc 1 234 25 is_stmt 1 view .LVU2942
.LVL702:
	.loc 1 234 19 view .LVU2943
	.loc 1 236 9 view .LVU2944
# sub_64_aligned.c:236:         result[i] = result[i] - borrow_array[i];
	.loc 1 236 31 is_stmt 0 view .LVU2945
	movq	(%rcx,%r8,8), %rdx	# MEM[(uint64_t *)borrow_array_152 + ivtmp.434_791 * 8], MEM[(uint64_t *)borrow_array_152 + ivtmp.434_791 * 8]
	subq	%rdx, (%rbx,%r8,8)	# MEM[(uint64_t *)borrow_array_152 + ivtmp.434_791 * 8], MEM[(uint64_t *)result_133 + ivtmp.434_791 * 8]
	.loc 1 237 9 is_stmt 1 view .LVU2946
	.loc 1 244 13 view .LVU2947
# sub_64_aligned.c:244:             borrow_array[i] = 0;
	.loc 1 244 29 is_stmt 0 view .LVU2948
	movq	$0, (%rcx,%r8,8)	#, MEM[(uint64_t *)borrow_array_152 + ivtmp.434_791 * 8]
	.loc 1 234 25 is_stmt 1 view .LVU2949
.LVL703:
	.loc 1 234 19 view .LVU2950
	.loc 1 236 9 view .LVU2951
# sub_64_aligned.c:234:     for (i = 0; i < n; i++)
	.loc 1 234 19 is_stmt 0 view .LVU2952
	leaq	7(%r9), %r8	#, ivtmp.434
	addq	$8, %r9	#, ivtmp.434
# sub_64_aligned.c:236:         result[i] = result[i] - borrow_array[i];
	.loc 1 236 31 view .LVU2953
	movq	(%rcx,%r10,8), %r13	# MEM[(uint64_t *)borrow_array_152 + ivtmp.434_791 * 8], MEM[(uint64_t *)borrow_array_152 + ivtmp.434_791 * 8]
	subq	%r13, (%rbx,%r10,8)	# MEM[(uint64_t *)borrow_array_152 + ivtmp.434_791 * 8], MEM[(uint64_t *)result_133 + ivtmp.434_791 * 8]
	.loc 1 237 9 is_stmt 1 view .LVU2954
	.loc 1 244 13 view .LVU2955
# sub_64_aligned.c:244:             borrow_array[i] = 0;
	.loc 1 244 29 is_stmt 0 view .LVU2956
	movq	$0, (%rcx,%r10,8)	#, MEM[(uint64_t *)borrow_array_152 + ivtmp.434_791 * 8]
	.loc 1 234 25 is_stmt 1 view .LVU2957
.LVL704:
	.loc 1 234 19 view .LVU2958
	.loc 1 236 9 view .LVU2959
# sub_64_aligned.c:236:         result[i] = result[i] - borrow_array[i];
	.loc 1 236 31 is_stmt 0 view .LVU2960
	movq	(%rcx,%r12,8), %r11	# MEM[(uint64_t *)borrow_array_152 + ivtmp.434_791 * 8], MEM[(uint64_t *)borrow_array_152 + ivtmp.434_791 * 8]
	subq	%r11, (%rbx,%r12,8)	# MEM[(uint64_t *)borrow_array_152 + ivtmp.434_791 * 8], MEM[(uint64_t *)result_133 + ivtmp.434_791 * 8]
	.loc 1 237 9 is_stmt 1 view .LVU2961
	.loc 1 244 13 view .LVU2962
# sub_64_aligned.c:244:             borrow_array[i] = 0;
	.loc 1 244 29 is_stmt 0 view .LVU2963
	movq	$0, (%rcx,%r12,8)	#, MEM[(uint64_t *)borrow_array_152 + ivtmp.434_791 * 8]
	.loc 1 234 25 is_stmt 1 view .LVU2964
.LVL705:
	.loc 1 234 19 view .LVU2965
	.loc 1 236 9 view .LVU2966
# sub_64_aligned.c:236:         result[i] = result[i] - borrow_array[i];
	.loc 1 236 31 is_stmt 0 view .LVU2967
	movq	(%rcx,%rax,8), %rdi	# MEM[(uint64_t *)borrow_array_152 + ivtmp.434_791 * 8], MEM[(uint64_t *)borrow_array_152 + ivtmp.434_791 * 8]
	subq	%rdi, (%rbx,%rax,8)	# MEM[(uint64_t *)borrow_array_152 + ivtmp.434_791 * 8], MEM[(uint64_t *)result_133 + ivtmp.434_791 * 8]
	.loc 1 237 9 is_stmt 1 view .LVU2968
	.loc 1 244 13 view .LVU2969
# sub_64_aligned.c:244:             borrow_array[i] = 0;
	.loc 1 244 29 is_stmt 0 view .LVU2970
	movq	$0, (%rcx,%rax,8)	#, MEM[(uint64_t *)borrow_array_152 + ivtmp.434_791 * 8]
	.loc 1 234 25 is_stmt 1 view .LVU2971
.LVL706:
	.loc 1 234 19 view .LVU2972
	.loc 1 236 9 view .LVU2973
# sub_64_aligned.c:236:         result[i] = result[i] - borrow_array[i];
	.loc 1 236 31 is_stmt 0 view .LVU2974
	movq	(%rcx,%r8,8), %rsi	# MEM[(uint64_t *)borrow_array_152 + ivtmp.434_791 * 8], MEM[(uint64_t *)borrow_array_152 + ivtmp.434_791 * 8]
	subq	%rsi, (%rbx,%r8,8)	# MEM[(uint64_t *)borrow_array_152 + ivtmp.434_791 * 8], MEM[(uint64_t *)result_133 + ivtmp.434_791 * 8]
	.loc 1 237 9 is_stmt 1 view .LVU2975
	.loc 1 244 13 view .LVU2976
# sub_64_aligned.c:244:             borrow_array[i] = 0;
	.loc 1 244 29 is_stmt 0 view .LVU2977
	movq	$0, (%rcx,%r8,8)	#, MEM[(uint64_t *)borrow_array_152 + ivtmp.434_791 * 8]
	.loc 1 234 25 is_stmt 1 view .LVU2978
.LVL707:
	.loc 1 234 19 view .LVU2979
	cmpl	%r9d, %r14d	# ivtmp.434, prephitmp_382
	jg	.L326	#,
	jmp	.L329	#
.LVL708:
.L745:
	.loc 1 234 19 is_stmt 0 view .LVU2980
	movq	-1368(%rbp), %r10	# %sfp, str
	jmp	.L304	#
.LVL709:
.L746:
	.loc 1 234 19 view .LVU2981
	movq	-1352(%rbp), %r10	# %sfp, str
	jmp	.L309	#
.LVL710:
.L347:
	.loc 1 234 19 view .LVU2982
.LBE664:
.LBE734:
.LBE738:
.LBE749:
# sub_64_aligned.c:1055:     printf("RDTSC Speedup: %f\n", (double)test1_rdtsc_gmp / test1_rdtsc);
	.loc 1 1055 35 view .LVU2983
	movq	-1480(%rbp), %r9	# %sfp, test1_rdtsc_gmp
	pxor	%xmm0, %xmm0	# tmp1018
# sub_64_aligned.c:1055:     printf("RDTSC Speedup: %f\n", (double)test1_rdtsc_gmp / test1_rdtsc);
	.loc 1 1055 5 view .LVU2984
	movq	-1472(%rbp), %rsi	# %sfp, test1_rdtsc
# sub_64_aligned.c:1055:     printf("RDTSC Speedup: %f\n", (double)test1_rdtsc_gmp / test1_rdtsc);
	.loc 1 1055 35 view .LVU2985
	movq	%r9, %rax	# test1_rdtsc_gmp, tmp1019
	andl	$1, %r9d	#, test1_rdtsc_gmp
	shrq	%rax	# tmp1019
	orq	%rax, %r9	# tmp1019, tmp1323
	cvtsi2sdq	%r9, %xmm0	# tmp1323, tmp1018
	addsd	%xmm0, %xmm0	# tmp1018, tmp1017
# sub_64_aligned.c:1055:     printf("RDTSC Speedup: %f\n", (double)test1_rdtsc_gmp / test1_rdtsc);
	.loc 1 1055 5 view .LVU2986
	testq	%rsi, %rsi	# test1_rdtsc
	jns	.L790	#,
.L349:
	.loc 1 1055 5 view .LVU2987
	movq	%rsi, %r14	# test1_rdtsc, tmp1023
	andl	$1, %esi	#, test1_rdtsc
	pxor	%xmm10, %xmm10	# tmp1022
	shrq	%r14	# tmp1023
	orq	%r14, %rsi	# tmp1023, tmp1324
	cvtsi2sdq	%rsi, %xmm10	# tmp1324, tmp1022
	addsd	%xmm10, %xmm10	# tmp1022, tmp1021
	jmp	.L350	#
.LVL711:
.L339:
.LBB750:
.LBB739:
.LBB735:
.LBB675:
.LBI675:
	.loc 1 653 6 is_stmt 1 view .LVU2988
.LBB676:
	.loc 1 659 13 view .LVU2989
	leaq	.LC17(%rip), %rdi	#, tmp974
	call	perror@PLT	#
.LVL712:
	.loc 1 660 13 view .LVU2990
	movl	$1, %edi	#,
	call	exit@PLT	#
.LVL713:
.L341:
	.loc 1 660 13 is_stmt 0 view .LVU2991
.LBE676:
.LBE675:
.LBE735:
	.loc 1 976 13 is_stmt 1 view .LVU2992
	leaq	.LC35(%rip), %rdi	#, tmp976
	call	perror@PLT	#
.LVL714:
	.loc 1 977 13 view .LVU2993
	movl	$1, %edi	#,
	call	exit@PLT	#
.LVL715:
.L296:
	.loc 1 977 13 is_stmt 0 view .LVU2994
.LBE739:
.LBE750:
.LBB751:
.LBB552:
	call	open_file.part.0	#
.LVL716:
.L789:
	.loc 1 977 13 view .LVU2995
.LBE552:
.LBE751:
# sub_64_aligned.c:1056: }
	.loc 1 1056 1 view .LVU2996
	call	__stack_chk_fail@PLT	#
.LVL717:
	.cfi_endproc
.LFE5800:
	.size	run_tests, .-run_tests
	.section	.rodata.str1.8
	.align 8
.LC41:
	.string	"Usage: %s <number of bits> <core number>\n"
	.section	.rodata.str1.1
.LC42:
	.string	"sub_64_aligned.c"
.LC43:
	.string	"atoi(argv[1]) > 0"
	.section	.rodata.str1.8
	.align 8
.LC44:
	.string	"Memory allocation failed for sub_space or borrow_space\n"
	.section	.text.startup,"ax",@progbits
	.p2align 4
	.globl	main
	.type	main, @function
main:
.LVL718:
.LFB5782:
	.loc 1 283 1 is_stmt 1 view -0
	.cfi_startproc
	.loc 1 283 1 is_stmt 0 view .LVU2998
	endbr64	
	pushq	%r13	#
	.cfi_def_cfa_offset 16
	.cfi_offset 13, -16
	pushq	%r12	#
	.cfi_def_cfa_offset 24
	.cfi_offset 12, -24
	pushq	%rbp	#
	.cfi_def_cfa_offset 32
	.cfi_offset 6, -32
	pushq	%rbx	#
	.cfi_def_cfa_offset 40
	.cfi_offset 3, -40
	movq	%rsi, %rbx	# tmp131, argv
	subq	$40, %rsp	#,
	.cfi_def_cfa_offset 80
# sub_64_aligned.c:283: {
	.loc 1 283 1 view .LVU2999
	movq	%fs:40, %rax	# MEM[(<address-space-1> long unsigned int *)40B], tmp138
	movq	%rax, 24(%rsp)	# tmp138, D.40048
	xorl	%eax, %eax	# tmp138
	.loc 1 284 5 is_stmt 1 view .LVU3000
# sub_64_aligned.c:284:     if (argc != 3)
	.loc 1 284 8 is_stmt 0 view .LVU3001
	cmpl	$3, %edi	#, tmp130
	je	.L792	#,
	.loc 1 286 9 is_stmt 1 view .LVU3002
.LVL719:
.LBB768:
.LBI768:
	.loc 6 110 1 view .LVU3003
.LBB769:
	.loc 6 112 3 view .LVU3004
# /usr/include/x86_64-linux-gnu/bits/stdio2.h:112:   return __printf_chk (__USE_FORTIFY_LEVEL - 1, __fmt, __va_arg_pack ());
	.loc 6 112 10 is_stmt 0 view .LVU3005
	movq	(%rsi), %rdx	# *argv_11(D),
	movl	$1, %edi	#,
.LVL720:
	.loc 6 112 10 view .LVU3006
	leaq	.LC41(%rip), %rsi	#, tmp104
.LVL721:
	.loc 6 112 10 view .LVU3007
.LBE769:
.LBE768:
# sub_64_aligned.c:287:         return 1;
	.loc 1 287 16 view .LVU3008
	movl	$1, %r12d	#, <retval>
.LBB771:
.LBB770:
# /usr/include/x86_64-linux-gnu/bits/stdio2.h:112:   return __printf_chk (__USE_FORTIFY_LEVEL - 1, __fmt, __va_arg_pack ());
	.loc 6 112 10 view .LVU3009
	call	__printf_chk@PLT	#
.LVL722:
	.loc 6 112 10 view .LVU3010
.LBE770:
.LBE771:
	.loc 1 287 9 is_stmt 1 view .LVU3011
.L791:
# sub_64_aligned.c:318: }
	.loc 1 318 1 is_stmt 0 view .LVU3012
	movq	24(%rsp), %rax	# D.40048, tmp139
	subq	%fs:40, %rax	# MEM[(<address-space-1> long unsigned int *)40B], tmp139
	jne	.L803	#,
	addq	$40, %rsp	#,
	.cfi_remember_state
	.cfi_def_cfa_offset 40
	movl	%r12d, %eax	# <retval>,
	popq	%rbx	#
	.cfi_def_cfa_offset 32
.LVL723:
	.loc 1 318 1 view .LVU3013
	popq	%rbp	#
	.cfi_def_cfa_offset 24
	popq	%r12	#
	.cfi_def_cfa_offset 16
	popq	%r13	#
	.cfi_def_cfa_offset 8
	ret	
.LVL724:
.L792:
	.cfi_restore_state
	.loc 1 290 5 is_stmt 1 view .LVU3014
.LBB772:
.LBI772:
	.file 7 "/usr/include/stdlib.h"
	.loc 7 362 1 view .LVU3015
.LBB773:
	.loc 7 364 3 view .LVU3016
# /usr/include/stdlib.h:364:   return (int) strtol (__nptr, (char **) NULL, 10);
	.loc 7 364 16 is_stmt 0 view .LVU3017
	movq	8(%rsi), %rdi	# MEM[(char * *)argv_11(D) + 8B], MEM[(char * *)argv_11(D) + 8B]
.LVL725:
	.loc 7 364 16 view .LVU3018
	movl	$10, %edx	#,
	xorl	%esi, %esi	#
	call	strtol@PLT	#
.LVL726:
	.loc 7 364 16 view .LVU3019
.LBE773:
.LBE772:
# sub_64_aligned.c:290:     assert(atoi(argv[1]) > 0);
	.loc 1 290 5 view .LVU3020
	testl	%eax, %eax	# tmp132
	jle	.L804	#,
	.loc 1 291 5 is_stmt 1 view .LVU3021
.LVL727:
.LBB774:
.LBI774:
	.loc 7 362 1 view .LVU3022
.LBB775:
	.loc 7 364 3 view .LVU3023
# /usr/include/stdlib.h:364:   return (int) strtol (__nptr, (char **) NULL, 10);
	.loc 7 364 16 is_stmt 0 view .LVU3024
	movq	8(%rbx), %rdi	# MEM[(char * *)argv_11(D) + 8B], MEM[(char * *)argv_11(D) + 8B]
	xorl	%esi, %esi	#
	movl	$10, %edx	#,
	call	strtol@PLT	#
.LVL728:
	.loc 7 364 16 view .LVU3025
.LBE775:
.LBE774:
.LBB777:
.LBB778:
	movq	16(%rbx), %rdi	# MEM[(char * *)argv_11(D) + 16B], MEM[(char * *)argv_11(D) + 16B]
	xorl	%esi, %esi	#
	movl	$10, %edx	#,
.LBE778:
.LBE777:
.LBB781:
.LBB776:
# /usr/include/stdlib.h:364:   return (int) strtol (__nptr, (char **) NULL, 10);
	.loc 7 364 10 view .LVU3026
	movl	%eax, NUM_BITS(%rip)	# tmp133, NUM_BITS
.LBE776:
.LBE781:
	.loc 1 292 5 is_stmt 1 view .LVU3027
.LVL729:
.LBB782:
.LBI777:
	.loc 7 362 1 view .LVU3028
.LBB779:
	.loc 7 364 3 view .LVU3029
# /usr/include/stdlib.h:364:   return (int) strtol (__nptr, (char **) NULL, 10);
	.loc 7 364 16 is_stmt 0 view .LVU3030
	call	strtol@PLT	#
.LVL730:
	.loc 7 364 16 view .LVU3031
.LBE779:
.LBE782:
.LBB783:
.LBB784:
# /usr/lib/gcc/x86_64-linux-gnu/11/include/mm_malloc.h:45:   if (posix_memalign (&__ptr, __alignment, __size) == 0)
	.loc 5 45 7 view .LVU3032
	leaq	16(%rsp), %rdi	#, tmp111
	movl	$1073741824, %edx	#,
	movl	$64, %esi	#,
.LBE784:
.LBE783:
.LBB786:
.LBB780:
# /usr/include/stdlib.h:364:   return (int) strtol (__nptr, (char **) NULL, 10);
	.loc 7 364 10 view .LVU3033
	movl	%eax, CORE_NO(%rip)	# tmp134, CORE_NO
.LBE780:
.LBE786:
	.loc 1 298 5 is_stmt 1 view .LVU3034
.LVL731:
.LBB787:
.LBI783:
	.loc 5 38 1 view .LVU3035
.LBB785:
	.loc 5 40 3 view .LVU3036
	.loc 5 41 3 view .LVU3037
	.loc 5 43 3 view .LVU3038
	.loc 5 45 3 view .LVU3039
# /usr/lib/gcc/x86_64-linux-gnu/11/include/mm_malloc.h:45:   if (posix_memalign (&__ptr, __alignment, __size) == 0)
	.loc 5 45 7 is_stmt 0 view .LVU3040
	call	posix_memalign@PLT	#
.LVL732:
	testl	%eax, %eax	# tmp135
	jne	.L795	#,
	movq	16(%rsp), %r13	# D.40038, _57
.LVL733:
	.loc 5 45 7 view .LVU3041
.LBE785:
.LBE787:
.LBB788:
.LBB789:
	leaq	8(%rsp), %rdi	#, tmp112
	movl	$1073741824, %edx	#,
	movl	$64, %esi	#,
.LBE789:
.LBE788:
# sub_64_aligned.c:298:     sub_space = (aligned_uint64_ptr)_mm_malloc(1 << 30, 64);
	.loc 1 298 15 view .LVU3042
	movq	%r13, sub_space(%rip)	# _57, sub_space
	.loc 1 299 5 is_stmt 1 view .LVU3043
.LVL734:
.LBB793:
.LBI788:
	.loc 5 38 1 view .LVU3044
.LBB790:
	.loc 5 40 3 view .LVU3045
	.loc 5 41 3 view .LVU3046
	.loc 5 43 3 view .LVU3047
	.loc 5 45 3 view .LVU3048
# /usr/lib/gcc/x86_64-linux-gnu/11/include/mm_malloc.h:45:   if (posix_memalign (&__ptr, __alignment, __size) == 0)
	.loc 5 45 7 is_stmt 0 view .LVU3049
	call	posix_memalign@PLT	#
.LVL735:
	movl	%eax, %r12d	# tmp136, <retval>
	testl	%eax, %eax	# <retval>
	jne	.L796	#,
	movq	8(%rsp), %rbp	# D.40032, _45
.LVL736:
	.loc 5 45 7 view .LVU3050
.LBE790:
.LBE793:
# sub_64_aligned.c:299:     borrow_space = (aligned_uint64_ptr)_mm_malloc(1 << 30, 64);
	.loc 1 299 18 view .LVU3051
	movq	%rbp, borrow_space(%rip)	# _45, borrow_space
	.loc 1 301 5 is_stmt 1 view .LVU3052
# sub_64_aligned.c:301:     if (sub_space == NULL || borrow_space == NULL)
	.loc 1 301 27 is_stmt 0 view .LVU3053
	testq	%r13, %r13	# _57
	je	.L799	#,
	testq	%rbp, %rbp	# _45
	je	.L799	#,
	.loc 1 308 5 is_stmt 1 view .LVU3054
.LBB794:
.LBB795:
# /usr/include/x86_64-linux-gnu/bits/string_fortified.h:59:   return __builtin___memset_chk (__dest, __ch, __len,
	.loc 4 59 10 is_stmt 0 view .LVU3055
	xorl	%esi, %esi	#
	movq	%r13, %rdi	# _57,
	movl	$1073741824, %edx	#,
.LBE795:
.LBE794:
# sub_64_aligned.c:308:     sub_space_ptr = 0;
	.loc 1 308 19 view .LVU3056
	movl	$0, sub_space_ptr(%rip)	#, sub_space_ptr
	.loc 1 309 5 is_stmt 1 view .LVU3057
# sub_64_aligned.c:309:     borrow_space_ptr = 0;
	.loc 1 309 22 is_stmt 0 view .LVU3058
	movl	$0, borrow_space_ptr(%rip)	#, borrow_space_ptr
	.loc 1 312 5 is_stmt 1 view .LVU3059
.LVL737:
.LBB797:
.LBI794:
	.loc 4 57 1 view .LVU3060
.LBB796:
	.loc 4 59 3 view .LVU3061
# /usr/include/x86_64-linux-gnu/bits/string_fortified.h:59:   return __builtin___memset_chk (__dest, __ch, __len,
	.loc 4 59 10 is_stmt 0 view .LVU3062
	call	memset@PLT	#
.LVL738:
	.loc 4 59 10 view .LVU3063
.LBE796:
.LBE797:
	.loc 1 313 5 is_stmt 1 view .LVU3064
.LBB798:
.LBI798:
	.loc 4 57 1 view .LVU3065
.LBB799:
	.loc 4 59 3 view .LVU3066
# /usr/include/x86_64-linux-gnu/bits/string_fortified.h:59:   return __builtin___memset_chk (__dest, __ch, __len,
	.loc 4 59 10 is_stmt 0 view .LVU3067
	movl	$1073741824, %edx	#,
	xorl	%esi, %esi	#
	movq	%rbp, %rdi	# _45,
	call	memset@PLT	#
.LVL739:
	.loc 4 59 10 view .LVU3068
.LBE799:
.LBE798:
	.loc 1 315 5 is_stmt 1 view .LVU3069
	xorl	%eax, %eax	#
	call	run_tests	#
.LVL740:
	.loc 1 317 5 view .LVU3070
# sub_64_aligned.c:317:     return 0;
	.loc 1 317 12 is_stmt 0 view .LVU3071
	jmp	.L791	#
.LVL741:
.L795:
.LBB800:
.LBB791:
# /usr/lib/gcc/x86_64-linux-gnu/11/include/mm_malloc.h:45:   if (posix_memalign (&__ptr, __alignment, __size) == 0)
	.loc 5 45 7 view .LVU3072
	leaq	8(%rsp), %rdi	#, tmp128
	movl	$1073741824, %edx	#,
	movl	$64, %esi	#,
.LBE791:
.LBE800:
# sub_64_aligned.c:298:     sub_space = (aligned_uint64_ptr)_mm_malloc(1 << 30, 64);
	.loc 1 298 15 view .LVU3073
	movq	$0, sub_space(%rip)	#, sub_space
	.loc 1 299 5 is_stmt 1 view .LVU3074
.LVL742:
.LBB801:
	.loc 5 38 1 view .LVU3075
.LBB792:
	.loc 5 40 3 view .LVU3076
	.loc 5 41 3 view .LVU3077
	.loc 5 43 3 view .LVU3078
	.loc 5 45 3 view .LVU3079
# /usr/lib/gcc/x86_64-linux-gnu/11/include/mm_malloc.h:45:   if (posix_memalign (&__ptr, __alignment, __size) == 0)
	.loc 5 45 7 is_stmt 0 view .LVU3080
	call	posix_memalign@PLT	#
.LVL743:
	testl	%eax, %eax	# tmp137
	je	.L805	#,
.L796:
	.loc 5 48 5 is_stmt 1 view .LVU3081
.LVL744:
	.loc 5 48 5 is_stmt 0 view .LVU3082
.LBE792:
.LBE801:
# sub_64_aligned.c:299:     borrow_space = (aligned_uint64_ptr)_mm_malloc(1 << 30, 64);
	.loc 1 299 18 view .LVU3083
	movq	$0, borrow_space(%rip)	#, borrow_space
	.loc 1 301 5 is_stmt 1 view .LVU3084
.L799:
	.loc 1 303 9 view .LVU3085
	leaq	.LC44(%rip), %rdi	#, tmp117
	call	perror@PLT	#
.LVL745:
	.loc 1 304 9 view .LVU3086
	movl	$1, %edi	#,
	call	exit@PLT	#
.LVL746:
.L804:
	.loc 1 290 5 discriminator 1 view .LVU3087
	leaq	__PRETTY_FUNCTION__.0(%rip), %rcx	#, tmp106
	movl	$290, %edx	#,
	leaq	.LC42(%rip), %rsi	#, tmp107
	leaq	.LC43(%rip), %rdi	#, tmp108
	call	__assert_fail@PLT	#
.LVL747:
.L803:
# sub_64_aligned.c:318: }
	.loc 1 318 1 is_stmt 0 view .LVU3088
	call	__stack_chk_fail@PLT	#
.LVL748:
.L805:
# sub_64_aligned.c:299:     borrow_space = (aligned_uint64_ptr)_mm_malloc(1 << 30, 64);
	.loc 1 299 18 view .LVU3089
	movq	8(%rsp), %rax	# D.40032, D.40032
	movq	%rax, borrow_space(%rip)	# D.40032, borrow_space
	.loc 1 301 5 is_stmt 1 view .LVU3090
	jmp	.L799	#
	.cfi_endproc
.LFE5782:
	.size	main, .-main
	.section	.rodata
	.type	__PRETTY_FUNCTION__.0, @object
	.size	__PRETTY_FUNCTION__.0, 5
__PRETTY_FUNCTION__.0:
	.string	"main"
	.globl	event_names
	.section	.rodata.str1.1
.LC45:
	.string	"PERF_COUNT_HW_CPU_CYCLES"
	.section	.rodata.str1.8
	.align 8
.LC46:
	.string	"PERF_COUNT_HW_USER_INSTRUCTIONS"
	.align 8
.LC47:
	.string	"PERF_COUNT_HW_KERNEL_INSTRUCTIONS"
	.section	.rodata.str1.1
.LC48:
	.string	"PERF_COUNT_SW_PAGE_FAULTS"
.LC49:
	.string	"PERF_COUNT_L1D_CACHE_READS"
	.section	.rodata.str1.8
	.align 8
.LC50:
	.string	"PERF_COUNT_L1D_CACHE_READ_MISSES"
	.section	.data.rel.local,"aw"
	.align 32
	.type	event_names, @object
	.size	event_names, 48
event_names:
	.quad	.LC45
	.quad	.LC46
	.quad	.LC47
	.quad	.LC48
	.quad	.LC49
	.quad	.LC50
	.globl	count
	.bss
	.align 8
	.type	count, @object
	.size	count, 8
count:
	.zero	8
	.globl	fd
	.align 16
	.type	fd, @object
	.size	fd, 24
fd:
	.zero	24
	.globl	pe
	.align 32
	.type	pe, @object
	.size	pe, 768
pe:
	.zero	768
	.globl	NUM_BITS
	.align 4
	.type	NUM_BITS, @object
	.size	NUM_BITS, 4
NUM_BITS:
	.zero	4
	.globl	CORE_NO
	.align 4
	.type	CORE_NO, @object
	.size	CORE_NO, 4
CORE_NO:
	.zero	4
	.globl	LIMB_DIGITS
	.data
	.align 64
	.type	LIMB_DIGITS, @object
	.size	LIMB_DIGITS, 8
LIMB_DIGITS:
	.quad	-8446744073709551616
	.globl	borrow_space_ptr
	.bss
	.align 4
	.type	borrow_space_ptr, @object
	.size	borrow_space_ptr, 4
borrow_space_ptr:
	.zero	4
	.globl	sub_space_ptr
	.align 4
	.type	sub_space_ptr, @object
	.size	sub_space_ptr, 4
sub_space_ptr:
	.zero	4
	.globl	borrow_space
	.align 64
	.type	borrow_space, @object
	.size	borrow_space, 8
borrow_space:
	.zero	8
	.globl	sub_space
	.align 64
	.type	sub_space, @object
	.size	sub_space, 8
sub_space:
	.zero	8
	.section	.rodata.cst16,"aM",@progbits,16
	.align 16
.LC24:
	.value	255
	.value	255
	.value	255
	.value	255
	.value	255
	.value	255
	.value	255
	.value	255
	.align 16
.LC25:
	.byte	48
	.byte	48
	.byte	48
	.byte	48
	.byte	48
	.byte	48
	.byte	48
	.byte	48
	.byte	48
	.byte	48
	.byte	48
	.byte	48
	.byte	48
	.byte	48
	.byte	48
	.byte	48
	.text
.Letext0:
	.file 8 "/usr/lib/gcc/x86_64-linux-gnu/11/include/stddef.h"
	.file 9 "/usr/include/x86_64-linux-gnu/bits/types.h"
	.file 10 "/usr/include/x86_64-linux-gnu/bits/types/struct_FILE.h"
	.file 11 "/usr/include/x86_64-linux-gnu/bits/types/FILE.h"
	.file 12 "/usr/include/stdio.h"
	.file 13 "/usr/include/x86_64-linux-gnu/sys/types.h"
	.file 14 "/usr/include/x86_64-linux-gnu/bits/types/clockid_t.h"
	.file 15 "/usr/include/x86_64-linux-gnu/bits/types/struct_timespec.h"
	.file 16 "/usr/include/x86_64-linux-gnu/gmp.h"
	.file 17 "/usr/include/asm-generic/int-ll64.h"
	.file 18 "/usr/include/linux/perf_event.h"
	.file 19 "/usr/include/x86_64-linux-gnu/bits/stdint-uintn.h"
	.file 20 "/usr/include/unistd.h"
	.file 21 "/usr/include/x86_64-linux-gnu/sys/ioctl.h"
	.file 22 "/usr/include/string.h"
	.file 23 "/usr/include/errno.h"
	.file 24 "/usr/include/assert.h"
	.file 25 "/usr/include/time.h"
	.file 26 "<built-in>"
	.section	.debug_info,"",@progbits
.Ldebug_info0:
	.long	0x4fdb
	.value	0x5
	.byte	0x1
	.byte	0x8
	.long	.Ldebug_abbrev0
	.uleb128 0x54
	.long	.LASF422
	.byte	0x1d
	.long	.LASF0
	.long	.LASF1
	.long	.LLRL369
	.quad	0
	.long	.Ldebug_line0
	.uleb128 0x18
	.byte	0x8
	.byte	0x4
	.long	.LASF2
	.uleb128 0xc
	.long	.LASF10
	.byte	0x8
	.byte	0xd1
	.byte	0x17
	.long	0x3d
	.uleb128 0x18
	.byte	0x8
	.byte	0x7
	.long	.LASF3
	.uleb128 0x18
	.byte	0x4
	.byte	0x7
	.long	.LASF4
	.uleb128 0x55
	.byte	0x8
	.uleb128 0x18
	.byte	0x1
	.byte	0x8
	.long	.LASF5
	.uleb128 0x18
	.byte	0x2
	.byte	0x7
	.long	.LASF6
	.uleb128 0x18
	.byte	0x1
	.byte	0x6
	.long	.LASF7
	.uleb128 0x18
	.byte	0x2
	.byte	0x5
	.long	.LASF8
	.uleb128 0x56
	.byte	0x4
	.byte	0x5
	.string	"int"
	.uleb128 0x18
	.byte	0x8
	.byte	0x5
	.long	.LASF9
	.uleb128 0xc
	.long	.LASF11
	.byte	0x9
	.byte	0x2d
	.byte	0x1b
	.long	0x3d
	.uleb128 0xc
	.long	.LASF12
	.byte	0x9
	.byte	0x98
	.byte	0x19
	.long	0x70
	.uleb128 0xc
	.long	.LASF13
	.byte	0x9
	.byte	0x99
	.byte	0x1b
	.long	0x70
	.uleb128 0xc
	.long	.LASF14
	.byte	0x9
	.byte	0x9a
	.byte	0x19
	.long	0x69
	.uleb128 0xc
	.long	.LASF15
	.byte	0x9
	.byte	0xa0
	.byte	0x1a
	.long	0x70
	.uleb128 0xc
	.long	.LASF16
	.byte	0x9
	.byte	0xa9
	.byte	0x1d
	.long	0x69
	.uleb128 0xc
	.long	.LASF17
	.byte	0x9
	.byte	0xc2
	.byte	0x1b
	.long	0x70
	.uleb128 0xc
	.long	.LASF18
	.byte	0x9
	.byte	0xc5
	.byte	0x21
	.long	0x70
	.uleb128 0x10
	.long	0xe1
	.uleb128 0x30
	.long	0xd7
	.uleb128 0x18
	.byte	0x1
	.byte	0x6
	.long	.LASF19
	.uleb128 0x3d
	.long	0xe1
	.uleb128 0x42
	.long	.LASF57
	.byte	0xd8
	.byte	0xa
	.byte	0x31
	.long	0x273
	.uleb128 0xa
	.long	.LASF20
	.byte	0xa
	.byte	0x33
	.byte	0x7
	.long	0x69
	.byte	0
	.uleb128 0xa
	.long	.LASF21
	.byte	0xa
	.byte	0x36
	.byte	0x9
	.long	0xd7
	.byte	0x8
	.uleb128 0xa
	.long	.LASF22
	.byte	0xa
	.byte	0x37
	.byte	0x9
	.long	0xd7
	.byte	0x10
	.uleb128 0xa
	.long	.LASF23
	.byte	0xa
	.byte	0x38
	.byte	0x9
	.long	0xd7
	.byte	0x18
	.uleb128 0xa
	.long	.LASF24
	.byte	0xa
	.byte	0x39
	.byte	0x9
	.long	0xd7
	.byte	0x20
	.uleb128 0xa
	.long	.LASF25
	.byte	0xa
	.byte	0x3a
	.byte	0x9
	.long	0xd7
	.byte	0x28
	.uleb128 0xa
	.long	.LASF26
	.byte	0xa
	.byte	0x3b
	.byte	0x9
	.long	0xd7
	.byte	0x30
	.uleb128 0xa
	.long	.LASF27
	.byte	0xa
	.byte	0x3c
	.byte	0x9
	.long	0xd7
	.byte	0x38
	.uleb128 0xa
	.long	.LASF28
	.byte	0xa
	.byte	0x3d
	.byte	0x9
	.long	0xd7
	.byte	0x40
	.uleb128 0xa
	.long	.LASF29
	.byte	0xa
	.byte	0x40
	.byte	0x9
	.long	0xd7
	.byte	0x48
	.uleb128 0xa
	.long	.LASF30
	.byte	0xa
	.byte	0x41
	.byte	0x9
	.long	0xd7
	.byte	0x50
	.uleb128 0xa
	.long	.LASF31
	.byte	0xa
	.byte	0x42
	.byte	0x9
	.long	0xd7
	.byte	0x58
	.uleb128 0xa
	.long	.LASF32
	.byte	0xa
	.byte	0x44
	.byte	0x16
	.long	0x28c
	.byte	0x60
	.uleb128 0xa
	.long	.LASF33
	.byte	0xa
	.byte	0x46
	.byte	0x14
	.long	0x291
	.byte	0x68
	.uleb128 0xa
	.long	.LASF34
	.byte	0xa
	.byte	0x48
	.byte	0x7
	.long	0x69
	.byte	0x70
	.uleb128 0xa
	.long	.LASF35
	.byte	0xa
	.byte	0x49
	.byte	0x7
	.long	0x69
	.byte	0x74
	.uleb128 0xa
	.long	.LASF36
	.byte	0xa
	.byte	0x4a
	.byte	0xb
	.long	0x83
	.byte	0x78
	.uleb128 0xa
	.long	.LASF37
	.byte	0xa
	.byte	0x4d
	.byte	0x12
	.long	0x54
	.byte	0x80
	.uleb128 0xa
	.long	.LASF38
	.byte	0xa
	.byte	0x4e
	.byte	0xf
	.long	0x5b
	.byte	0x82
	.uleb128 0xa
	.long	.LASF39
	.byte	0xa
	.byte	0x4f
	.byte	0x8
	.long	0x296
	.byte	0x83
	.uleb128 0xa
	.long	.LASF40
	.byte	0xa
	.byte	0x51
	.byte	0xf
	.long	0x2a6
	.byte	0x88
	.uleb128 0xa
	.long	.LASF41
	.byte	0xa
	.byte	0x59
	.byte	0xd
	.long	0x8f
	.byte	0x90
	.uleb128 0xa
	.long	.LASF42
	.byte	0xa
	.byte	0x5b
	.byte	0x17
	.long	0x2b0
	.byte	0x98
	.uleb128 0xa
	.long	.LASF43
	.byte	0xa
	.byte	0x5c
	.byte	0x19
	.long	0x2ba
	.byte	0xa0
	.uleb128 0xa
	.long	.LASF44
	.byte	0xa
	.byte	0x5d
	.byte	0x14
	.long	0x291
	.byte	0xa8
	.uleb128 0xa
	.long	.LASF45
	.byte	0xa
	.byte	0x5e
	.byte	0x9
	.long	0x4b
	.byte	0xb0
	.uleb128 0xa
	.long	.LASF46
	.byte	0xa
	.byte	0x5f
	.byte	0xa
	.long	0x31
	.byte	0xb8
	.uleb128 0xa
	.long	.LASF47
	.byte	0xa
	.byte	0x60
	.byte	0x7
	.long	0x69
	.byte	0xc0
	.uleb128 0xa
	.long	.LASF48
	.byte	0xa
	.byte	0x62
	.byte	0x8
	.long	0x2bf
	.byte	0xc4
	.byte	0
	.uleb128 0xc
	.long	.LASF49
	.byte	0xb
	.byte	0x7
	.byte	0x19
	.long	0xed
	.uleb128 0x57
	.long	.LASF423
	.byte	0xa
	.byte	0x2b
	.byte	0xe
	.uleb128 0x3e
	.long	.LASF50
	.uleb128 0x10
	.long	0x287
	.uleb128 0x10
	.long	0xed
	.uleb128 0x1b
	.long	0xe1
	.long	0x2a6
	.uleb128 0x1c
	.long	0x3d
	.byte	0
	.byte	0
	.uleb128 0x10
	.long	0x27f
	.uleb128 0x3e
	.long	.LASF51
	.uleb128 0x10
	.long	0x2ab
	.uleb128 0x3e
	.long	.LASF52
	.uleb128 0x10
	.long	0x2b5
	.uleb128 0x1b
	.long	0xe1
	.long	0x2cf
	.uleb128 0x1c
	.long	0x3d
	.byte	0x13
	.byte	0
	.uleb128 0xc
	.long	.LASF53
	.byte	0xc
	.byte	0x4d
	.byte	0x13
	.long	0xbf
	.uleb128 0x10
	.long	0x273
	.uleb128 0x30
	.long	0x2db
	.uleb128 0x58
	.long	.LASF229
	.byte	0xc
	.byte	0x91
	.byte	0xe
	.long	0x2db
	.uleb128 0x18
	.byte	0x8
	.byte	0x5
	.long	.LASF54
	.uleb128 0xc
	.long	.LASF55
	.byte	0xd
	.byte	0x61
	.byte	0x11
	.long	0x9b
	.uleb128 0xc
	.long	.LASF56
	.byte	0xe
	.byte	0x7
	.byte	0x15
	.long	0xb3
	.uleb128 0x42
	.long	.LASF58
	.byte	0x10
	.byte	0xf
	.byte	0xb
	.long	0x337
	.uleb128 0xa
	.long	.LASF59
	.byte	0xf
	.byte	0x10
	.byte	0xc
	.long	0xa7
	.byte	0
	.uleb128 0xa
	.long	.LASF60
	.byte	0xf
	.byte	0x15
	.byte	0x15
	.long	0xcb
	.byte	0x8
	.byte	0
	.uleb128 0x18
	.byte	0x8
	.byte	0x7
	.long	.LASF61
	.uleb128 0x10
	.long	0x343
	.uleb128 0x59
	.uleb128 0x10
	.long	0xe8
	.uleb128 0x30
	.long	0x344
	.uleb128 0x18
	.byte	0x10
	.byte	0x4
	.long	.LASF62
	.uleb128 0xc
	.long	.LASF63
	.byte	0x10
	.byte	0x8d
	.byte	0x1b
	.long	0x3d
	.uleb128 0xc
	.long	.LASF64
	.byte	0x10
	.byte	0x91
	.byte	0x1b
	.long	0x3d
	.uleb128 0x43
	.byte	0x10
	.byte	0x96
	.long	0x39c
	.uleb128 0xa
	.long	.LASF65
	.byte	0x10
	.byte	0x98
	.byte	0x7
	.long	0x69
	.byte	0
	.uleb128 0xa
	.long	.LASF66
	.byte	0x10
	.byte	0x9a
	.byte	0x7
	.long	0x69
	.byte	0x4
	.uleb128 0xa
	.long	.LASF67
	.byte	0x10
	.byte	0x9d
	.byte	0xe
	.long	0x39c
	.byte	0x8
	.byte	0
	.uleb128 0x10
	.long	0x355
	.uleb128 0xc
	.long	.LASF68
	.byte	0x10
	.byte	0x9e
	.byte	0x3
	.long	0x36d
	.uleb128 0x3d
	.long	0x3a1
	.uleb128 0xc
	.long	.LASF69
	.byte	0x10
	.byte	0xa4
	.byte	0x16
	.long	0x3be
	.uleb128 0x1b
	.long	0x3a1
	.long	0x3ce
	.uleb128 0x1c
	.long	0x3d
	.byte	0
	.byte	0
	.uleb128 0x5a
	.byte	0x7
	.byte	0x4
	.long	0x44
	.byte	0x10
	.byte	0xce
	.byte	0x1
	.long	0x3e9
	.uleb128 0x5
	.long	.LASF70
	.byte	0
	.uleb128 0x5
	.long	.LASF71
	.byte	0
	.byte	0
	.uleb128 0xc
	.long	.LASF72
	.byte	0x10
	.byte	0xd1
	.byte	0x3
	.long	0x3ce
	.uleb128 0x5b
	.byte	0x8
	.byte	0x10
	.byte	0xd8
	.byte	0x3
	.long	0x40b
	.uleb128 0x5c
	.long	.LASF157
	.byte	0x10
	.byte	0xd9
	.byte	0xb
	.long	0x4b
	.byte	0
	.uleb128 0x43
	.byte	0x20
	.byte	0xd4
	.long	0x43a
	.uleb128 0xa
	.long	.LASF73
	.byte	0x10
	.byte	0xd6
	.byte	0x9
	.long	0x3b2
	.byte	0
	.uleb128 0xa
	.long	.LASF74
	.byte	0x10
	.byte	0xd7
	.byte	0x11
	.long	0x3e9
	.byte	0x10
	.uleb128 0xa
	.long	.LASF75
	.byte	0x10
	.byte	0xda
	.byte	0x5
	.long	0x3f5
	.byte	0x18
	.byte	0
	.uleb128 0xc
	.long	.LASF76
	.byte	0x10
	.byte	0xdb
	.byte	0x3
	.long	0x40b
	.uleb128 0xc
	.long	.LASF77
	.byte	0x10
	.byte	0xdc
	.byte	0x20
	.long	0x452
	.uleb128 0x1b
	.long	0x43a
	.long	0x462
	.uleb128 0x1c
	.long	0x3d
	.byte	0
	.byte	0
	.uleb128 0xc
	.long	.LASF78
	.byte	0x10
	.byte	0xe0
	.byte	0x1d
	.long	0x46e
	.uleb128 0x10
	.long	0x3ad
	.uleb128 0xc
	.long	.LASF79
	.byte	0x10
	.byte	0xe1
	.byte	0x17
	.long	0x47f
	.uleb128 0x10
	.long	0x3a1
	.uleb128 0x18
	.byte	0x4
	.byte	0x4
	.long	.LASF80
	.uleb128 0x10
	.long	0xd7
	.uleb128 0x30
	.long	0x48b
	.uleb128 0xc
	.long	.LASF81
	.byte	0x11
	.byte	0x18
	.byte	0x18
	.long	0x54
	.uleb128 0xc
	.long	.LASF82
	.byte	0x11
	.byte	0x1a
	.byte	0x18
	.long	0x69
	.uleb128 0xc
	.long	.LASF83
	.byte	0x11
	.byte	0x1b
	.byte	0x16
	.long	0x44
	.uleb128 0xc
	.long	.LASF84
	.byte	0x11
	.byte	0x1f
	.byte	0x2a
	.long	0x337
	.uleb128 0x2c
	.long	.LASF92
	.long	0x44
	.byte	0x1d
	.long	0x4fe
	.uleb128 0x5
	.long	.LASF85
	.byte	0
	.uleb128 0x5
	.long	.LASF86
	.byte	0x1
	.uleb128 0x5
	.long	.LASF87
	.byte	0x2
	.uleb128 0x5
	.long	.LASF88
	.byte	0x3
	.uleb128 0x5
	.long	.LASF89
	.byte	0x4
	.uleb128 0x5
	.long	.LASF90
	.byte	0x5
	.uleb128 0x5
	.long	.LASF91
	.byte	0x6
	.byte	0
	.uleb128 0x2c
	.long	.LASF93
	.long	0x44
	.byte	0x3c
	.long	0x54f
	.uleb128 0x5
	.long	.LASF94
	.byte	0
	.uleb128 0x5
	.long	.LASF95
	.byte	0x1
	.uleb128 0x5
	.long	.LASF96
	.byte	0x2
	.uleb128 0x5
	.long	.LASF97
	.byte	0x3
	.uleb128 0x5
	.long	.LASF98
	.byte	0x4
	.uleb128 0x5
	.long	.LASF99
	.byte	0x5
	.uleb128 0x5
	.long	.LASF100
	.byte	0x6
	.uleb128 0x5
	.long	.LASF101
	.byte	0x7
	.uleb128 0x5
	.long	.LASF102
	.byte	0x8
	.uleb128 0x5
	.long	.LASF103
	.byte	0x9
	.uleb128 0x5
	.long	.LASF104
	.byte	0xa
	.byte	0
	.uleb128 0x2c
	.long	.LASF105
	.long	0x44
	.byte	0x55
	.long	0x58e
	.uleb128 0x5
	.long	.LASF106
	.byte	0
	.uleb128 0x5
	.long	.LASF107
	.byte	0x1
	.uleb128 0x5
	.long	.LASF108
	.byte	0x2
	.uleb128 0x5
	.long	.LASF109
	.byte	0x3
	.uleb128 0x5
	.long	.LASF110
	.byte	0x4
	.uleb128 0x5
	.long	.LASF111
	.byte	0x5
	.uleb128 0x5
	.long	.LASF112
	.byte	0x6
	.uleb128 0x5
	.long	.LASF113
	.byte	0x7
	.byte	0
	.uleb128 0x2c
	.long	.LASF114
	.long	0x44
	.byte	0x61
	.long	0x5b5
	.uleb128 0x5
	.long	.LASF115
	.byte	0
	.uleb128 0x5
	.long	.LASF116
	.byte	0x1
	.uleb128 0x5
	.long	.LASF117
	.byte	0x2
	.uleb128 0x5
	.long	.LASF118
	.byte	0x3
	.byte	0
	.uleb128 0x2c
	.long	.LASF119
	.long	0x44
	.byte	0x69
	.long	0x5d6
	.uleb128 0x5
	.long	.LASF120
	.byte	0
	.uleb128 0x5
	.long	.LASF121
	.byte	0x1
	.uleb128 0x5
	.long	.LASF122
	.byte	0x2
	.byte	0
	.uleb128 0x2c
	.long	.LASF123
	.long	0x44
	.byte	0x76
	.long	0x633
	.uleb128 0x5
	.long	.LASF124
	.byte	0
	.uleb128 0x5
	.long	.LASF125
	.byte	0x1
	.uleb128 0x5
	.long	.LASF126
	.byte	0x2
	.uleb128 0x5
	.long	.LASF127
	.byte	0x3
	.uleb128 0x5
	.long	.LASF128
	.byte	0x4
	.uleb128 0x5
	.long	.LASF129
	.byte	0x5
	.uleb128 0x5
	.long	.LASF130
	.byte	0x6
	.uleb128 0x5
	.long	.LASF131
	.byte	0x7
	.uleb128 0x5
	.long	.LASF132
	.byte	0x8
	.uleb128 0x5
	.long	.LASF133
	.byte	0x9
	.uleb128 0x5
	.long	.LASF134
	.byte	0xa
	.uleb128 0x5
	.long	.LASF135
	.byte	0xb
	.uleb128 0x5
	.long	.LASF136
	.byte	0xc
	.byte	0
	.uleb128 0x2c
	.long	.LASF137
	.long	0x44
	.byte	0xb6
	.long	0x6b4
	.uleb128 0x5
	.long	.LASF138
	.byte	0
	.uleb128 0x5
	.long	.LASF139
	.byte	0x1
	.uleb128 0x5
	.long	.LASF140
	.byte	0x2
	.uleb128 0x5
	.long	.LASF141
	.byte	0x3
	.uleb128 0x5
	.long	.LASF142
	.byte	0x4
	.uleb128 0x5
	.long	.LASF143
	.byte	0x5
	.uleb128 0x5
	.long	.LASF144
	.byte	0x6
	.uleb128 0x5
	.long	.LASF145
	.byte	0x7
	.uleb128 0x5
	.long	.LASF146
	.byte	0x8
	.uleb128 0x5
	.long	.LASF147
	.byte	0x9
	.uleb128 0x5
	.long	.LASF148
	.byte	0xa
	.uleb128 0x5
	.long	.LASF149
	.byte	0xb
	.uleb128 0x5
	.long	.LASF150
	.byte	0xc
	.uleb128 0x5
	.long	.LASF151
	.byte	0xd
	.uleb128 0x5
	.long	.LASF152
	.byte	0xe
	.uleb128 0x5
	.long	.LASF153
	.byte	0xf
	.uleb128 0x5
	.long	.LASF154
	.byte	0x10
	.uleb128 0x5
	.long	.LASF155
	.byte	0x11
	.uleb128 0x5
	.long	.LASF156
	.byte	0x12
	.byte	0
	.uleb128 0x35
	.byte	0x8
	.value	0x168
	.long	0x6d3
	.uleb128 0x19
	.long	.LASF158
	.value	0x169
	.long	0x4b9
	.uleb128 0x19
	.long	.LASF159
	.value	0x16a
	.long	0x4b9
	.byte	0
	.uleb128 0x35
	.byte	0x4
	.value	0x1a3
	.long	0x6f2
	.uleb128 0x19
	.long	.LASF160
	.value	0x1a4
	.long	0x4ad
	.uleb128 0x19
	.long	.LASF161
	.value	0x1a5
	.long	0x4ad
	.byte	0
	.uleb128 0x35
	.byte	0x8
	.value	0x1a9
	.long	0x727
	.uleb128 0x19
	.long	.LASF162
	.value	0x1aa
	.long	0x4b9
	.uleb128 0x19
	.long	.LASF163
	.value	0x1ab
	.long	0x4b9
	.uleb128 0x19
	.long	.LASF164
	.value	0x1ac
	.long	0x4b9
	.uleb128 0x19
	.long	.LASF165
	.value	0x1ad
	.long	0x4b9
	.byte	0
	.uleb128 0x35
	.byte	0x8
	.value	0x1af
	.long	0x75c
	.uleb128 0x19
	.long	.LASF166
	.value	0x1b0
	.long	0x4b9
	.uleb128 0x19
	.long	.LASF167
	.value	0x1b1
	.long	0x4b9
	.uleb128 0x19
	.long	.LASF168
	.value	0x1b2
	.long	0x4b9
	.uleb128 0x19
	.long	.LASF169
	.value	0x1b3
	.long	0x4b9
	.byte	0
	.uleb128 0x5d
	.long	.LASF170
	.byte	0x80
	.byte	0x12
	.value	0x157
	.byte	0x8
	.long	0xa9a
	.uleb128 0x14
	.long	.LASF171
	.value	0x15c
	.byte	0xa
	.long	0x4ad
	.byte	0
	.uleb128 0x14
	.long	.LASF172
	.value	0x161
	.byte	0xa
	.long	0x4ad
	.byte	0x4
	.uleb128 0x14
	.long	.LASF173
	.value	0x166
	.byte	0xa
	.long	0x4b9
	.byte	0x8
	.uleb128 0x36
	.long	0x6b4
	.byte	0x10
	.uleb128 0x14
	.long	.LASF174
	.value	0x16d
	.byte	0xa
	.long	0x4b9
	.byte	0x18
	.uleb128 0x14
	.long	.LASF175
	.value	0x16e
	.byte	0xa
	.long	0x4b9
	.byte	0x20
	.uleb128 0x8
	.long	.LASF176
	.value	0x170
	.byte	0xa
	.long	0x4b9
	.byte	0x1
	.value	0x140
	.uleb128 0x8
	.long	.LASF177
	.value	0x171
	.byte	0x5
	.long	0x4b9
	.byte	0x1
	.value	0x141
	.uleb128 0x8
	.long	.LASF178
	.value	0x172
	.byte	0x5
	.long	0x4b9
	.byte	0x1
	.value	0x142
	.uleb128 0x8
	.long	.LASF179
	.value	0x173
	.byte	0x5
	.long	0x4b9
	.byte	0x1
	.value	0x143
	.uleb128 0x8
	.long	.LASF180
	.value	0x174
	.byte	0x5
	.long	0x4b9
	.byte	0x1
	.value	0x144
	.uleb128 0x8
	.long	.LASF181
	.value	0x175
	.byte	0x5
	.long	0x4b9
	.byte	0x1
	.value	0x145
	.uleb128 0x8
	.long	.LASF182
	.value	0x176
	.byte	0x5
	.long	0x4b9
	.byte	0x1
	.value	0x146
	.uleb128 0x8
	.long	.LASF183
	.value	0x177
	.byte	0x5
	.long	0x4b9
	.byte	0x1
	.value	0x147
	.uleb128 0x8
	.long	.LASF184
	.value	0x178
	.byte	0x5
	.long	0x4b9
	.byte	0x1
	.value	0x148
	.uleb128 0x8
	.long	.LASF185
	.value	0x179
	.byte	0x5
	.long	0x4b9
	.byte	0x1
	.value	0x149
	.uleb128 0x8
	.long	.LASF186
	.value	0x17a
	.byte	0x5
	.long	0x4b9
	.byte	0x1
	.value	0x14a
	.uleb128 0x8
	.long	.LASF187
	.value	0x17b
	.byte	0x5
	.long	0x4b9
	.byte	0x1
	.value	0x14b
	.uleb128 0x8
	.long	.LASF188
	.value	0x17c
	.byte	0x5
	.long	0x4b9
	.byte	0x1
	.value	0x14c
	.uleb128 0x8
	.long	.LASF189
	.value	0x17d
	.byte	0x5
	.long	0x4b9
	.byte	0x1
	.value	0x14d
	.uleb128 0x8
	.long	.LASF190
	.value	0x17e
	.byte	0x5
	.long	0x4b9
	.byte	0x1
	.value	0x14e
	.uleb128 0x8
	.long	.LASF191
	.value	0x189
	.byte	0x5
	.long	0x4b9
	.byte	0x2
	.value	0x14f
	.uleb128 0x8
	.long	.LASF192
	.value	0x18a
	.byte	0x5
	.long	0x4b9
	.byte	0x1
	.value	0x151
	.uleb128 0x8
	.long	.LASF193
	.value	0x18b
	.byte	0x5
	.long	0x4b9
	.byte	0x1
	.value	0x152
	.uleb128 0x8
	.long	.LASF194
	.value	0x18d
	.byte	0x5
	.long	0x4b9
	.byte	0x1
	.value	0x153
	.uleb128 0x8
	.long	.LASF195
	.value	0x18e
	.byte	0x5
	.long	0x4b9
	.byte	0x1
	.value	0x154
	.uleb128 0x8
	.long	.LASF196
	.value	0x190
	.byte	0x5
	.long	0x4b9
	.byte	0x1
	.value	0x155
	.uleb128 0x8
	.long	.LASF197
	.value	0x191
	.byte	0x5
	.long	0x4b9
	.byte	0x1
	.value	0x156
	.uleb128 0x8
	.long	.LASF198
	.value	0x192
	.byte	0x5
	.long	0x4b9
	.byte	0x1
	.value	0x157
	.uleb128 0x8
	.long	.LASF199
	.value	0x193
	.byte	0x5
	.long	0x4b9
	.byte	0x1
	.value	0x158
	.uleb128 0x8
	.long	.LASF200
	.value	0x194
	.byte	0x5
	.long	0x4b9
	.byte	0x1
	.value	0x159
	.uleb128 0x8
	.long	.LASF201
	.value	0x195
	.byte	0x5
	.long	0x4b9
	.byte	0x1
	.value	0x15a
	.uleb128 0x8
	.long	.LASF202
	.value	0x196
	.byte	0x5
	.long	0x4b9
	.byte	0x1
	.value	0x15b
	.uleb128 0x8
	.long	.LASF203
	.value	0x197
	.byte	0x5
	.long	0x4b9
	.byte	0x1
	.value	0x15c
	.uleb128 0x8
	.long	.LASF204
	.value	0x198
	.byte	0x5
	.long	0x4b9
	.byte	0x1
	.value	0x15d
	.uleb128 0x8
	.long	.LASF205
	.value	0x199
	.byte	0x5
	.long	0x4b9
	.byte	0x1
	.value	0x15e
	.uleb128 0x8
	.long	.LASF206
	.value	0x19a
	.byte	0x5
	.long	0x4b9
	.byte	0x1
	.value	0x15f
	.uleb128 0x8
	.long	.LASF207
	.value	0x19b
	.byte	0x5
	.long	0x4b9
	.byte	0x1
	.value	0x160
	.uleb128 0x8
	.long	.LASF208
	.value	0x19c
	.byte	0x5
	.long	0x4b9
	.byte	0x1
	.value	0x161
	.uleb128 0x8
	.long	.LASF209
	.value	0x19d
	.byte	0x5
	.long	0x4b9
	.byte	0x1
	.value	0x162
	.uleb128 0x8
	.long	.LASF210
	.value	0x19e
	.byte	0x5
	.long	0x4b9
	.byte	0x1
	.value	0x163
	.uleb128 0x8
	.long	.LASF211
	.value	0x19f
	.byte	0x5
	.long	0x4b9
	.byte	0x1
	.value	0x164
	.uleb128 0x8
	.long	.LASF212
	.value	0x1a0
	.byte	0x5
	.long	0x4b9
	.byte	0x1
	.value	0x165
	.uleb128 0x8
	.long	.LASF213
	.value	0x1a1
	.byte	0x5
	.long	0x4b9
	.byte	0x1a
	.value	0x166
	.uleb128 0x36
	.long	0x6d3
	.byte	0x30
	.uleb128 0x14
	.long	.LASF214
	.value	0x1a8
	.byte	0xa
	.long	0x4ad
	.byte	0x34
	.uleb128 0x36
	.long	0x6f2
	.byte	0x38
	.uleb128 0x36
	.long	0x727
	.byte	0x40
	.uleb128 0x14
	.long	.LASF215
	.value	0x1b5
	.byte	0x8
	.long	0x4b9
	.byte	0x48
	.uleb128 0x14
	.long	.LASF216
	.value	0x1bb
	.byte	0x8
	.long	0x4b9
	.byte	0x50
	.uleb128 0x14
	.long	.LASF217
	.value	0x1c0
	.byte	0x8
	.long	0x4ad
	.byte	0x58
	.uleb128 0x14
	.long	.LASF218
	.value	0x1c2
	.byte	0x8
	.long	0x4a1
	.byte	0x5c
	.uleb128 0x14
	.long	.LASF219
	.value	0x1cb
	.byte	0x8
	.long	0x4b9
	.byte	0x60
	.uleb128 0x14
	.long	.LASF220
	.value	0x1d0
	.byte	0x8
	.long	0x4ad
	.byte	0x68
	.uleb128 0x14
	.long	.LASF221
	.value	0x1d1
	.byte	0x8
	.long	0x495
	.byte	0x6c
	.uleb128 0x14
	.long	.LASF222
	.value	0x1d2
	.byte	0x8
	.long	0x495
	.byte	0x6e
	.uleb128 0x14
	.long	.LASF223
	.value	0x1d3
	.byte	0x8
	.long	0x4ad
	.byte	0x70
	.uleb128 0x14
	.long	.LASF224
	.value	0x1d4
	.byte	0x8
	.long	0x4ad
	.byte	0x74
	.uleb128 0x14
	.long	.LASF225
	.value	0x1da
	.byte	0x8
	.long	0x4b9
	.byte	0x78
	.byte	0
	.uleb128 0xc
	.long	.LASF226
	.byte	0x13
	.byte	0x1b
	.byte	0x14
	.long	0x77
	.uleb128 0x44
	.long	.LASF227
	.byte	0x2a
	.byte	0x12
	.long	0xa9a
	.byte	0x40
	.uleb128 0x44
	.long	.LASF228
	.byte	0x2b
	.byte	0x13
	.long	0xabe
	.byte	0x40
	.uleb128 0x10
	.long	0xa9a
	.uleb128 0x30
	.long	0xabe
	.uleb128 0x2d
	.long	.LASF230
	.byte	0x2e
	.byte	0x14
	.long	0xab2
	.uleb128 0x9
	.byte	0x3
	.quad	sub_space
	.uleb128 0x2d
	.long	.LASF231
	.byte	0x2f
	.byte	0x14
	.long	0xab2
	.uleb128 0x9
	.byte	0x3
	.quad	borrow_space
	.uleb128 0x2d
	.long	.LASF232
	.byte	0x31
	.byte	0x5
	.long	0x69
	.uleb128 0x9
	.byte	0x3
	.quad	sub_space_ptr
	.uleb128 0x2d
	.long	.LASF233
	.byte	0x32
	.byte	0x5
	.long	0x69
	.uleb128 0x9
	.byte	0x3
	.quad	borrow_space_ptr
	.uleb128 0x2d
	.long	.LASF234
	.byte	0x34
	.byte	0x10
	.long	0xaa6
	.uleb128 0x9
	.byte	0x3
	.quad	LIMB_DIGITS
	.uleb128 0x2d
	.long	.LASF235
	.byte	0x36
	.byte	0x5
	.long	0x69
	.uleb128 0x9
	.byte	0x3
	.quad	CORE_NO
	.uleb128 0x2d
	.long	.LASF236
	.byte	0x38
	.byte	0x5
	.long	0x69
	.uleb128 0x9
	.byte	0x3
	.quad	NUM_BITS
	.uleb128 0x1b
	.long	0x75c
	.long	0xb6b
	.uleb128 0x1c
	.long	0x3d
	.byte	0x5
	.byte	0
	.uleb128 0x45
	.string	"pe"
	.value	0x216
	.byte	0x18
	.long	0xb5b
	.uleb128 0x9
	.byte	0x3
	.quad	pe
	.uleb128 0x1b
	.long	0x69
	.long	0xb90
	.uleb128 0x1c
	.long	0x3d
	.byte	0x5
	.byte	0
	.uleb128 0x45
	.string	"fd"
	.value	0x217
	.byte	0x5
	.long	0xb80
	.uleb128 0x9
	.byte	0x3
	.quad	fd
	.uleb128 0x46
	.long	.LASF237
	.value	0x218
	.byte	0xb
	.long	0x2f1
	.uleb128 0x9
	.byte	0x3
	.quad	count
	.uleb128 0x1b
	.long	0x344
	.long	0xbcb
	.uleb128 0x1c
	.long	0x3d
	.byte	0x5
	.byte	0
	.uleb128 0x46
	.long	.LASF238
	.value	0x21a
	.byte	0xd
	.long	0xbbb
	.uleb128 0x9
	.byte	0x3
	.quad	event_names
	.uleb128 0x1d
	.long	.LASF239
	.byte	0x14
	.value	0x1d0
	.byte	0x15
	.long	0x44
	.long	0xbf8
	.uleb128 0x6
	.long	0x44
	.byte	0
	.uleb128 0x28
	.long	.LASF242
	.byte	0x10
	.value	0x420
	.byte	0x15
	.long	0xc15
	.uleb128 0x6
	.long	0x473
	.uleb128 0x6
	.long	0x462
	.uleb128 0x6
	.long	0x462
	.byte	0
	.uleb128 0x1d
	.long	.LASF240
	.byte	0x10
	.value	0x409
	.byte	0x14
	.long	0x69
	.long	0xc36
	.uleb128 0x6
	.long	0x473
	.uleb128 0x6
	.long	0x344
	.uleb128 0x6
	.long	0x69
	.byte	0
	.uleb128 0x1d
	.long	.LASF241
	.byte	0x10
	.value	0x341
	.byte	0x16
	.long	0xd7
	.long	0xc57
	.uleb128 0x6
	.long	0xd7
	.uleb128 0x6
	.long	0x69
	.uleb128 0x6
	.long	0x462
	.byte	0
	.uleb128 0x28
	.long	.LASF243
	.byte	0x10
	.value	0x453
	.byte	0x15
	.long	0xc74
	.uleb128 0x6
	.long	0x473
	.uleb128 0x6
	.long	0xc74
	.uleb128 0x6
	.long	0x361
	.byte	0
	.uleb128 0x10
	.long	0x43a
	.uleb128 0x28
	.long	.LASF244
	.byte	0x10
	.value	0x209
	.byte	0x15
	.long	0xc91
	.uleb128 0x6
	.long	0xc74
	.uleb128 0x6
	.long	0x3d
	.byte	0
	.uleb128 0x28
	.long	.LASF245
	.byte	0x10
	.value	0x1f7
	.byte	0x15
	.long	0xca4
	.uleb128 0x6
	.long	0xc74
	.byte	0
	.uleb128 0x28
	.long	.LASF246
	.byte	0x10
	.value	0x354
	.byte	0x15
	.long	0xcb7
	.uleb128 0x6
	.long	0x473
	.byte	0
	.uleb128 0x47
	.long	.LASF252
	.byte	0x7
	.value	0x1c6
	.byte	0xc
	.long	0x69
	.uleb128 0x28
	.long	.LASF247
	.byte	0x7
	.value	0x1c8
	.byte	0xd
	.long	0xcd7
	.uleb128 0x6
	.long	0x44
	.byte	0
	.uleb128 0x2e
	.long	.LASF248
	.byte	0x15
	.byte	0x2a
	.byte	0xc
	.long	0x69
	.long	0xcf3
	.uleb128 0x6
	.long	0x69
	.uleb128 0x6
	.long	0x3d
	.uleb128 0x20
	.byte	0
	.uleb128 0x1d
	.long	.LASF249
	.byte	0xc
	.value	0x102
	.byte	0xe
	.long	0x2db
	.long	0xd0f
	.uleb128 0x6
	.long	0x349
	.uleb128 0x6
	.long	0x349
	.byte	0
	.uleb128 0x2e
	.long	.LASF250
	.byte	0x6
	.byte	0x5d
	.byte	0xc
	.long	0x69
	.long	0xd30
	.uleb128 0x6
	.long	0x2e0
	.uleb128 0x6
	.long	0x69
	.uleb128 0x6
	.long	0x349
	.uleb128 0x20
	.byte	0
	.uleb128 0x1d
	.long	.LASF251
	.byte	0x16
	.value	0x1a3
	.byte	0xe
	.long	0xd7
	.long	0xd47
	.uleb128 0x6
	.long	0x69
	.byte	0
	.uleb128 0x5e
	.long	.LASF253
	.byte	0x17
	.byte	0x25
	.byte	0xd
	.long	0xd53
	.uleb128 0x10
	.long	0x69
	.uleb128 0x28
	.long	.LASF254
	.byte	0x7
	.value	0x22b
	.byte	0xd
	.long	0xd6b
	.uleb128 0x6
	.long	0x4b
	.byte	0
	.uleb128 0x1d
	.long	.LASF255
	.byte	0x16
	.value	0x197
	.byte	0xf
	.long	0x31
	.long	0xd82
	.uleb128 0x6
	.long	0x344
	.byte	0
	.uleb128 0x1d
	.long	.LASF256
	.byte	0x7
	.value	0x21f
	.byte	0xe
	.long	0x4b
	.long	0xd9e
	.uleb128 0x6
	.long	0x31
	.uleb128 0x6
	.long	0x31
	.byte	0
	.uleb128 0x2e
	.long	.LASF257
	.byte	0x5
	.byte	0x20
	.byte	0xc
	.long	0x69
	.long	0xdbe
	.uleb128 0x6
	.long	0xdbe
	.uleb128 0x6
	.long	0x31
	.uleb128 0x6
	.long	0x31
	.byte	0
	.uleb128 0x10
	.long	0x4b
	.uleb128 0x1d
	.long	.LASF258
	.byte	0x7
	.value	0x21c
	.byte	0xe
	.long	0x4b
	.long	0xdda
	.uleb128 0x6
	.long	0x31
	.byte	0
	.uleb128 0x2e
	.long	.LASF259
	.byte	0x7
	.byte	0xb1
	.byte	0x11
	.long	0x70
	.long	0xdfa
	.uleb128 0x6
	.long	0x349
	.uleb128 0x6
	.long	0x490
	.uleb128 0x6
	.long	0x69
	.byte	0
	.uleb128 0x2e
	.long	.LASF260
	.byte	0x6
	.byte	0x5f
	.byte	0xc
	.long	0x69
	.long	0xe16
	.uleb128 0x6
	.long	0x69
	.uleb128 0x6
	.long	0x344
	.uleb128 0x20
	.byte	0
	.uleb128 0x5f
	.long	.LASF261
	.byte	0x18
	.byte	0x45
	.byte	0xd
	.long	0xe37
	.uleb128 0x6
	.long	0x344
	.uleb128 0x6
	.long	0x344
	.uleb128 0x6
	.long	0x44
	.uleb128 0x6
	.long	0x344
	.byte	0
	.uleb128 0x2e
	.long	.LASF262
	.byte	0x3
	.byte	0x17
	.byte	0x10
	.long	0x2cf
	.long	0xe5c
	.uleb128 0x6
	.long	0x69
	.uleb128 0x6
	.long	0x4b
	.uleb128 0x6
	.long	0x31
	.uleb128 0x6
	.long	0x31
	.byte	0
	.uleb128 0x3f
	.long	.LASF263
	.byte	0x3
	.byte	0x1d
	.byte	0x10
	.long	.LASF262
	.long	0x2cf
	.long	0xe85
	.uleb128 0x6
	.long	0x69
	.uleb128 0x6
	.long	0x4b
	.uleb128 0x6
	.long	0x31
	.uleb128 0x6
	.long	0x31
	.byte	0
	.uleb128 0x3f
	.long	.LASF264
	.byte	0x3
	.byte	0x1a
	.byte	0x10
	.long	.LASF265
	.long	0x2cf
	.long	0xea9
	.uleb128 0x6
	.long	0x69
	.uleb128 0x6
	.long	0x4b
	.uleb128 0x6
	.long	0x31
	.byte	0
	.uleb128 0x3f
	.long	.LASF266
	.byte	0x2
	.byte	0x1b
	.byte	0xc
	.long	.LASF267
	.long	0x69
	.long	0xec9
	.uleb128 0x6
	.long	0x344
	.uleb128 0x6
	.long	0x69
	.uleb128 0x20
	.byte	0
	.uleb128 0x2e
	.long	.LASF268
	.byte	0x2
	.byte	0x1a
	.byte	0xc
	.long	0x69
	.long	0xee4
	.uleb128 0x6
	.long	0x344
	.uleb128 0x6
	.long	0x69
	.byte	0
	.uleb128 0x48
	.long	.LASF269
	.byte	0x25
	.uleb128 0x48
	.long	.LASF270
	.byte	0x23
	.uleb128 0x47
	.long	.LASF271
	.byte	0x14
	.value	0x28a
	.byte	0x10
	.long	0x9b
	.uleb128 0x1d
	.long	.LASF272
	.byte	0x14
	.value	0x166
	.byte	0xc
	.long	0x69
	.long	0xf14
	.uleb128 0x6
	.long	0x69
	.byte	0
	.uleb128 0x60
	.long	.LASF273
	.byte	0x7
	.value	0x270
	.byte	0xd
	.long	0xf27
	.uleb128 0x6
	.long	0x69
	.byte	0
	.uleb128 0x28
	.long	.LASF274
	.byte	0xc
	.value	0x324
	.byte	0xd
	.long	0xf3a
	.uleb128 0x6
	.long	0x344
	.byte	0
	.uleb128 0x1d
	.long	.LASF275
	.byte	0x19
	.value	0x117
	.byte	0xc
	.long	0x69
	.long	0xf56
	.uleb128 0x6
	.long	0x304
	.uleb128 0x6
	.long	0xf56
	.byte	0
	.uleb128 0x10
	.long	0x310
	.uleb128 0x1d
	.long	.LASF276
	.byte	0x14
	.value	0x443
	.byte	0x11
	.long	0x70
	.long	0xf73
	.uleb128 0x6
	.long	0x70
	.uleb128 0x20
	.byte	0
	.uleb128 0x49
	.long	.LASF277
	.value	0x348
	.quad	.LFB5800
	.quad	.LFE5800-.LFB5800
	.uleb128 0x1
	.byte	0x9c
	.long	0x27f3
	.uleb128 0x15
	.long	.LASF278
	.value	0x34b
	.byte	0xa
	.long	0x27f3
	.uleb128 0x3
	.byte	0x76
	.sleb128 -1088
	.uleb128 0x15
	.long	.LASF279
	.value	0x34c
	.byte	0xa
	.long	0x27f3
	.uleb128 0x3
	.byte	0x76
	.sleb128 -832
	.uleb128 0x15
	.long	.LASF280
	.value	0x34d
	.byte	0xa
	.long	0x27f3
	.uleb128 0x3
	.byte	0x76
	.sleb128 -576
	.uleb128 0x15
	.long	.LASF281
	.value	0x34e
	.byte	0xa
	.long	0x27f3
	.uleb128 0x3
	.byte	0x76
	.sleb128 -320
	.uleb128 0xb
	.long	.LASF282
	.value	0x354
	.byte	0xb
	.long	0x2db
	.long	.LLST190
	.long	.LVUS190
	.uleb128 0xb
	.long	.LASF283
	.value	0x355
	.byte	0xb
	.long	0x2db
	.long	.LLST191
	.long	.LVUS191
	.uleb128 0x1e
	.long	.LASF284
	.value	0x356
	.byte	0xb
	.long	0x2db
	.uleb128 0x1e
	.long	.LASF285
	.value	0x357
	.byte	0xb
	.long	0x2db
	.uleb128 0x15
	.long	.LASF286
	.value	0x359
	.byte	0xf
	.long	0x2803
	.uleb128 0x3
	.byte	0x76
	.sleb128 -1136
	.uleb128 0x15
	.long	.LASF287
	.value	0x35c
	.byte	0xb
	.long	0x3b2
	.uleb128 0x3
	.byte	0x76
	.sleb128 -1232
	.uleb128 0x15
	.long	.LASF288
	.value	0x35e
	.byte	0x15
	.long	0x446
	.uleb128 0x3
	.byte	0x76
	.sleb128 -1168
	.uleb128 0xb
	.long	.LASF289
	.value	0x35f
	.byte	0x13
	.long	0x3d
	.long	.LLST192
	.long	.LVUS192
	.uleb128 0xb
	.long	.LASF290
	.value	0x363
	.byte	0xb
	.long	0xd7
	.long	.LLST193
	.long	.LVUS193
	.uleb128 0x61
	.string	"n"
	.byte	0x1
	.value	0x364
	.byte	0x9
	.long	0x69
	.uleb128 0x3
	.byte	0x76
	.sleb128 -1344
	.uleb128 0x1e
	.long	.LASF291
	.value	0x366
	.byte	0x9
	.long	0x69
	.uleb128 0x21
	.string	"sub"
	.value	0x368
	.byte	0x18
	.long	0xab2
	.uleb128 0xb
	.long	.LASF292
	.value	0x376
	.byte	0xc
	.long	0x2a
	.long	.LLST194
	.long	.LVUS194
	.uleb128 0xb
	.long	.LASF293
	.value	0x377
	.byte	0xc
	.long	0x2a
	.long	.LLST195
	.long	.LVUS195
	.uleb128 0xb
	.long	.LASF294
	.value	0x379
	.byte	0x18
	.long	0x337
	.long	.LLST196
	.long	.LVUS196
	.uleb128 0xb
	.long	.LASF295
	.value	0x379
	.byte	0x25
	.long	0x337
	.long	.LLST197
	.long	.LVUS197
	.uleb128 0xb
	.long	.LASF296
	.value	0x37a
	.byte	0x18
	.long	0x337
	.long	.LLST198
	.long	.LVUS198
	.uleb128 0xb
	.long	.LASF297
	.value	0x37a
	.byte	0x29
	.long	0x337
	.long	.LLST199
	.long	.LVUS199
	.uleb128 0x1e
	.long	.LASF298
	.value	0x37b
	.byte	0xe
	.long	0x44
	.uleb128 0x1e
	.long	.LASF299
	.value	0x37b
	.byte	0x1a
	.long	0x44
	.uleb128 0x1e
	.long	.LASF300
	.value	0x37b
	.byte	0x27
	.long	0x44
	.uleb128 0x1e
	.long	.LASF301
	.value	0x37b
	.byte	0x34
	.long	0x44
	.uleb128 0x1e
	.long	.LASF302
	.value	0x37c
	.byte	0x13
	.long	0x3d
	.uleb128 0x1e
	.long	.LASF303
	.value	0x37d
	.byte	0xe
	.long	0xa9a
	.uleb128 0x21
	.string	"end"
	.value	0x37d
	.byte	0x15
	.long	0xa9a
	.uleb128 0xb
	.long	.LASF304
	.value	0x37f
	.byte	0x18
	.long	0x337
	.long	.LLST200
	.long	.LVUS200
	.uleb128 0xb
	.long	.LASF305
	.value	0x37f
	.byte	0x29
	.long	0x337
	.long	.LLST201
	.long	.LVUS201
	.uleb128 0x23
	.long	.LLRL249
	.long	0x1f4b
	.uleb128 0x11
	.string	"i"
	.value	0x381
	.byte	0xe
	.long	0x69
	.long	.LLST250
	.long	.LVUS250
	.uleb128 0x12
	.long	.LLRL251
	.uleb128 0x15
	.long	.LASF306
	.value	0x384
	.byte	0x1c
	.long	0xab2
	.uleb128 0x3
	.byte	0x76
	.sleb128 -1328
	.uleb128 0x15
	.long	.LASF307
	.value	0x384
	.byte	0x26
	.long	0xab2
	.uleb128 0x3
	.byte	0x76
	.sleb128 -1264
	.uleb128 0xb
	.long	.LASF308
	.value	0x399
	.byte	0xf
	.long	0xd7
	.long	.LLST252
	.long	.LVUS252
	.uleb128 0xb
	.long	.LASF309
	.value	0x39a
	.byte	0xf
	.long	0xd7
	.long	.LLST253
	.long	.LVUS253
	.uleb128 0x15
	.long	.LASF310
	.value	0x3a0
	.byte	0xd
	.long	0x69
	.uleb128 0x3
	.byte	0x76
	.sleb128 -1340
	.uleb128 0x15
	.long	.LASF311
	.value	0x3a1
	.byte	0xd
	.long	0x69
	.uleb128 0x3
	.byte	0x76
	.sleb128 -1336
	.uleb128 0xb
	.long	.LASF312
	.value	0x3a4
	.byte	0x1c
	.long	0xab2
	.long	.LLST254
	.long	.LVUS254
	.uleb128 0xb
	.long	.LASF313
	.value	0x3a6
	.byte	0x1c
	.long	0xab2
	.long	.LLST255
	.long	.LVUS255
	.uleb128 0xb
	.long	.LASF314
	.value	0x3aa
	.byte	0x1c
	.long	0xab2
	.long	.LLST256
	.long	.LVUS256
	.uleb128 0x15
	.long	.LASF315
	.value	0x3ab
	.byte	0xd
	.long	0x69
	.uleb128 0x3
	.byte	0x76
	.sleb128 -1332
	.uleb128 0x15
	.long	.LASF316
	.value	0x3da
	.byte	0xf
	.long	0x3b2
	.uleb128 0x3
	.byte	0x76
	.sleb128 -1216
	.uleb128 0x15
	.long	.LASF317
	.value	0x3da
	.byte	0x1d
	.long	0x3b2
	.uleb128 0x3
	.byte	0x76
	.sleb128 -1200
	.uleb128 0x15
	.long	.LASF318
	.value	0x3da
	.byte	0x2b
	.long	0x3b2
	.uleb128 0x3
	.byte	0x76
	.sleb128 -1184
	.uleb128 0xb
	.long	.LASF319
	.value	0x40a
	.byte	0xf
	.long	0xd7
	.long	.LLST257
	.long	.LVUS257
	.uleb128 0xb
	.long	.LASF320
	.value	0x40d
	.byte	0xf
	.long	0xd7
	.long	.LLST258
	.long	.LVUS258
	.uleb128 0x9
	.long	0x2813
	.quad	.LBI599
	.value	.LVU1423
	.long	.LLRL259
	.value	0x399
	.byte	0x1e
	.long	0x138b
	.uleb128 0x24
	.long	0x2832
	.uleb128 0x2
	.long	0x2825
	.long	.LLST260
	.long	.LVUS260
	.uleb128 0x12
	.long	.LLRL259
	.uleb128 0x7
	.long	0x283d
	.long	.LLST261
	.long	.LVUS261
	.uleb128 0x31
	.long	0x2849
	.long	.LLRL262
	.long	0x1308
	.uleb128 0x7
	.long	0x284a
	.long	.LLST263
	.long	.LVUS263
	.byte	0
	.uleb128 0xe
	.long	0x2813
	.quad	.LBI604
	.value	.LVU2740
	.quad	.LBB604
	.quad	.LBE604-.LBB604
	.value	0x32e
	.byte	0x7
	.long	0x1370
	.uleb128 0x24
	.long	0x2825
	.uleb128 0x24
	.long	0x2832
	.uleb128 0xf
	.long	0x283d
	.uleb128 0x4
	.quad	.LVL654
	.long	0xf27
	.long	0x135c
	.uleb128 0x1
	.uleb128 0x1
	.byte	0x55
	.uleb128 0x9
	.byte	0x3
	.quad	.LC23
	.byte	0
	.uleb128 0x3
	.quad	.LVL655
	.long	0xf14
	.uleb128 0x1
	.uleb128 0x1
	.byte	0x55
	.uleb128 0x1
	.byte	0x30
	.byte	0
	.byte	0
	.uleb128 0x3
	.quad	.LVL405
	.long	0xd82
	.uleb128 0x1
	.uleb128 0x1
	.byte	0x55
	.uleb128 0x2
	.byte	0x7c
	.sleb128 0
	.uleb128 0x1
	.uleb128 0x1
	.byte	0x54
	.uleb128 0x1
	.byte	0x31
	.byte	0
	.byte	0
	.byte	0
	.uleb128 0x9
	.long	0x2813
	.quad	.LBI610
	.value	.LVU1565
	.long	.LLRL264
	.value	0x39a
	.byte	0x1e
	.long	0x141c
	.uleb128 0x24
	.long	0x2832
	.uleb128 0x2
	.long	0x2825
	.long	.LLST265
	.long	.LVUS265
	.uleb128 0x12
	.long	.LLRL264
	.uleb128 0x7
	.long	0x283d
	.long	.LLST266
	.long	.LVUS266
	.uleb128 0x31
	.long	0x2849
	.long	.LLRL267
	.long	0x13e4
	.uleb128 0x7
	.long	0x284a
	.long	.LLST268
	.long	.LVUS268
	.byte	0
	.uleb128 0x4
	.quad	.LVL428
	.long	0xd82
	.long	0x1401
	.uleb128 0x1
	.uleb128 0x1
	.byte	0x55
	.uleb128 0x2
	.byte	0x7c
	.sleb128 0
	.uleb128 0x1
	.uleb128 0x1
	.byte	0x54
	.uleb128 0x1
	.byte	0x31
	.byte	0
	.uleb128 0x3
	.quad	.LVL651
	.long	0xd82
	.uleb128 0x1
	.uleb128 0x1
	.byte	0x55
	.uleb128 0x2
	.byte	0x7c
	.sleb128 0
	.uleb128 0x1
	.uleb128 0x1
	.byte	0x54
	.uleb128 0x1
	.byte	0x31
	.byte	0
	.byte	0
	.byte	0
	.uleb128 0x9
	.long	0x44e2
	.quad	.LBI620
	.value	.LVU1727
	.long	.LLRL269
	.value	0x3b0
	.byte	0x9
	.long	0x1451
	.uleb128 0x12
	.long	.LLRL269
	.uleb128 0xf
	.long	0x44ef
	.uleb128 0xf
	.long	0x44fb
	.uleb128 0xf
	.long	0x4507
	.uleb128 0xf
	.long	0x4513
	.byte	0
	.byte	0
	.uleb128 0x9
	.long	0x2e5b
	.quad	.LBI623
	.value	.LVU1733
	.long	.LLRL270
	.value	0x3ba
	.byte	0x9
	.long	0x14bb
	.uleb128 0x40
	.long	0x2e66
	.long	.LLRL270
	.uleb128 0x7
	.long	0x2e67
	.long	.LLST271
	.long	.LVUS271
	.uleb128 0x4
	.quad	.LVL460
	.long	0xcd7
	.long	0x149f
	.uleb128 0x1
	.uleb128 0x1
	.byte	0x54
	.uleb128 0x3
	.byte	0xa
	.value	0x2403
	.uleb128 0x1
	.uleb128 0x1
	.byte	0x51
	.uleb128 0x1
	.byte	0x30
	.byte	0
	.uleb128 0x3
	.quad	.LVL461
	.long	0xcd7
	.uleb128 0x1
	.uleb128 0x1
	.byte	0x54
	.uleb128 0x3
	.byte	0xa
	.value	0x2400
	.uleb128 0x1
	.uleb128 0x1
	.byte	0x51
	.uleb128 0x1
	.byte	0x30
	.byte	0
	.byte	0
	.byte	0
	.uleb128 0x9
	.long	0x44af
	.quad	.LBI628
	.value	.LVU1744
	.long	.LLRL272
	.value	0x3be
	.byte	0x17
	.long	0x1503
	.uleb128 0x12
	.long	.LLRL272
	.uleb128 0x7
	.long	0x44bd
	.long	.LLST273
	.long	.LVUS273
	.uleb128 0x7
	.long	0x44c9
	.long	.LLST274
	.long	.LVUS274
	.uleb128 0x7
	.long	0x44d5
	.long	.LLST275
	.long	.LVUS275
	.byte	0
	.byte	0
	.uleb128 0x9
	.long	0x40de
	.quad	.LBI633
	.value	.LVU1761
	.long	.LLRL276
	.value	0x3c1
	.byte	0x9
	.long	0x172d
	.uleb128 0x2
	.long	0x4114
	.long	.LLST277
	.long	.LVUS277
	.uleb128 0x2
	.long	0x410a
	.long	.LLST278
	.long	.LVUS278
	.uleb128 0x2
	.long	0x40fe
	.long	.LLST279
	.long	.LVUS279
	.uleb128 0x2
	.long	0x40f4
	.long	.LLST280
	.long	.LVUS280
	.uleb128 0x2
	.long	0x40ea
	.long	.LLST281
	.long	.LVUS281
	.uleb128 0x12
	.long	.LLRL276
	.uleb128 0x7
	.long	0x4120
	.long	.LLST282
	.long	.LVUS282
	.uleb128 0x7
	.long	0x412c
	.long	.LLST283
	.long	.LVUS283
	.uleb128 0x7
	.long	0x4138
	.long	.LLST284
	.long	.LVUS284
	.uleb128 0x7
	.long	0x4144
	.long	.LLST285
	.long	.LVUS285
	.uleb128 0xf
	.long	0x414c
	.uleb128 0x37
	.long	0x418a
	.quad	.LBI635
	.value	.LVU1767
	.long	.LLRL286
	.byte	0xc4
	.byte	0x14
	.long	0x15f0
	.uleb128 0x2
	.long	0x41ae
	.long	.LLST287
	.long	.LVUS287
	.uleb128 0x2
	.long	0x41a4
	.long	.LLST288
	.long	.LVUS288
	.uleb128 0x2
	.long	0x419a
	.long	.LLST289
	.long	.LVUS289
	.uleb128 0x12
	.long	.LLRL286
	.uleb128 0x7
	.long	0x41b8
	.long	.LLST290
	.long	.LVUS290
	.byte	0
	.byte	0
	.uleb128 0x38
	.long	0x4167
	.quad	.LBI640
	.value	.LVU1925
	.long	.LLRL291
	.byte	0xe5
	.byte	0x5
	.uleb128 0x2
	.long	0x417f
	.long	.LLST292
	.long	.LVUS292
	.uleb128 0x2
	.long	0x4173
	.long	.LLST293
	.long	.LVUS293
	.uleb128 0x37
	.long	0x4167
	.quad	.LBI642
	.value	.LVU2423
	.long	.LLRL294
	.byte	0xac
	.byte	0x6
	.long	0x16c1
	.uleb128 0x2
	.long	0x417f
	.long	.LLST295
	.long	.LVUS295
	.uleb128 0x2
	.long	0x4173
	.long	.LLST296
	.long	.LVUS296
	.uleb128 0x62
	.long	0x45f5
	.quad	.LBI644
	.value	.LVU2425
	.quad	.LBB644
	.quad	.LBE644-.LBB644
	.byte	0x1
	.byte	0xb1
	.byte	0x9
	.uleb128 0x2
	.long	0x461c
	.long	.LLST297
	.long	.LVUS297
	.uleb128 0x2
	.long	0x4610
	.long	.LLST298
	.long	.LVUS298
	.uleb128 0x2
	.long	0x4604
	.long	.LLST299
	.long	.LVUS299
	.uleb128 0x3
	.quad	.LVL592
	.long	0x4f05
	.uleb128 0x1
	.uleb128 0x1
	.byte	0x55
	.uleb128 0x7
	.byte	0x7d
	.sleb128 0
	.byte	0x76
	.sleb128 -1392
	.byte	0x6
	.byte	0x22
	.uleb128 0x1
	.uleb128 0x1
	.byte	0x54
	.uleb128 0x1
	.byte	0x30
	.uleb128 0x1
	.uleb128 0x1
	.byte	0x51
	.uleb128 0x2
	.byte	0x7c
	.sleb128 0
	.byte	0
	.byte	0
	.byte	0
	.uleb128 0x38
	.long	0x4629
	.quad	.LBI648
	.value	.LVU1934
	.long	.LLRL300
	.byte	0xb6
	.byte	0x5
	.uleb128 0x2
	.long	0x4650
	.long	.LLST301
	.long	.LVUS301
	.uleb128 0x2
	.long	0x4644
	.long	.LLST302
	.long	.LVUS302
	.uleb128 0x2
	.long	0x4638
	.long	.LLST303
	.long	.LVUS303
	.uleb128 0x3
	.quad	.LVL478
	.long	0x4f0e
	.uleb128 0x1
	.uleb128 0x1
	.byte	0x55
	.uleb128 0x7
	.byte	0x7d
	.sleb128 0
	.byte	0x76
	.sleb128 -1392
	.byte	0x6
	.byte	0x22
	.uleb128 0x1
	.uleb128 0x1
	.byte	0x54
	.uleb128 0x9
	.byte	0x7d
	.sleb128 0
	.byte	0x76
	.sleb128 -1392
	.byte	0x6
	.byte	0x22
	.byte	0x23
	.uleb128 0x8
	.uleb128 0x1
	.uleb128 0x1
	.byte	0x51
	.uleb128 0x2
	.byte	0x7c
	.sleb128 -8
	.byte	0
	.byte	0
	.byte	0
	.byte	0
	.byte	0
	.uleb128 0xe
	.long	0x447c
	.quad	.LBI671
	.value	.LVU2151
	.quad	.LBB671
	.quad	.LBE671-.LBB671
	.value	0x3c3
	.byte	0x15
	.long	0x177b
	.uleb128 0x7
	.long	0x448a
	.long	.LLST304
	.long	.LVUS304
	.uleb128 0x7
	.long	0x4496
	.long	.LLST305
	.long	.LVUS305
	.uleb128 0x7
	.long	0x44a2
	.long	.LLST306
	.long	.LVUS306
	.byte	0
	.uleb128 0x9
	.long	0x2e29
	.quad	.LBI673
	.value	.LVU2164
	.long	.LLRL307
	.value	0x3c9
	.byte	0x9
	.long	0x1847
	.uleb128 0x29
	.long	0x2e34
	.quad	.LBB674
	.quad	.LBE674-.LBB674
	.long	0x17d6
	.uleb128 0x7
	.long	0x2e35
	.long	.LLST308
	.long	.LVUS308
	.uleb128 0x3
	.quad	.LVL507
	.long	0xcd7
	.uleb128 0x1
	.uleb128 0x1
	.byte	0x54
	.uleb128 0x3
	.byte	0xa
	.value	0x2401
	.uleb128 0x1
	.uleb128 0x1
	.byte	0x51
	.uleb128 0x1
	.byte	0x30
	.byte	0
	.byte	0
	.uleb128 0x33
	.long	0x2e29
	.quad	.LBI675
	.value	.LVU2988
	.quad	.LBB675
	.quad	.LBE675-.LBB675
	.value	0x28d
	.byte	0x6
	.uleb128 0x39
	.long	0x2e34
	.quad	.LBB676
	.quad	.LBE676-.LBB676
	.uleb128 0xf
	.long	0x2e35
	.uleb128 0x4
	.quad	.LVL712
	.long	0xf27
	.long	0x1831
	.uleb128 0x1
	.uleb128 0x1
	.byte	0x55
	.uleb128 0x9
	.byte	0x3
	.quad	.LC17
	.byte	0
	.uleb128 0x3
	.quad	.LVL713
	.long	0xf14
	.uleb128 0x1
	.uleb128 0x1
	.byte	0x55
	.uleb128 0x1
	.byte	0x31
	.byte	0
	.byte	0
	.byte	0
	.byte	0
	.uleb128 0x63
	.long	0x2eab
	.long	.LLRL309
	.byte	0x1
	.value	0x3d5
	.byte	0x9
	.long	0x1926
	.uleb128 0x24
	.long	0x2ec3
	.uleb128 0x24
	.long	0x2eb6
	.uleb128 0x29
	.long	0x2ed0
	.quad	.LBB678
	.quad	.LBE678-.LBB678
	.long	0x18d9
	.uleb128 0x7
	.long	0x2ed1
	.long	.LLST310
	.long	.LVUS310
	.uleb128 0x1f
	.long	0x469a
	.quad	.LBI679
	.value	.LVU2177
	.long	.LLRL311
	.value	0x27d
	.byte	0x9
	.uleb128 0x2
	.long	0x46b5
	.long	.LLST312
	.long	.LVUS312
	.uleb128 0x2
	.long	0x46a9
	.long	.LLST313
	.long	.LVUS313
	.uleb128 0x3
	.quad	.LVL514
	.long	0xd0f
	.uleb128 0x1
	.uleb128 0x1
	.byte	0x55
	.uleb128 0x2
	.byte	0x7e
	.sleb128 0
	.uleb128 0x1
	.uleb128 0x1
	.byte	0x54
	.uleb128 0x1
	.byte	0x31
	.uleb128 0x1
	.uleb128 0x1
	.byte	0x51
	.uleb128 0x2
	.byte	0x7d
	.sleb128 0
	.byte	0
	.byte	0
	.byte	0
	.uleb128 0x1f
	.long	0x469a
	.quad	.LBI683
	.value	.LVU2189
	.long	.LLRL314
	.value	0x27f
	.byte	0x5
	.uleb128 0x2
	.long	0x46b5
	.long	.LLST315
	.long	.LVUS315
	.uleb128 0x2
	.long	0x46a9
	.long	.LLST316
	.long	.LVUS316
	.uleb128 0x3
	.quad	.LVL516
	.long	0x4f1d
	.uleb128 0x1
	.uleb128 0x1
	.byte	0x55
	.uleb128 0x1
	.byte	0x3a
	.uleb128 0x1
	.uleb128 0x1
	.byte	0x54
	.uleb128 0x4
	.byte	0x76
	.sleb128 -1408
	.byte	0x6
	.byte	0
	.byte	0
	.byte	0
	.uleb128 0x9
	.long	0x44e2
	.quad	.LBI690
	.value	.LVU2207
	.long	.LLRL317
	.value	0x3e2
	.byte	0x9
	.long	0x195b
	.uleb128 0x12
	.long	.LLRL317
	.uleb128 0xf
	.long	0x44ef
	.uleb128 0xf
	.long	0x44fb
	.uleb128 0xf
	.long	0x4507
	.uleb128 0xf
	.long	0x4513
	.byte	0
	.byte	0
	.uleb128 0x9
	.long	0x2e5b
	.quad	.LBI693
	.value	.LVU2213
	.long	.LLRL318
	.value	0x3ec
	.byte	0x9
	.long	0x19c5
	.uleb128 0x40
	.long	0x2e66
	.long	.LLRL318
	.uleb128 0x7
	.long	0x2e67
	.long	.LLST319
	.long	.LVUS319
	.uleb128 0x4
	.quad	.LVL529
	.long	0xcd7
	.long	0x19a9
	.uleb128 0x1
	.uleb128 0x1
	.byte	0x54
	.uleb128 0x3
	.byte	0xa
	.value	0x2403
	.uleb128 0x1
	.uleb128 0x1
	.byte	0x51
	.uleb128 0x1
	.byte	0x30
	.byte	0
	.uleb128 0x3
	.quad	.LVL530
	.long	0xcd7
	.uleb128 0x1
	.uleb128 0x1
	.byte	0x54
	.uleb128 0x3
	.byte	0xa
	.value	0x2400
	.uleb128 0x1
	.uleb128 0x1
	.byte	0x51
	.uleb128 0x1
	.byte	0x30
	.byte	0
	.byte	0
	.byte	0
	.uleb128 0x9
	.long	0x44af
	.quad	.LBI698
	.value	.LVU2224
	.long	.LLRL320
	.value	0x3ef
	.byte	0x1b
	.long	0x1a0d
	.uleb128 0x12
	.long	.LLRL320
	.uleb128 0x7
	.long	0x44bd
	.long	.LLST321
	.long	.LVUS321
	.uleb128 0x7
	.long	0x44c9
	.long	.LLST322
	.long	.LVUS322
	.uleb128 0x7
	.long	0x44d5
	.long	.LLST323
	.long	.LVUS323
	.byte	0
	.byte	0
	.uleb128 0xe
	.long	0x447c
	.quad	.LBI704
	.value	.LVU2240
	.quad	.LBB704
	.quad	.LBE704-.LBB704
	.value	0x3f4
	.byte	0x19
	.long	0x1a5b
	.uleb128 0x7
	.long	0x448a
	.long	.LLST324
	.long	.LVUS324
	.uleb128 0x7
	.long	0x4496
	.long	.LLST325
	.long	.LVUS325
	.uleb128 0x7
	.long	0x44a2
	.long	.LLST326
	.long	.LVUS326
	.byte	0
	.uleb128 0xe
	.long	0x2e29
	.quad	.LBI706
	.value	.LVU2252
	.quad	.LBB706
	.quad	.LBE706-.LBB706
	.value	0x3f9
	.byte	0x9
	.long	0x1abf
	.uleb128 0x39
	.long	0x2e34
	.quad	.LBB707
	.quad	.LBE707-.LBB707
	.uleb128 0x7
	.long	0x2e35
	.long	.LLST327
	.long	.LVUS327
	.uleb128 0x3
	.quad	.LVL537
	.long	0xcd7
	.uleb128 0x1
	.uleb128 0x1
	.byte	0x54
	.uleb128 0x3
	.byte	0xa
	.value	0x2401
	.uleb128 0x1
	.uleb128 0x1
	.byte	0x51
	.uleb128 0x1
	.byte	0x30
	.byte	0
	.byte	0
	.byte	0
	.uleb128 0x64
	.long	0x2eab
	.quad	.LBB708
	.quad	.LBE708-.LBB708
	.byte	0x1
	.value	0x405
	.byte	0x9
	.long	0x1bb6
	.uleb128 0x24
	.long	0x2ec3
	.uleb128 0x24
	.long	0x2eb6
	.uleb128 0x29
	.long	0x2ed0
	.quad	.LBB709
	.quad	.LBE709-.LBB709
	.long	0x1b5d
	.uleb128 0x7
	.long	0x2ed1
	.long	.LLST328
	.long	.LVUS328
	.uleb128 0x1f
	.long	0x469a
	.quad	.LBI710
	.value	.LVU2265
	.long	.LLRL329
	.value	0x27d
	.byte	0x9
	.uleb128 0x2
	.long	0x46b5
	.long	.LLST330
	.long	.LVUS330
	.uleb128 0x2
	.long	0x46a9
	.long	.LLST331
	.long	.LVUS331
	.uleb128 0x3
	.quad	.LVL544
	.long	0xd0f
	.uleb128 0x1
	.uleb128 0x1
	.byte	0x55
	.uleb128 0x2
	.byte	0x7e
	.sleb128 0
	.uleb128 0x1
	.uleb128 0x1
	.byte	0x54
	.uleb128 0x1
	.byte	0x31
	.uleb128 0x1
	.uleb128 0x1
	.byte	0x51
	.uleb128 0x2
	.byte	0x7d
	.sleb128 0
	.byte	0
	.byte	0
	.byte	0
	.uleb128 0x33
	.long	0x469a
	.quad	.LBI714
	.value	.LVU2274
	.quad	.LBB714
	.quad	.LBE714-.LBB714
	.value	0x27f
	.byte	0x5
	.uleb128 0x2
	.long	0x46b5
	.long	.LLST332
	.long	.LVUS332
	.uleb128 0x2
	.long	0x46a9
	.long	.LLST333
	.long	.LVUS333
	.uleb128 0x3
	.quad	.LVL546
	.long	0x4f1d
	.uleb128 0x1
	.uleb128 0x1
	.byte	0x55
	.uleb128 0x1
	.byte	0x3a
	.uleb128 0x1
	.uleb128 0x1
	.byte	0x54
	.uleb128 0x4
	.byte	0x76
	.sleb128 -1432
	.byte	0x6
	.byte	0
	.byte	0
	.byte	0
	.uleb128 0x9
	.long	0x2c65
	.quad	.LBI716
	.value	.LVU2292
	.long	.LLRL334
	.value	0x410
	.byte	0xe
	.long	0x1c4b
	.uleb128 0x2
	.long	0x2c91
	.long	.LLST335
	.long	.LVUS335
	.uleb128 0x2
	.long	0x2c84
	.long	.LLST336
	.long	.LVUS336
	.uleb128 0x2
	.long	0x2c77
	.long	.LLST337
	.long	.LVUS337
	.uleb128 0x29
	.long	0x2c9e
	.quad	.LBB718
	.quad	.LBE718-.LBB718
	.long	0x1c1e
	.uleb128 0x7
	.long	0x2c9f
	.long	.LLST338
	.long	.LVUS338
	.byte	0
	.uleb128 0x4
	.quad	.LVL553
	.long	0xd6b
	.long	0x1c36
	.uleb128 0x1
	.uleb128 0x1
	.byte	0x55
	.uleb128 0x2
	.byte	0x7c
	.sleb128 0
	.byte	0
	.uleb128 0x3
	.quad	.LVL554
	.long	0xd6b
	.uleb128 0x1
	.uleb128 0x1
	.byte	0x55
	.uleb128 0x2
	.byte	0x7d
	.sleb128 0
	.byte	0
	.byte	0
	.uleb128 0xe
	.long	0x467d
	.quad	.LBI721
	.value	.LVU2371
	.quad	.LBB721
	.quad	.LBE721-.LBB721
	.value	0x418
	.byte	0xd
	.long	0x1ca3
	.uleb128 0x2
	.long	0x468c
	.long	.LLST339
	.long	.LVUS339
	.uleb128 0x3
	.quad	.LVL573
	.long	0xdfa
	.uleb128 0x1
	.uleb128 0x1
	.byte	0x55
	.uleb128 0x1
	.byte	0x31
	.uleb128 0x1
	.uleb128 0x1
	.byte	0x54
	.uleb128 0x4
	.byte	0x76
	.sleb128 -1352
	.byte	0x6
	.uleb128 0x1
	.uleb128 0x1
	.byte	0x51
	.uleb128 0x5
	.byte	0x76
	.sleb128 -1376
	.byte	0x94
	.byte	0x4
	.byte	0
	.byte	0
	.uleb128 0x9
	.long	0x467d
	.quad	.LBI723
	.value	.LVU2377
	.long	.LLRL340
	.value	0x41a
	.byte	0x9
	.long	0x1ce4
	.uleb128 0x2
	.long	0x468c
	.long	.LLST341
	.long	.LVUS341
	.uleb128 0x3
	.quad	.LVL577
	.long	0xdfa
	.uleb128 0x1
	.uleb128 0x1
	.byte	0x55
	.uleb128 0x1
	.byte	0x31
	.uleb128 0x1
	.uleb128 0x1
	.byte	0x51
	.uleb128 0x2
	.byte	0x7c
	.sleb128 0
	.byte	0
	.byte	0
	.uleb128 0xe
	.long	0x467d
	.quad	.LBI727
	.value	.LVU2414
	.quad	.LBB727
	.quad	.LBE727-.LBB727
	.value	0x414
	.byte	0xd
	.long	0x1d41
	.uleb128 0x2
	.long	0x468c
	.long	.LLST342
	.long	.LVUS342
	.uleb128 0x3
	.quad	.LVL588
	.long	0xdfa
	.uleb128 0x1
	.uleb128 0x1
	.byte	0x55
	.uleb128 0x1
	.byte	0x31
	.uleb128 0x1
	.uleb128 0x1
	.byte	0x54
	.uleb128 0x9
	.byte	0x3
	.quad	.LC36
	.uleb128 0x1
	.uleb128 0x1
	.byte	0x51
	.uleb128 0x5
	.byte	0x76
	.sleb128 -1376
	.byte	0x94
	.byte	0x4
	.byte	0
	.byte	0
	.uleb128 0x4
	.quad	.LVL403
	.long	0x2a18
	.long	0x1d69
	.uleb128 0x1
	.uleb128 0x1
	.byte	0x55
	.uleb128 0x4
	.byte	0x76
	.sleb128 -1424
	.byte	0x6
	.uleb128 0x1
	.uleb128 0x1
	.byte	0x54
	.uleb128 0x4
	.byte	0x76
	.sleb128 -1416
	.byte	0x6
	.uleb128 0x1
	.uleb128 0x1
	.byte	0x51
	.uleb128 0x2
	.byte	0x7f
	.sleb128 0
	.byte	0
	.uleb128 0x4
	.quad	.LVL450
	.long	0x30f8
	.long	0x1d99
	.uleb128 0x1
	.uleb128 0x1
	.byte	0x55
	.uleb128 0x4
	.byte	0x76
	.sleb128 -1424
	.byte	0x6
	.uleb128 0x1
	.uleb128 0x1
	.byte	0x54
	.uleb128 0x4
	.byte	0x76
	.sleb128 -1416
	.byte	0x6
	.uleb128 0x1
	.uleb128 0x1
	.byte	0x51
	.uleb128 0x3
	.byte	0x76
	.sleb128 -1344
	.uleb128 0x1
	.uleb128 0x1
	.byte	0x52
	.uleb128 0x3
	.byte	0x76
	.sleb128 -1344
	.byte	0
	.uleb128 0x4
	.quad	.LVL451
	.long	0x3aec
	.long	0x1db2
	.uleb128 0x1
	.uleb128 0x1
	.byte	0x54
	.uleb128 0x3
	.byte	0x76
	.sleb128 -1340
	.byte	0
	.uleb128 0x4
	.quad	.LVL453
	.long	0x3aec
	.long	0x1dcb
	.uleb128 0x1
	.uleb128 0x1
	.byte	0x54
	.uleb128 0x3
	.byte	0x76
	.sleb128 -1336
	.byte	0
	.uleb128 0x4
	.quad	.LVL511
	.long	0x2ee2
	.long	0x1de5
	.uleb128 0x1
	.uleb128 0x1
	.byte	0x55
	.uleb128 0x4
	.byte	0x76
	.sleb128 -1392
	.byte	0x6
	.byte	0
	.uleb128 0x4
	.quad	.LVL518
	.long	0xca4
	.long	0x1dfd
	.uleb128 0x1
	.uleb128 0x1
	.byte	0x55
	.uleb128 0x2
	.byte	0x7e
	.sleb128 0
	.byte	0
	.uleb128 0x4
	.quad	.LVL520
	.long	0xca4
	.long	0x1e15
	.uleb128 0x1
	.uleb128 0x1
	.byte	0x55
	.uleb128 0x2
	.byte	0x73
	.sleb128 0
	.byte	0
	.uleb128 0x4
	.quad	.LVL522
	.long	0xca4
	.long	0x1e2f
	.uleb128 0x1
	.uleb128 0x1
	.byte	0x55
	.uleb128 0x4
	.byte	0x76
	.sleb128 -1384
	.byte	0x6
	.byte	0
	.uleb128 0x4
	.quad	.LVL523
	.long	0xc15
	.long	0x1e54
	.uleb128 0x1
	.uleb128 0x1
	.byte	0x55
	.uleb128 0x2
	.byte	0x7e
	.sleb128 0
	.uleb128 0x1
	.uleb128 0x1
	.byte	0x54
	.uleb128 0x4
	.byte	0x76
	.sleb128 -1368
	.byte	0x6
	.uleb128 0x1
	.uleb128 0x1
	.byte	0x51
	.uleb128 0x1
	.byte	0x3a
	.byte	0
	.uleb128 0x4
	.quad	.LVL524
	.long	0xc15
	.long	0x1e79
	.uleb128 0x1
	.uleb128 0x1
	.byte	0x55
	.uleb128 0x2
	.byte	0x73
	.sleb128 0
	.uleb128 0x1
	.uleb128 0x1
	.byte	0x54
	.uleb128 0x4
	.byte	0x76
	.sleb128 -1352
	.byte	0x6
	.uleb128 0x1
	.uleb128 0x1
	.byte	0x51
	.uleb128 0x1
	.byte	0x3a
	.byte	0
	.uleb128 0x4
	.quad	.LVL534
	.long	0xbf8
	.long	0x1ea1
	.uleb128 0x1
	.uleb128 0x1
	.byte	0x55
	.uleb128 0x4
	.byte	0x76
	.sleb128 -1384
	.byte	0x6
	.uleb128 0x1
	.uleb128 0x1
	.byte	0x54
	.uleb128 0x2
	.byte	0x7e
	.sleb128 0
	.uleb128 0x1
	.uleb128 0x1
	.byte	0x51
	.uleb128 0x4
	.byte	0x76
	.sleb128 -1456
	.byte	0x6
	.byte	0
	.uleb128 0x4
	.quad	.LVL541
	.long	0x2ee2
	.long	0x1ebb
	.uleb128 0x1
	.uleb128 0x1
	.byte	0x55
	.uleb128 0x4
	.byte	0x76
	.sleb128 -1392
	.byte	0x6
	.byte	0
	.uleb128 0x4
	.quad	.LVL549
	.long	0x36dc
	.long	0x1edc
	.uleb128 0x1
	.uleb128 0x1
	.byte	0x55
	.uleb128 0x4
	.byte	0x76
	.sleb128 -1400
	.byte	0x6
	.uleb128 0x1
	.uleb128 0x1
	.byte	0x54
	.uleb128 0x3
	.byte	0x76
	.sleb128 -1332
	.byte	0
	.uleb128 0x4
	.quad	.LVL551
	.long	0xc36
	.long	0x1f00
	.uleb128 0x1
	.uleb128 0x1
	.byte	0x55
	.uleb128 0x1
	.byte	0x30
	.uleb128 0x1
	.uleb128 0x1
	.byte	0x54
	.uleb128 0x1
	.byte	0x3a
	.uleb128 0x1
	.uleb128 0x1
	.byte	0x51
	.uleb128 0x4
	.byte	0x76
	.sleb128 -1384
	.byte	0x6
	.byte	0
	.uleb128 0x4
	.quad	.LVL578
	.long	0xbe1
	.long	0x1f17
	.uleb128 0x1
	.uleb128 0x1
	.byte	0x55
	.uleb128 0x1
	.byte	0x30
	.byte	0
	.uleb128 0x4
	.quad	.LVL714
	.long	0xf27
	.long	0x1f36
	.uleb128 0x1
	.uleb128 0x1
	.byte	0x55
	.uleb128 0x9
	.byte	0x3
	.quad	.LC35
	.byte	0
	.uleb128 0x3
	.quad	.LVL715
	.long	0xf14
	.uleb128 0x1
	.uleb128 0x1
	.byte	0x55
	.uleb128 0x1
	.byte	0x31
	.byte	0
	.byte	0
	.byte	0
	.uleb128 0x9
	.long	0x2f07
	.quad	.LBI540
	.value	.LVU1288
	.long	.LLRL202
	.value	0x354
	.byte	0x12
	.long	0x2082
	.uleb128 0x2
	.long	0x2f19
	.long	.LLST203
	.long	.LVUS203
	.uleb128 0x12
	.long	.LLRL202
	.uleb128 0x7
	.long	0x2f26
	.long	.LLST204
	.long	.LVUS204
	.uleb128 0x29
	.long	0x2f32
	.quad	.LBB542
	.quad	.LBE542-.LBB542
	.long	0x1ffb
	.uleb128 0x7
	.long	0x2f33
	.long	.LLST205
	.long	.LVUS205
	.uleb128 0x1f
	.long	0x469a
	.quad	.LBI543
	.value	.LVU1297
	.long	.LLRL206
	.value	0x267
	.byte	0x9
	.uleb128 0x2
	.long	0x46b5
	.long	.LLST207
	.long	.LVUS207
	.uleb128 0x2
	.long	0x46a9
	.long	.LLST208
	.long	.LVUS208
	.uleb128 0x3
	.quad	.LVL371
	.long	0xd0f
	.uleb128 0x1
	.uleb128 0x1
	.byte	0x55
	.uleb128 0x2
	.byte	0x73
	.sleb128 0
	.uleb128 0x1
	.uleb128 0x1
	.byte	0x54
	.uleb128 0x1
	.byte	0x31
	.uleb128 0x1
	.uleb128 0x1
	.byte	0x51
	.uleb128 0x2
	.byte	0x7d
	.sleb128 0
	.byte	0
	.byte	0
	.byte	0
	.uleb128 0x9
	.long	0x469a
	.quad	.LBI547
	.value	.LVU1308
	.long	.LLRL209
	.value	0x269
	.byte	0x5
	.long	0x204b
	.uleb128 0x2
	.long	0x46b5
	.long	.LLST210
	.long	.LVUS210
	.uleb128 0x2
	.long	0x46a9
	.long	.LLST211
	.long	.LVUS211
	.uleb128 0x3
	.quad	.LVL373
	.long	0x4f1d
	.uleb128 0x1
	.uleb128 0x1
	.byte	0x55
	.uleb128 0x1
	.byte	0x3a
	.uleb128 0x1
	.uleb128 0x1
	.byte	0x54
	.uleb128 0x4
	.byte	0x76
	.sleb128 -1408
	.byte	0x6
	.byte	0
	.byte	0
	.uleb128 0x4
	.quad	.LVL366
	.long	0xcf3
	.long	0x2069
	.uleb128 0x1
	.uleb128 0x1
	.byte	0x55
	.uleb128 0x2
	.byte	0x73
	.sleb128 0
	.uleb128 0x1
	.uleb128 0x1
	.byte	0x54
	.uleb128 0x2
	.byte	0x7e
	.sleb128 0
	.byte	0
	.uleb128 0x3
	.quad	.LVL716
	.long	0x4721
	.uleb128 0x4a
	.long	0x2f19
	.uleb128 0x3
	.byte	0x76
	.sleb128 -1088
	.byte	0
	.byte	0
	.byte	0
	.uleb128 0x9
	.long	0x46c3
	.quad	.LBI553
	.value	.LVU1262
	.long	.LLRL212
	.value	0x350
	.byte	0x5
	.long	0x20f8
	.uleb128 0x2
	.long	0x46ea
	.long	.LLST213
	.long	.LVUS213
	.uleb128 0x2
	.long	0x46de
	.long	.LLST214
	.long	.LVUS214
	.uleb128 0x2
	.long	0x46d2
	.long	.LLST215
	.long	.LVUS215
	.uleb128 0x3
	.quad	.LVL356
	.long	0x4f26
	.uleb128 0x1
	.uleb128 0x1
	.byte	0x55
	.uleb128 0x2
	.byte	0x73
	.sleb128 0
	.uleb128 0x1
	.uleb128 0x1
	.byte	0x54
	.uleb128 0x3
	.byte	0xa
	.value	0x100
	.uleb128 0x1
	.uleb128 0x1
	.byte	0x51
	.uleb128 0x1
	.byte	0x31
	.uleb128 0x1
	.uleb128 0x1
	.byte	0x52
	.uleb128 0x3
	.byte	0xa
	.value	0x100
	.uleb128 0x1
	.uleb128 0x1
	.byte	0x58
	.uleb128 0x9
	.byte	0x3
	.quad	.LC26
	.byte	0
	.byte	0
	.uleb128 0xe
	.long	0x46c3
	.quad	.LBI557
	.value	.LVU1267
	.quad	.LBB557
	.quad	.LBE557-.LBB557
	.value	0x351
	.byte	0x5
	.long	0x217c
	.uleb128 0x2
	.long	0x46ea
	.long	.LLST216
	.long	.LVUS216
	.uleb128 0x2
	.long	0x46de
	.long	.LLST217
	.long	.LVUS217
	.uleb128 0x2
	.long	0x46d2
	.long	.LLST218
	.long	.LVUS218
	.uleb128 0x3
	.quad	.LVL359
	.long	0x4f26
	.uleb128 0x1
	.uleb128 0x1
	.byte	0x55
	.uleb128 0x4
	.byte	0x76
	.sleb128 -1360
	.byte	0x6
	.uleb128 0x1
	.uleb128 0x1
	.byte	0x54
	.uleb128 0x3
	.byte	0xa
	.value	0x100
	.uleb128 0x1
	.uleb128 0x1
	.byte	0x51
	.uleb128 0x1
	.byte	0x31
	.uleb128 0x1
	.uleb128 0x1
	.byte	0x52
	.uleb128 0x3
	.byte	0xa
	.value	0x100
	.uleb128 0x1
	.uleb128 0x1
	.byte	0x58
	.uleb128 0x9
	.byte	0x3
	.quad	.LC27
	.byte	0
	.byte	0
	.uleb128 0xe
	.long	0x46c3
	.quad	.LBI559
	.value	.LVU1274
	.quad	.LBB559
	.quad	.LBE559-.LBB559
	.value	0x352
	.byte	0x5
	.long	0x2200
	.uleb128 0x2
	.long	0x46ea
	.long	.LLST219
	.long	.LVUS219
	.uleb128 0x2
	.long	0x46de
	.long	.LLST220
	.long	.LVUS220
	.uleb128 0x2
	.long	0x46d2
	.long	.LLST221
	.long	.LVUS221
	.uleb128 0x3
	.quad	.LVL362
	.long	0x4f26
	.uleb128 0x1
	.uleb128 0x1
	.byte	0x55
	.uleb128 0x4
	.byte	0x76
	.sleb128 -1352
	.byte	0x6
	.uleb128 0x1
	.uleb128 0x1
	.byte	0x54
	.uleb128 0x3
	.byte	0xa
	.value	0x100
	.uleb128 0x1
	.uleb128 0x1
	.byte	0x51
	.uleb128 0x1
	.byte	0x31
	.uleb128 0x1
	.uleb128 0x1
	.byte	0x52
	.uleb128 0x3
	.byte	0xa
	.value	0x100
	.uleb128 0x1
	.uleb128 0x1
	.byte	0x58
	.uleb128 0x9
	.byte	0x3
	.quad	.LC28
	.byte	0
	.byte	0
	.uleb128 0xe
	.long	0x46c3
	.quad	.LBI561
	.value	.LVU1281
	.quad	.LBB561
	.quad	.LBE561-.LBB561
	.value	0x353
	.byte	0x5
	.long	0x2284
	.uleb128 0x2
	.long	0x46ea
	.long	.LLST222
	.long	.LVUS222
	.uleb128 0x2
	.long	0x46de
	.long	.LLST223
	.long	.LVUS223
	.uleb128 0x2
	.long	0x46d2
	.long	.LLST224
	.long	.LVUS224
	.uleb128 0x3
	.quad	.LVL365
	.long	0x4f26
	.uleb128 0x1
	.uleb128 0x1
	.byte	0x55
	.uleb128 0x4
	.byte	0x76
	.sleb128 -1368
	.byte	0x6
	.uleb128 0x1
	.uleb128 0x1
	.byte	0x54
	.uleb128 0x3
	.byte	0xa
	.value	0x100
	.uleb128 0x1
	.uleb128 0x1
	.byte	0x51
	.uleb128 0x1
	.byte	0x31
	.uleb128 0x1
	.uleb128 0x1
	.byte	0x52
	.uleb128 0x3
	.byte	0xa
	.value	0x100
	.uleb128 0x1
	.uleb128 0x1
	.byte	0x58
	.uleb128 0x9
	.byte	0x3
	.quad	.LC29
	.byte	0
	.byte	0
	.uleb128 0x9
	.long	0x2f07
	.quad	.LBI564
	.value	.LVU1315
	.long	.LLRL225
	.value	0x355
	.byte	0x16
	.long	0x23a2
	.uleb128 0x2
	.long	0x2f19
	.long	.LLST226
	.long	.LVUS226
	.uleb128 0x12
	.long	.LLRL225
	.uleb128 0x7
	.long	0x2f26
	.long	.LLST227
	.long	.LVUS227
	.uleb128 0x29
	.long	0x2f32
	.quad	.LBB566
	.quad	.LBE566-.LBB566
	.long	0x2334
	.uleb128 0x7
	.long	0x2f33
	.long	.LLST228
	.long	.LVUS228
	.uleb128 0x1f
	.long	0x469a
	.quad	.LBI567
	.value	.LVU1321
	.long	.LLRL229
	.value	0x267
	.byte	0x9
	.uleb128 0x2
	.long	0x46b5
	.long	.LLST230
	.long	.LVUS230
	.uleb128 0x2
	.long	0x46a9
	.long	.LLST231
	.long	.LVUS231
	.uleb128 0x3
	.quad	.LVL378
	.long	0xd0f
	.uleb128 0x1
	.uleb128 0x1
	.byte	0x55
	.uleb128 0x2
	.byte	0x7f
	.sleb128 0
	.uleb128 0x1
	.uleb128 0x1
	.byte	0x54
	.uleb128 0x1
	.byte	0x31
	.uleb128 0x1
	.uleb128 0x1
	.byte	0x51
	.uleb128 0x2
	.byte	0x7d
	.sleb128 0
	.byte	0
	.byte	0
	.byte	0
	.uleb128 0x9
	.long	0x469a
	.quad	.LBI571
	.value	.LVU1330
	.long	.LLRL232
	.value	0x269
	.byte	0x5
	.long	0x2384
	.uleb128 0x2
	.long	0x46b5
	.long	.LLST233
	.long	.LVUS233
	.uleb128 0x2
	.long	0x46a9
	.long	.LLST234
	.long	.LVUS234
	.uleb128 0x3
	.quad	.LVL380
	.long	0x4f1d
	.uleb128 0x1
	.uleb128 0x1
	.byte	0x55
	.uleb128 0x1
	.byte	0x3a
	.uleb128 0x1
	.uleb128 0x1
	.byte	0x54
	.uleb128 0x4
	.byte	0x76
	.sleb128 -1432
	.byte	0x6
	.byte	0
	.byte	0
	.uleb128 0x3
	.quad	.LVL374
	.long	0xcf3
	.uleb128 0x1
	.uleb128 0x1
	.byte	0x55
	.uleb128 0x4
	.byte	0x76
	.sleb128 -1360
	.byte	0x6
	.uleb128 0x1
	.uleb128 0x1
	.byte	0x54
	.uleb128 0x2
	.byte	0x7e
	.sleb128 0
	.byte	0
	.byte	0
	.byte	0
	.uleb128 0x9
	.long	0x467d
	.quad	.LBI577
	.value	.LVU1363
	.long	.LLRL235
	.value	0x36a
	.byte	0x5
	.long	0x23ea
	.uleb128 0x2
	.long	0x468c
	.long	.LLST236
	.long	.LVUS236
	.uleb128 0x3
	.quad	.LVL393
	.long	0xdfa
	.uleb128 0x1
	.uleb128 0x1
	.byte	0x55
	.uleb128 0x1
	.byte	0x31
	.uleb128 0x1
	.uleb128 0x1
	.byte	0x54
	.uleb128 0x9
	.byte	0x3
	.quad	.LC30
	.byte	0
	.byte	0
	.uleb128 0xe
	.long	0x467d
	.quad	.LBI581
	.value	.LVU1368
	.quad	.LBB581
	.quad	.LBE581-.LBB581
	.value	0x36b
	.byte	0x5
	.long	0x2444
	.uleb128 0x2
	.long	0x468c
	.long	.LLST237
	.long	.LVUS237
	.uleb128 0x3
	.quad	.LVL394
	.long	0xdfa
	.uleb128 0x1
	.uleb128 0x1
	.byte	0x55
	.uleb128 0x1
	.byte	0x31
	.uleb128 0x1
	.uleb128 0x1
	.byte	0x54
	.uleb128 0x9
	.byte	0x3
	.quad	.LC31
	.uleb128 0x1
	.uleb128 0x1
	.byte	0x51
	.uleb128 0x2
	.byte	0x73
	.sleb128 0
	.byte	0
	.byte	0
	.uleb128 0xe
	.long	0x467d
	.quad	.LBI583
	.value	.LVU1373
	.quad	.LBB583
	.quad	.LBE583-.LBB583
	.value	0x36d
	.byte	0x5
	.long	0x2493
	.uleb128 0x2
	.long	0x468c
	.long	.LLST238
	.long	.LVUS238
	.uleb128 0x3
	.quad	.LVL395
	.long	0x4f42
	.uleb128 0x1
	.uleb128 0x1
	.byte	0x55
	.uleb128 0x9
	.byte	0x3
	.quad	.LC32
	.byte	0
	.byte	0
	.uleb128 0xe
	.long	0x45f5
	.quad	.LBI585
	.value	.LVU1378
	.quad	.LBB585
	.quad	.LBE585-.LBB585
	.value	0x36f
	.byte	0x5
	.long	0x24fb
	.uleb128 0x2
	.long	0x461c
	.long	.LLST239
	.long	.LVUS239
	.uleb128 0x2
	.long	0x4610
	.long	.LLST240
	.long	.LVUS240
	.uleb128 0x2
	.long	0x4604
	.long	.LLST241
	.long	.LVUS241
	.uleb128 0x3
	.quad	.LVL396
	.long	0x4f05
	.uleb128 0x1
	.uleb128 0x1
	.byte	0x54
	.uleb128 0x1
	.byte	0x30
	.uleb128 0x1
	.uleb128 0x1
	.byte	0x51
	.uleb128 0x3
	.byte	0x40
	.byte	0x4a
	.byte	0x24
	.byte	0
	.byte	0
	.uleb128 0x9
	.long	0x45f5
	.quad	.LBI587
	.value	.LVU1386
	.long	.LLRL242
	.value	0x372
	.byte	0x5
	.long	0x2557
	.uleb128 0x2
	.long	0x461c
	.long	.LLST243
	.long	.LVUS243
	.uleb128 0x2
	.long	0x4610
	.long	.LLST244
	.long	.LVUS244
	.uleb128 0x2
	.long	0x4604
	.long	.LLST245
	.long	.LVUS245
	.uleb128 0x3
	.quad	.LVL398
	.long	0x4f05
	.uleb128 0x1
	.uleb128 0x1
	.byte	0x54
	.uleb128 0x1
	.byte	0x30
	.uleb128 0x1
	.uleb128 0x1
	.byte	0x51
	.uleb128 0x3
	.byte	0x40
	.byte	0x4a
	.byte	0x24
	.byte	0
	.byte	0
	.uleb128 0x9
	.long	0x467d
	.quad	.LBI591
	.value	.LVU1394
	.long	.LLRL246
	.value	0x375
	.byte	0x5
	.long	0x259a
	.uleb128 0x2
	.long	0x468c
	.long	.LLST247
	.long	.LVUS247
	.uleb128 0x3
	.quad	.LVL400
	.long	0x4f42
	.uleb128 0x1
	.uleb128 0x1
	.byte	0x55
	.uleb128 0x9
	.byte	0x3
	.quad	.LC33
	.byte	0
	.byte	0
	.uleb128 0xe
	.long	0x467d
	.quad	.LBI595
	.value	.LVU1407
	.quad	.LBB595
	.quad	.LBE595-.LBB595
	.value	0x380
	.byte	0x5
	.long	0x25f7
	.uleb128 0x2
	.long	0x468c
	.long	.LLST248
	.long	.LVUS248
	.uleb128 0x3
	.quad	.LVL401
	.long	0xdfa
	.uleb128 0x1
	.uleb128 0x1
	.byte	0x55
	.uleb128 0x1
	.byte	0x31
	.uleb128 0x1
	.uleb128 0x1
	.byte	0x54
	.uleb128 0x9
	.byte	0x3
	.quad	.LC34
	.uleb128 0x1
	.uleb128 0x1
	.byte	0x51
	.uleb128 0x5
	.byte	0xc
	.long	0x186a0
	.byte	0
	.byte	0
	.uleb128 0xe
	.long	0x467d
	.quad	.LBI741
	.value	.LVU2391
	.quad	.LBB741
	.quad	.LBE741-.LBB741
	.value	0x41d
	.byte	0x5
	.long	0x2646
	.uleb128 0x2
	.long	0x468c
	.long	.LLST343
	.long	.LVUS343
	.uleb128 0x3
	.quad	.LVL581
	.long	0x4f42
	.uleb128 0x1
	.uleb128 0x1
	.byte	0x55
	.uleb128 0x9
	.byte	0x3
	.quad	.LC38
	.byte	0
	.byte	0
	.uleb128 0xe
	.long	0x467d
	.quad	.LBI743
	.value	.LVU2396
	.quad	.LBB743
	.quad	.LBE743-.LBB743
	.value	0x41e
	.byte	0x5
	.long	0x26a8
	.uleb128 0x2
	.long	0x468c
	.long	.LLST344
	.long	.LVUS344
	.uleb128 0x3
	.quad	.LVL582
	.long	0xdfa
	.uleb128 0x1
	.uleb128 0x1
	.byte	0x55
	.uleb128 0x1
	.byte	0x31
	.uleb128 0x1
	.uleb128 0x1
	.byte	0x54
	.uleb128 0x9
	.byte	0x3
	.quad	.LC39
	.uleb128 0x1
	.uleb128 0x1
	.byte	0x51
	.uleb128 0x4
	.byte	0x76
	.sleb128 -1472
	.byte	0x6
	.uleb128 0x1
	.uleb128 0x1
	.byte	0x52
	.uleb128 0x2
	.byte	0x7f
	.sleb128 0
	.byte	0
	.byte	0
	.uleb128 0x9
	.long	0x467d
	.quad	.LBI745
	.value	.LVU2401
	.long	.LLRL345
	.value	0x41f
	.byte	0x5
	.long	0x26f0
	.uleb128 0x2
	.long	0x468c
	.long	.LLST346
	.long	.LVUS346
	.uleb128 0x3
	.quad	.LVL583
	.long	0xdfa
	.uleb128 0x1
	.uleb128 0x1
	.byte	0x55
	.uleb128 0x1
	.byte	0x31
	.uleb128 0x1
	.uleb128 0x1
	.byte	0x54
	.uleb128 0x9
	.byte	0x3
	.quad	.LC40
	.byte	0
	.byte	0
	.uleb128 0x13
	.quad	.LVL355
	.long	0x2f3f
	.uleb128 0x4
	.quad	.LVL381
	.long	0xcf3
	.long	0x271d
	.uleb128 0x1
	.uleb128 0x1
	.byte	0x55
	.uleb128 0x4
	.byte	0x76
	.sleb128 -1352
	.byte	0x6
	.uleb128 0x1
	.uleb128 0x1
	.byte	0x54
	.uleb128 0x2
	.byte	0x7e
	.sleb128 0
	.byte	0
	.uleb128 0x4
	.quad	.LVL382
	.long	0xcf3
	.long	0x273d
	.uleb128 0x1
	.uleb128 0x1
	.byte	0x55
	.uleb128 0x4
	.byte	0x76
	.sleb128 -1368
	.byte	0x6
	.uleb128 0x1
	.uleb128 0x1
	.byte	0x54
	.uleb128 0x2
	.byte	0x7e
	.sleb128 0
	.byte	0
	.uleb128 0x4
	.quad	.LVL383
	.long	0xca4
	.long	0x2755
	.uleb128 0x1
	.uleb128 0x1
	.byte	0x55
	.uleb128 0x2
	.byte	0x7c
	.sleb128 0
	.byte	0
	.uleb128 0x13
	.quad	.LVL384
	.long	0x41c1
	.uleb128 0x4
	.quad	.LVL386
	.long	0xc91
	.long	0x277a
	.uleb128 0x1
	.uleb128 0x1
	.byte	0x55
	.uleb128 0x2
	.byte	0x7d
	.sleb128 0
	.byte	0
	.uleb128 0x4
	.quad	.LVL387
	.long	0xc79
	.long	0x2798
	.uleb128 0x1
	.uleb128 0x1
	.byte	0x55
	.uleb128 0x2
	.byte	0x7d
	.sleb128 0
	.uleb128 0x1
	.uleb128 0x1
	.byte	0x54
	.uleb128 0x2
	.byte	0x7e
	.sleb128 0
	.byte	0
	.uleb128 0x4
	.quad	.LVL388
	.long	0xc57
	.long	0x27b6
	.uleb128 0x1
	.uleb128 0x1
	.byte	0x55
	.uleb128 0x2
	.byte	0x7c
	.sleb128 0
	.uleb128 0x1
	.uleb128 0x1
	.byte	0x54
	.uleb128 0x2
	.byte	0x7d
	.sleb128 0
	.byte	0
	.uleb128 0x4
	.quad	.LVL389
	.long	0xc36
	.long	0x27d8
	.uleb128 0x1
	.uleb128 0x1
	.byte	0x55
	.uleb128 0x1
	.byte	0x30
	.uleb128 0x1
	.uleb128 0x1
	.byte	0x54
	.uleb128 0x1
	.byte	0x3a
	.uleb128 0x1
	.uleb128 0x1
	.byte	0x51
	.uleb128 0x2
	.byte	0x7c
	.sleb128 0
	.byte	0
	.uleb128 0x13
	.quad	.LVL391
	.long	0xd6b
	.uleb128 0x13
	.quad	.LVL717
	.long	0x4f84
	.byte	0
	.uleb128 0x1b
	.long	0xe1
	.long	0x2803
	.uleb128 0x1c
	.long	0x3d
	.byte	0xff
	.byte	0
	.uleb128 0x1b
	.long	0x2f1
	.long	0x2813
	.uleb128 0x1c
	.long	0x3d
	.byte	0x5
	.byte	0
	.uleb128 0x3a
	.long	.LASF321
	.byte	0x1
	.value	0x32e
	.byte	0x7
	.long	0xd7
	.byte	0x1
	.long	0x2856
	.uleb128 0x25
	.long	.LASF322
	.byte	0x1
	.value	0x32e
	.byte	0x2a
	.long	0xabe
	.uleb128 0x65
	.string	"n"
	.byte	0x1
	.value	0x32e
	.byte	0x36
	.long	0x69
	.uleb128 0x21
	.string	"str"
	.value	0x330
	.byte	0xb
	.long	0xd7
	.uleb128 0x2a
	.uleb128 0x21
	.string	"i"
	.value	0x336
	.byte	0xe
	.long	0x69
	.byte	0
	.byte	0
	.uleb128 0x32
	.long	.LASF325
	.value	0x328
	.quad	.LFB5798
	.quad	.LFE5798-.LFB5798
	.uleb128 0x1
	.byte	0x9c
	.long	0x291b
	.uleb128 0x17
	.long	.LASF282
	.value	0x328
	.byte	0x17
	.long	0x2db
	.long	.LLST178
	.long	.LVUS178
	.uleb128 0x17
	.long	.LASF323
	.value	0x328
	.byte	0x24
	.long	0x2a
	.long	.LLST179
	.long	.LVUS179
	.uleb128 0x17
	.long	.LASF324
	.value	0x328
	.byte	0x3d
	.long	0x337
	.long	.LLST180
	.long	.LVUS180
	.uleb128 0x1f
	.long	0x469a
	.quad	.LBI403
	.value	.LVU1096
	.long	.LLRL181
	.value	0x32a
	.byte	0x5
	.uleb128 0x4b
	.long	0x46b5
	.uleb128 0xa
	.byte	0x3
	.quad	.LC22
	.byte	0x9f
	.uleb128 0x2
	.long	0x46a9
	.long	.LLST182
	.long	.LVUS182
	.uleb128 0x3b
	.quad	.LVL326
	.long	0xd0f
	.uleb128 0x1
	.uleb128 0x1
	.byte	0x55
	.uleb128 0x3
	.byte	0xa3
	.uleb128 0x1
	.byte	0x55
	.uleb128 0x1
	.uleb128 0x1
	.byte	0x54
	.uleb128 0x1
	.byte	0x31
	.uleb128 0x1
	.uleb128 0x1
	.byte	0x51
	.uleb128 0x9
	.byte	0x3
	.quad	.LC22
	.uleb128 0x1
	.uleb128 0x1
	.byte	0x61
	.uleb128 0x5
	.byte	0xa3
	.uleb128 0x3
	.byte	0xa5
	.uleb128 0x11
	.uleb128 0x2a
	.uleb128 0x1
	.uleb128 0x1
	.byte	0x52
	.uleb128 0x3
	.byte	0xa3
	.uleb128 0x1
	.byte	0x54
	.byte	0
	.byte	0
	.byte	0
	.uleb128 0x32
	.long	.LASF326
	.value	0x319
	.quad	.LFB5797
	.quad	.LFE5797-.LFB5797
	.uleb128 0x1
	.byte	0x9c
	.long	0x2a13
	.uleb128 0x17
	.long	.LASF278
	.value	0x319
	.byte	0x1b
	.long	0xd7
	.long	.LLST173
	.long	.LVUS173
	.uleb128 0x17
	.long	.LASF282
	.value	0x319
	.byte	0x2c
	.long	0x2a13
	.long	.LLST174
	.long	.LVUS174
	.uleb128 0x9
	.long	0x469a
	.quad	.LBI399
	.value	.LVU1085
	.long	.LLRL175
	.value	0x325
	.byte	0x5
	.long	0x29ba
	.uleb128 0x2
	.long	0x46b5
	.long	.LLST176
	.long	.LVUS176
	.uleb128 0x2
	.long	0x46a9
	.long	.LLST177
	.long	.LVUS177
	.uleb128 0x3b
	.quad	.LVL320
	.long	0x4f8d
	.uleb128 0x1
	.uleb128 0x1
	.byte	0x55
	.uleb128 0x9
	.byte	0x3
	.quad	.LC21
	.uleb128 0x1
	.uleb128 0x1
	.byte	0x54
	.uleb128 0x1
	.byte	0x31
	.uleb128 0x1
	.uleb128 0x1
	.byte	0x51
	.uleb128 0x1
	.byte	0x3c
	.byte	0
	.byte	0
	.uleb128 0x4
	.quad	.LVL317
	.long	0xcf3
	.long	0x29e0
	.uleb128 0x1
	.uleb128 0x1
	.byte	0x55
	.uleb128 0x3
	.byte	0xa3
	.uleb128 0x1
	.byte	0x55
	.uleb128 0x1
	.uleb128 0x1
	.byte	0x54
	.uleb128 0x9
	.byte	0x3
	.quad	.LC13
	.byte	0
	.uleb128 0x4
	.quad	.LVL321
	.long	0xf27
	.long	0x29ff
	.uleb128 0x1
	.uleb128 0x1
	.byte	0x55
	.uleb128 0x9
	.byte	0x3
	.quad	.LC0
	.byte	0
	.uleb128 0x3
	.quad	.LVL322
	.long	0xf14
	.uleb128 0x1
	.uleb128 0x1
	.byte	0x55
	.uleb128 0x1
	.byte	0x31
	.byte	0
	.byte	0
	.uleb128 0x10
	.long	0x2db
	.uleb128 0x32
	.long	.LASF327
	.value	0x2e8
	.quad	.LFB5796
	.quad	.LFE5796-.LFB5796
	.uleb128 0x1
	.byte	0x9c
	.long	0x2c5b
	.uleb128 0x2f
	.string	"a"
	.value	0x2e8
	.byte	0x30
	.long	0x2c5b
	.long	.LLST154
	.long	.LVUS154
	.uleb128 0x2f
	.string	"b"
	.value	0x2e8
	.byte	0x3e
	.long	0x2c5b
	.long	.LLST155
	.long	.LVUS155
	.uleb128 0x2f
	.string	"n"
	.value	0x2e8
	.byte	0x45
	.long	0x69
	.long	.LLST156
	.long	.LVUS156
	.uleb128 0xb
	.long	.LASF289
	.value	0x2f5
	.byte	0x9
	.long	0x69
	.long	.LLST157
	.long	.LVUS157
	.uleb128 0x23
	.long	.LLRL164
	.long	0x2b3b
	.uleb128 0x11
	.string	"i"
	.value	0x2fc
	.byte	0xe
	.long	0x69
	.long	.LLST165
	.long	.LVUS165
	.uleb128 0x12
	.long	.LLRL166
	.uleb128 0xb
	.long	.LASF328
	.value	0x2ff
	.byte	0xd
	.long	0x69
	.long	.LLST167
	.long	.LVUS167
	.uleb128 0xb
	.long	.LASF329
	.value	0x300
	.byte	0xd
	.long	0x69
	.long	.LLST168
	.long	.LVUS168
	.uleb128 0xb
	.long	.LASF330
	.value	0x304
	.byte	0x12
	.long	0xa9a
	.long	.LLST169
	.long	.LVUS169
	.uleb128 0x2b
	.quad	.LBB394
	.quad	.LBE394-.LBB394
	.long	0x2b10
	.uleb128 0x11
	.string	"j"
	.value	0x305
	.byte	0x12
	.long	0x69
	.long	.LLST170
	.long	.LVUS170
	.uleb128 0x13
	.quad	.LVL293
	.long	0xcb7
	.byte	0
	.uleb128 0x23
	.long	.LLRL171
	.long	0x2b2c
	.uleb128 0x11
	.string	"j"
	.value	0x310
	.byte	0x12
	.long	0x69
	.long	.LLST172
	.long	.LVUS172
	.byte	0
	.uleb128 0x13
	.quad	.LVL290
	.long	0xcb7
	.byte	0
	.byte	0
	.uleb128 0x9
	.long	0x4563
	.quad	.LBI382
	.value	.LVU920
	.long	.LLRL158
	.value	0x2eb
	.byte	0x16
	.long	0x2b9c
	.uleb128 0x2
	.long	0x4580
	.long	.LLST159
	.long	.LVUS159
	.uleb128 0x2
	.long	0x4574
	.long	.LLST160
	.long	.LVUS160
	.uleb128 0x12
	.long	.LLRL158
	.uleb128 0xf
	.long	0x458c
	.uleb128 0x3
	.quad	.LVL275
	.long	0xd9e
	.uleb128 0x1
	.uleb128 0x1
	.byte	0x55
	.uleb128 0x3
	.byte	0x91
	.sleb128 -80
	.uleb128 0x1
	.uleb128 0x1
	.byte	0x54
	.uleb128 0x2
	.byte	0x8
	.byte	0x40
	.uleb128 0x1
	.uleb128 0x1
	.byte	0x51
	.uleb128 0x2
	.byte	0x7c
	.sleb128 0
	.byte	0
	.byte	0
	.byte	0
	.uleb128 0x9
	.long	0x4563
	.quad	.LBI388
	.value	.LVU930
	.long	.LLRL161
	.value	0x2ec
	.byte	0x16
	.long	0x2bfd
	.uleb128 0x2
	.long	0x4580
	.long	.LLST162
	.long	.LVUS162
	.uleb128 0x2
	.long	0x4574
	.long	.LLST163
	.long	.LVUS163
	.uleb128 0x12
	.long	.LLRL161
	.uleb128 0xf
	.long	0x458c
	.uleb128 0x3
	.quad	.LVL278
	.long	0xd9e
	.uleb128 0x1
	.uleb128 0x1
	.byte	0x55
	.uleb128 0x3
	.byte	0x91
	.sleb128 -88
	.uleb128 0x1
	.uleb128 0x1
	.byte	0x54
	.uleb128 0x2
	.byte	0x8
	.byte	0x40
	.uleb128 0x1
	.uleb128 0x1
	.byte	0x51
	.uleb128 0x2
	.byte	0x7c
	.sleb128 0
	.byte	0
	.byte	0
	.byte	0
	.uleb128 0x4
	.quad	.LVL280
	.long	0xf27
	.long	0x2c1c
	.uleb128 0x1
	.uleb128 0x1
	.byte	0x55
	.uleb128 0x9
	.byte	0x3
	.quad	.LC20
	.byte	0
	.uleb128 0x4
	.quad	.LVL281
	.long	0xf14
	.long	0x2c33
	.uleb128 0x1
	.uleb128 0x1
	.byte	0x55
	.uleb128 0x1
	.byte	0x31
	.byte	0
	.uleb128 0x13
	.quad	.LVL283
	.long	0x41c1
	.uleb128 0x13
	.quad	.LVL284
	.long	0xcc4
	.uleb128 0x13
	.quad	.LVL314
	.long	0x4f84
	.byte	0
	.uleb128 0x10
	.long	0xabe
	.uleb128 0x30
	.long	0x2c5b
	.uleb128 0x3a
	.long	.LASF331
	.byte	0x1
	.value	0x2cb
	.byte	0x6
	.long	0x2cab
	.byte	0x3
	.long	0x2cab
	.uleb128 0x25
	.long	.LASF332
	.byte	0x1
	.value	0x2cb
	.byte	0x19
	.long	0xd7
	.uleb128 0x25
	.long	.LASF333
	.byte	0x1
	.value	0x2cb
	.byte	0x27
	.long	0xd7
	.uleb128 0x25
	.long	.LASF334
	.byte	0x1
	.value	0x2cb
	.byte	0x37
	.long	0x69
	.uleb128 0x2a
	.uleb128 0x21
	.string	"i"
	.value	0x2d5
	.byte	0xe
	.long	0x69
	.byte	0
	.byte	0
	.uleb128 0x18
	.byte	0x1
	.byte	0x2
	.long	.LASF335
	.uleb128 0x3c
	.long	.LASF352
	.value	0x2ba
	.byte	0x8
	.long	0x2a
	.quad	.LFB5794
	.quad	.LFE5794-.LFB5794
	.uleb128 0x1
	.byte	0x9c
	.long	0x2d25
	.uleb128 0x17
	.long	.LASF303
	.value	0x2ba
	.byte	0x27
	.long	0x310
	.long	.LLST146
	.long	.LVUS146
	.uleb128 0x2f
	.string	"end"
	.value	0x2ba
	.byte	0x3e
	.long	0x310
	.long	.LLST147
	.long	.LVUS147
	.uleb128 0xb
	.long	.LASF336
	.value	0x2bd
	.byte	0xf
	.long	0x2f1
	.long	.LLST148
	.long	.LVUS148
	.uleb128 0xb
	.long	.LASF337
	.value	0x2be
	.byte	0xf
	.long	0x2f1
	.long	.LLST149
	.long	.LVUS149
	.byte	0
	.uleb128 0x32
	.long	.LASF338
	.value	0x2ae
	.quad	.LFB5793
	.quad	.LFE5793-.LFB5793
	.uleb128 0x1
	.byte	0x9c
	.long	0x2da7
	.uleb128 0x2f
	.string	"end"
	.value	0x2ae
	.byte	0x25
	.long	0xf56
	.long	.LLST145
	.long	.LVUS145
	.uleb128 0x4
	.quad	.LVL236
	.long	0xf3a
	.long	0x2d74
	.uleb128 0x1
	.uleb128 0x1
	.byte	0x55
	.uleb128 0x1
	.byte	0x34
	.uleb128 0x1
	.uleb128 0x1
	.byte	0x54
	.uleb128 0x3
	.byte	0xa3
	.uleb128 0x1
	.byte	0x55
	.byte	0
	.uleb128 0x4
	.quad	.LVL237
	.long	0xf27
	.long	0x2d93
	.uleb128 0x1
	.uleb128 0x1
	.byte	0x55
	.uleb128 0x9
	.byte	0x3
	.quad	.LC19
	.byte	0
	.uleb128 0x3
	.quad	.LVL238
	.long	0xf14
	.uleb128 0x1
	.uleb128 0x1
	.byte	0x55
	.uleb128 0x1
	.byte	0x31
	.byte	0
	.byte	0
	.uleb128 0x32
	.long	.LASF339
	.value	0x299
	.quad	.LFB5792
	.quad	.LFE5792-.LFB5792
	.uleb128 0x1
	.byte	0x9c
	.long	0x2e29
	.uleb128 0x17
	.long	.LASF303
	.value	0x299
	.byte	0x26
	.long	0xf56
	.long	.LLST144
	.long	.LVUS144
	.uleb128 0x4
	.quad	.LVL231
	.long	0xf3a
	.long	0x2df6
	.uleb128 0x1
	.uleb128 0x1
	.byte	0x55
	.uleb128 0x1
	.byte	0x34
	.uleb128 0x1
	.uleb128 0x1
	.byte	0x54
	.uleb128 0x3
	.byte	0xa3
	.uleb128 0x1
	.byte	0x55
	.byte	0
	.uleb128 0x4
	.quad	.LVL232
	.long	0xf27
	.long	0x2e15
	.uleb128 0x1
	.uleb128 0x1
	.byte	0x55
	.uleb128 0x9
	.byte	0x3
	.quad	.LC18
	.byte	0
	.uleb128 0x3
	.quad	.LVL233
	.long	0xf14
	.uleb128 0x1
	.uleb128 0x1
	.byte	0x55
	.uleb128 0x1
	.byte	0x31
	.byte	0
	.byte	0
	.uleb128 0x4c
	.long	.LASF340
	.value	0x28d
	.long	0x2e5b
	.uleb128 0x2a
	.uleb128 0x21
	.string	"j"
	.value	0x28f
	.byte	0xe
	.long	0x69
	.uleb128 0x3
	.quad	.LVL222
	.long	0xcd7
	.uleb128 0x1
	.uleb128 0x1
	.byte	0x54
	.uleb128 0x3
	.byte	0xa
	.value	0x2401
	.uleb128 0x1
	.uleb128 0x1
	.byte	0x51
	.uleb128 0x1
	.byte	0x30
	.byte	0
	.byte	0
	.byte	0
	.uleb128 0x4c
	.long	.LASF341
	.value	0x284
	.long	0x2eab
	.uleb128 0x2a
	.uleb128 0x21
	.string	"j"
	.value	0x286
	.byte	0xe
	.long	0x69
	.uleb128 0x4
	.quad	.LVL218
	.long	0xcd7
	.long	0x2e8f
	.uleb128 0x1
	.uleb128 0x1
	.byte	0x54
	.uleb128 0x3
	.byte	0xa
	.value	0x2403
	.uleb128 0x1
	.uleb128 0x1
	.byte	0x51
	.uleb128 0x1
	.byte	0x30
	.byte	0
	.uleb128 0x3
	.quad	.LVL219
	.long	0xcd7
	.uleb128 0x1
	.uleb128 0x1
	.byte	0x54
	.uleb128 0x3
	.byte	0xa
	.value	0x2400
	.uleb128 0x1
	.uleb128 0x1
	.byte	0x51
	.uleb128 0x1
	.byte	0x30
	.byte	0
	.byte	0
	.byte	0
	.uleb128 0x4d
	.long	.LASF342
	.value	0x279
	.long	0x2edd
	.uleb128 0x25
	.long	.LASF282
	.byte	0x1
	.value	0x279
	.byte	0x17
	.long	0x2db
	.uleb128 0x25
	.long	.LASF286
	.byte	0x1
	.value	0x279
	.byte	0x27
	.long	0x2edd
	.uleb128 0x2a
	.uleb128 0x21
	.string	"j"
	.value	0x27b
	.byte	0xe
	.long	0x69
	.byte	0
	.byte	0
	.uleb128 0x10
	.long	0x2f1
	.uleb128 0x4d
	.long	.LASF343
	.value	0x26d
	.long	0x2f07
	.uleb128 0x25
	.long	.LASF286
	.byte	0x1
	.value	0x26d
	.byte	0x1a
	.long	0x2edd
	.uleb128 0x2a
	.uleb128 0x21
	.string	"j"
	.value	0x26f
	.byte	0xe
	.long	0x69
	.byte	0
	.byte	0
	.uleb128 0x3a
	.long	.LASF344
	.byte	0x1
	.value	0x25a
	.byte	0x7
	.long	0x2db
	.byte	0x1
	.long	0x2f3f
	.uleb128 0x25
	.long	.LASF278
	.byte	0x1
	.value	0x25a
	.byte	0x17
	.long	0xd7
	.uleb128 0x1e
	.long	.LASF282
	.value	0x25c
	.byte	0xb
	.long	0x2db
	.uleb128 0x2a
	.uleb128 0x21
	.string	"j"
	.value	0x265
	.byte	0xe
	.long	0x69
	.byte	0
	.byte	0
	.uleb128 0x49
	.long	.LASF345
	.value	0x223
	.quad	.LFB5786
	.quad	.LFE5786-.LFB5786
	.uleb128 0x1
	.byte	0x9c
	.long	0x30f8
	.uleb128 0x23
	.long	.LLRL104
	.long	0x2f78
	.uleb128 0x11
	.string	"i"
	.value	0x227
	.byte	0xe
	.long	0x69
	.long	.LLST105
	.long	.LVUS105
	.byte	0
	.uleb128 0x23
	.long	.LLRL106
	.long	0x30b9
	.uleb128 0x11
	.string	"i"
	.value	0x24f
	.byte	0xe
	.long	0x69
	.long	.LLST107
	.long	.LVUS107
	.uleb128 0xe
	.long	0x4420
	.quad	.LBI311
	.value	.LVU649
	.quad	.LBB311
	.quad	.LBE311-.LBB311
	.value	0x251
	.byte	0x11
	.long	0x3038
	.uleb128 0x2
	.long	0x4460
	.long	.LLST108
	.long	.LVUS108
	.uleb128 0x2
	.long	0x4454
	.long	.LLST109
	.long	.LVUS109
	.uleb128 0x2
	.long	0x4448
	.long	.LLST110
	.long	.LVUS110
	.uleb128 0x2
	.long	0x443c
	.long	.LLST108
	.long	.LVUS108
	.uleb128 0x2
	.long	0x4430
	.long	.LLST112
	.long	.LVUS112
	.uleb128 0x7
	.long	0x446c
	.long	.LLST113
	.long	.LVUS113
	.uleb128 0x3
	.quad	.LVL179
	.long	0xf5b
	.uleb128 0x1
	.uleb128 0x1
	.byte	0x55
	.uleb128 0x3
	.byte	0xa
	.value	0x12a
	.uleb128 0x1
	.uleb128 0x1
	.byte	0x54
	.uleb128 0x7
	.byte	0x73
	.sleb128 0
	.byte	0x37
	.byte	0x24
	.byte	0x76
	.sleb128 0
	.byte	0x22
	.uleb128 0x1
	.uleb128 0x1
	.byte	0x51
	.uleb128 0x1
	.byte	0x30
	.uleb128 0x1
	.uleb128 0x1
	.byte	0x58
	.uleb128 0x2
	.byte	0x9
	.byte	0xff
	.uleb128 0x1
	.uleb128 0x1
	.byte	0x59
	.uleb128 0x1
	.byte	0x30
	.byte	0
	.byte	0
	.uleb128 0x9
	.long	0x469a
	.quad	.LBI313
	.value	.LVU665
	.long	.LLRL114
	.value	0x254
	.byte	0xd
	.long	0x308b
	.uleb128 0x2
	.long	0x46b5
	.long	.LLST115
	.long	.LVUS115
	.uleb128 0x24
	.long	0x46a9
	.uleb128 0x3
	.quad	.LVL185
	.long	0xd0f
	.uleb128 0x1
	.uleb128 0x1
	.byte	0x54
	.uleb128 0x1
	.byte	0x31
	.uleb128 0x1
	.uleb128 0x1
	.byte	0x51
	.uleb128 0x9
	.byte	0x3
	.quad	.LC12
	.uleb128 0x1
	.uleb128 0x1
	.byte	0x52
	.uleb128 0x2
	.byte	0x73
	.sleb128 0
	.byte	0
	.byte	0
	.uleb128 0x13
	.quad	.LVL183
	.long	0xd47
	.uleb128 0x13
	.quad	.LVL184
	.long	0xd30
	.uleb128 0x3
	.quad	.LVL186
	.long	0xf14
	.uleb128 0x1
	.uleb128 0x1
	.byte	0x55
	.uleb128 0x1
	.byte	0x31
	.byte	0
	.byte	0
	.uleb128 0x1f
	.long	0x45f5
	.quad	.LBI296
	.value	.LVU542
	.long	.LLRL100
	.value	0x226
	.byte	0x5
	.uleb128 0x2
	.long	0x461c
	.long	.LLST101
	.long	.LVUS101
	.uleb128 0x2
	.long	0x4610
	.long	.LLST102
	.long	.LVUS102
	.uleb128 0x2
	.long	0x4604
	.long	.LLST103
	.long	.LVUS103
	.byte	0
	.byte	0
	.uleb128 0x32
	.long	.LASF346
	.value	0x1a4
	.quad	.LFB5785
	.quad	.LFE5785-.LFB5785
	.uleb128 0x1
	.byte	0x9c
	.long	0x36dc
	.uleb128 0x17
	.long	.LASF347
	.value	0x1a4
	.byte	0x22
	.long	0x2c5b
	.long	.LLST69
	.long	.LVUS69
	.uleb128 0x17
	.long	.LASF348
	.value	0x1a4
	.byte	0x38
	.long	0x2c5b
	.long	.LLST70
	.long	.LVUS70
	.uleb128 0x2f
	.string	"n_1"
	.value	0x1a4
	.byte	0x48
	.long	0xd53
	.long	.LLST71
	.long	.LVUS71
	.uleb128 0x2f
	.string	"n_2"
	.value	0x1a4
	.byte	0x52
	.long	0xd53
	.long	.LLST72
	.long	.LVUS72
	.uleb128 0x11
	.string	"n1"
	.value	0x1a9
	.byte	0x9
	.long	0x69
	.long	.LLST73
	.long	.LVUS73
	.uleb128 0x11
	.string	"n2"
	.value	0x1aa
	.byte	0x9
	.long	0x69
	.long	.LLST74
	.long	.LVUS74
	.uleb128 0xb
	.long	.LASF349
	.value	0x1af
	.byte	0x18
	.long	0xab2
	.long	.LLST75
	.long	.LVUS75
	.uleb128 0xb
	.long	.LASF350
	.value	0x1b0
	.byte	0x18
	.long	0xab2
	.long	.LLST76
	.long	.LVUS76
	.uleb128 0x23
	.long	.LLRL77
	.long	0x3463
	.uleb128 0xb
	.long	.LASF351
	.value	0x1b6
	.byte	0x1c
	.long	0xab2
	.long	.LLST78
	.long	.LVUS78
	.uleb128 0x2b
	.quad	.LBB271
	.quad	.LBE271-.LBB271
	.long	0x3260
	.uleb128 0x11
	.string	"i"
	.value	0x1c0
	.byte	0x12
	.long	0x69
	.long	.LLST82
	.long	.LVUS82
	.uleb128 0x3
	.quad	.LVL135
	.long	0x4f96
	.uleb128 0x1
	.uleb128 0x1
	.byte	0x55
	.uleb128 0x27
	.byte	0x7e
	.sleb128 -1
	.byte	0x8
	.byte	0x20
	.byte	0x24
	.byte	0x8
	.byte	0x20
	.byte	0x26
	.byte	0x7e
	.sleb128 0
	.byte	0x8
	.byte	0x20
	.byte	0x24
	.byte	0x8
	.byte	0x20
	.byte	0x26
	.byte	0x1c
	.byte	0x91
	.sleb128 -128
	.byte	0x6
	.byte	0x22
	.byte	0x33
	.byte	0x24
	.byte	0x7e
	.sleb128 -1
	.byte	0xc
	.long	0xffffffff
	.byte	0x1a
	.byte	0x1f
	.byte	0x33
	.byte	0x24
	.byte	0x22
	.byte	0x76
	.sleb128 0
	.byte	0x22
	.uleb128 0x1
	.uleb128 0x1
	.byte	0x54
	.uleb128 0x1b
	.byte	0x7e
	.sleb128 -1
	.byte	0x8
	.byte	0x20
	.byte	0x24
	.byte	0x8
	.byte	0x20
	.byte	0x26
	.byte	0x33
	.byte	0x24
	.byte	0x7e
	.sleb128 -1
	.byte	0xc
	.long	0xffffffff
	.byte	0x1a
	.byte	0x1f
	.byte	0x33
	.byte	0x24
	.byte	0x22
	.byte	0x91
	.sleb128 -120
	.byte	0x6
	.byte	0x22
	.uleb128 0x1
	.uleb128 0x1
	.byte	0x51
	.uleb128 0xc
	.byte	0x7e
	.sleb128 -1
	.byte	0xc
	.long	0xffffffff
	.byte	0x1a
	.byte	0x33
	.byte	0x24
	.byte	0x23
	.uleb128 0x8
	.byte	0
	.byte	0
	.uleb128 0x2b
	.quad	.LBB272
	.quad	.LBE272-.LBB272
	.long	0x32b2
	.uleb128 0x11
	.string	"i"
	.value	0x1c8
	.byte	0x12
	.long	0x69
	.long	.LLST83
	.long	.LVUS83
	.uleb128 0x3
	.quad	.LVL136
	.long	0x4f05
	.uleb128 0x1
	.uleb128 0x1
	.byte	0x55
	.uleb128 0x2
	.byte	0x76
	.sleb128 0
	.uleb128 0x1
	.uleb128 0x1
	.byte	0x54
	.uleb128 0x1
	.byte	0x30
	.uleb128 0x1
	.uleb128 0x1
	.byte	0x51
	.uleb128 0xd
	.byte	0x7f
	.sleb128 0
	.byte	0x7e
	.sleb128 0
	.byte	0x1c
	.byte	0x8
	.byte	0x20
	.byte	0x24
	.byte	0x8
	.byte	0x20
	.byte	0x26
	.byte	0x33
	.byte	0x24
	.byte	0
	.byte	0
	.uleb128 0x2b
	.quad	.LBB275
	.quad	.LBE275-.LBB275
	.long	0x32fe
	.uleb128 0x11
	.string	"i"
	.value	0x1d9
	.byte	0x12
	.long	0x69
	.long	.LLST86
	.long	.LVUS86
	.uleb128 0x3
	.quad	.LVL160
	.long	0x4f96
	.uleb128 0x1
	.uleb128 0x1
	.byte	0x55
	.uleb128 0x2
	.byte	0x7e
	.sleb128 0
	.uleb128 0x1
	.uleb128 0x1
	.byte	0x54
	.uleb128 0x2
	.byte	0x76
	.sleb128 0
	.uleb128 0x1
	.uleb128 0x1
	.byte	0x51
	.uleb128 0x6
	.byte	0x91
	.sleb128 -128
	.byte	0x6
	.byte	0x33
	.byte	0x24
	.byte	0
	.byte	0
	.uleb128 0x9
	.long	0x4563
	.quad	.LBI267
	.value	.LVU410
	.long	.LLRL79
	.value	0x1b6
	.byte	0x37
	.long	0x335f
	.uleb128 0x2
	.long	0x4580
	.long	.LLST80
	.long	.LVUS80
	.uleb128 0x2
	.long	0x4574
	.long	.LLST81
	.long	.LVUS81
	.uleb128 0x12
	.long	.LLRL79
	.uleb128 0xf
	.long	0x458c
	.uleb128 0x3
	.quad	.LVL129
	.long	0xd9e
	.uleb128 0x1
	.uleb128 0x1
	.byte	0x55
	.uleb128 0x3
	.byte	0x91
	.sleb128 -104
	.uleb128 0x1
	.uleb128 0x1
	.byte	0x54
	.uleb128 0x2
	.byte	0x8
	.byte	0x40
	.uleb128 0x1
	.uleb128 0x1
	.byte	0x51
	.uleb128 0x2
	.byte	0x7d
	.sleb128 0
	.byte	0
	.byte	0
	.byte	0
	.uleb128 0xe
	.long	0x4563
	.quad	.LBI273
	.value	.LVU441
	.quad	.LBB273
	.quad	.LBE273-.LBB273
	.value	0x1cf
	.byte	0x24
	.long	0x33c6
	.uleb128 0x2
	.long	0x4580
	.long	.LLST84
	.long	.LVUS84
	.uleb128 0x2
	.long	0x4574
	.long	.LLST85
	.long	.LVUS85
	.uleb128 0xf
	.long	0x458c
	.uleb128 0x3
	.quad	.LVL137
	.long	0xd9e
	.uleb128 0x1
	.uleb128 0x1
	.byte	0x55
	.uleb128 0x3
	.byte	0x91
	.sleb128 -96
	.uleb128 0x1
	.uleb128 0x1
	.byte	0x54
	.uleb128 0x2
	.byte	0x8
	.byte	0x40
	.uleb128 0x1
	.uleb128 0x1
	.byte	0x51
	.uleb128 0x2
	.byte	0x7d
	.sleb128 0
	.byte	0
	.byte	0
	.uleb128 0xe
	.long	0x4549
	.quad	.LBI276
	.value	.LVU517
	.quad	.LBB276
	.quad	.LBE276-.LBB276
	.value	0x1e1
	.byte	0x9
	.long	0x33fa
	.uleb128 0x2
	.long	0x4556
	.long	.LLST87
	.long	.LVUS87
	.byte	0
	.uleb128 0x4
	.quad	.LVL139
	.long	0xf27
	.long	0x3419
	.uleb128 0x1
	.uleb128 0x1
	.byte	0x55
	.uleb128 0x9
	.byte	0x3
	.quad	.LC10
	.byte	0
	.uleb128 0x4
	.quad	.LVL140
	.long	0xf14
	.long	0x3430
	.uleb128 0x1
	.uleb128 0x1
	.byte	0x55
	.uleb128 0x1
	.byte	0x30
	.byte	0
	.uleb128 0x4
	.quad	.LVL141
	.long	0xf27
	.long	0x344f
	.uleb128 0x1
	.uleb128 0x1
	.byte	0x55
	.uleb128 0x9
	.byte	0x3
	.quad	.LC9
	.byte	0
	.uleb128 0x3
	.quad	.LVL142
	.long	0xf14
	.uleb128 0x1
	.uleb128 0x1
	.byte	0x55
	.uleb128 0x1
	.byte	0x30
	.byte	0
	.byte	0
	.uleb128 0x23
	.long	.LLRL88
	.long	0x36ce
	.uleb128 0xb
	.long	.LASF351
	.value	0x1e7
	.byte	0x1c
	.long	0xab2
	.long	.LLST89
	.long	.LVUS89
	.uleb128 0x2b
	.quad	.LBB285
	.quad	.LBE285-.LBB285
	.long	0x3500
	.uleb128 0x11
	.string	"i"
	.value	0x1f2
	.byte	0x12
	.long	0x69
	.long	.LLST93
	.long	.LVUS93
	.uleb128 0x3
	.quad	.LVL152
	.long	0x4f96
	.uleb128 0x1
	.uleb128 0x1
	.byte	0x55
	.uleb128 0x17
	.byte	0x91
	.sleb128 -128
	.byte	0x6
	.byte	0x33
	.byte	0x24
	.byte	0x7f
	.sleb128 -1
	.byte	0xc
	.long	0xffffffff
	.byte	0x1a
	.byte	0x1f
	.byte	0x33
	.byte	0x24
	.byte	0x22
	.byte	0x73
	.sleb128 0
	.byte	0x22
	.byte	0x38
	.byte	0x1c
	.uleb128 0x1
	.uleb128 0x1
	.byte	0x54
	.uleb128 0x1b
	.byte	0x7f
	.sleb128 -1
	.byte	0x8
	.byte	0x20
	.byte	0x24
	.byte	0x8
	.byte	0x20
	.byte	0x26
	.byte	0x33
	.byte	0x24
	.byte	0x7f
	.sleb128 -1
	.byte	0xc
	.long	0xffffffff
	.byte	0x1a
	.byte	0x1f
	.byte	0x33
	.byte	0x24
	.byte	0x22
	.byte	0x91
	.sleb128 -120
	.byte	0x6
	.byte	0x22
	.uleb128 0x1
	.uleb128 0x1
	.byte	0x51
	.uleb128 0xc
	.byte	0x7f
	.sleb128 -1
	.byte	0xc
	.long	0xffffffff
	.byte	0x1a
	.byte	0x33
	.byte	0x24
	.byte	0x23
	.uleb128 0x8
	.byte	0
	.byte	0
	.uleb128 0x2b
	.quad	.LBB286
	.quad	.LBE286-.LBB286
	.long	0x3552
	.uleb128 0x11
	.string	"i"
	.value	0x1fb
	.byte	0x12
	.long	0x69
	.long	.LLST94
	.long	.LVUS94
	.uleb128 0x3
	.quad	.LVL153
	.long	0x4f05
	.uleb128 0x1
	.uleb128 0x1
	.byte	0x55
	.uleb128 0x2
	.byte	0x73
	.sleb128 0
	.uleb128 0x1
	.uleb128 0x1
	.byte	0x54
	.uleb128 0x1
	.byte	0x30
	.uleb128 0x1
	.uleb128 0x1
	.byte	0x51
	.uleb128 0xd
	.byte	0x7e
	.sleb128 0
	.byte	0x7f
	.sleb128 0
	.byte	0x1c
	.byte	0x8
	.byte	0x20
	.byte	0x24
	.byte	0x8
	.byte	0x20
	.byte	0x26
	.byte	0x33
	.byte	0x24
	.byte	0
	.byte	0
	.uleb128 0x2b
	.quad	.LBB292
	.quad	.LBE292-.LBB292
	.long	0x359e
	.uleb128 0x11
	.string	"i"
	.value	0x20b
	.byte	0x12
	.long	0x69
	.long	.LLST99
	.long	.LVUS99
	.uleb128 0x3
	.quad	.LVL166
	.long	0x4f96
	.uleb128 0x1
	.uleb128 0x1
	.byte	0x55
	.uleb128 0x2
	.byte	0x7f
	.sleb128 0
	.uleb128 0x1
	.uleb128 0x1
	.byte	0x54
	.uleb128 0x2
	.byte	0x73
	.sleb128 0
	.uleb128 0x1
	.uleb128 0x1
	.byte	0x51
	.uleb128 0x6
	.byte	0x91
	.sleb128 -128
	.byte	0x6
	.byte	0x33
	.byte	0x24
	.byte	0
	.byte	0
	.uleb128 0x9
	.long	0x4563
	.quad	.LBI279
	.value	.LVU460
	.long	.LLRL90
	.value	0x1e7
	.byte	0x37
	.long	0x35ff
	.uleb128 0x2
	.long	0x4580
	.long	.LLST91
	.long	.LVUS91
	.uleb128 0x2
	.long	0x4574
	.long	.LLST92
	.long	.LVUS92
	.uleb128 0x12
	.long	.LLRL90
	.uleb128 0xf
	.long	0x458c
	.uleb128 0x3
	.quad	.LVL148
	.long	0xd9e
	.uleb128 0x1
	.uleb128 0x1
	.byte	0x55
	.uleb128 0x3
	.byte	0x91
	.sleb128 -88
	.uleb128 0x1
	.uleb128 0x1
	.byte	0x54
	.uleb128 0x2
	.byte	0x8
	.byte	0x40
	.uleb128 0x1
	.uleb128 0x1
	.byte	0x51
	.uleb128 0x2
	.byte	0x7c
	.sleb128 0
	.byte	0
	.byte	0
	.byte	0
	.uleb128 0xe
	.long	0x4563
	.quad	.LBI287
	.value	.LVU496
	.quad	.LBB287
	.quad	.LBE287-.LBB287
	.value	0x201
	.byte	0x24
	.long	0x3666
	.uleb128 0x2
	.long	0x4580
	.long	.LLST95
	.long	.LVUS95
	.uleb128 0x2
	.long	0x4574
	.long	.LLST96
	.long	.LVUS96
	.uleb128 0xf
	.long	0x458c
	.uleb128 0x3
	.quad	.LVL154
	.long	0xd9e
	.uleb128 0x1
	.uleb128 0x1
	.byte	0x55
	.uleb128 0x3
	.byte	0x91
	.sleb128 -80
	.uleb128 0x1
	.uleb128 0x1
	.byte	0x54
	.uleb128 0x2
	.byte	0x8
	.byte	0x40
	.uleb128 0x1
	.uleb128 0x1
	.byte	0x51
	.uleb128 0x2
	.byte	0x7c
	.sleb128 0
	.byte	0
	.byte	0
	.uleb128 0x9
	.long	0x4549
	.quad	.LBI289
	.value	.LVU535
	.long	.LLRL97
	.value	0x212
	.byte	0x9
	.long	0x369b
	.uleb128 0x2
	.long	0x4556
	.long	.LLST98
	.long	.LVUS98
	.uleb128 0x66
	.quad	.LVL163
	.long	0xd58
	.byte	0
	.uleb128 0x4
	.quad	.LVL156
	.long	0xf27
	.long	0x36ba
	.uleb128 0x1
	.uleb128 0x1
	.byte	0x55
	.uleb128 0x9
	.byte	0x3
	.quad	.LC11
	.byte	0
	.uleb128 0x3
	.quad	.LVL157
	.long	0xf14
	.uleb128 0x1
	.uleb128 0x1
	.byte	0x55
	.uleb128 0x1
	.byte	0x30
	.byte	0
	.byte	0
	.uleb128 0x13
	.quad	.LVL169
	.long	0x4f84
	.byte	0
	.uleb128 0x3c
	.long	.LASF353
	.value	0x160
	.byte	0x7
	.long	0xd7
	.quad	.LFB5784
	.quad	.LFE5784-.LFB5784
	.uleb128 0x1
	.byte	0x9c
	.long	0x3adc
	.uleb128 0x17
	.long	.LASF332
	.value	0x160
	.byte	0x1e
	.long	0xabe
	.long	.LLST49
	.long	.LVUS49
	.uleb128 0x17
	.long	.LASF354
	.value	0x160
	.byte	0x2b
	.long	0xd53
	.long	.LLST50
	.long	.LVUS50
	.uleb128 0xb
	.long	.LASF355
	.value	0x162
	.byte	0xb
	.long	0xd7
	.long	.LLST51
	.long	.LVUS51
	.uleb128 0x11
	.string	"i"
	.value	0x168
	.byte	0x9
	.long	0x69
	.long	.LLST52
	.long	.LVUS52
	.uleb128 0xb
	.long	.LASF356
	.value	0x191
	.byte	0xb
	.long	0xd7
	.long	.LLST53
	.long	.LVUS53
	.uleb128 0x11
	.string	"j"
	.value	0x197
	.byte	0x9
	.long	0x69
	.long	.LLST54
	.long	.LVUS54
	.uleb128 0x67
	.long	0x3784
	.uleb128 0x1e
	.long	.LASF351
	.value	0x176
	.byte	0x13
	.long	0xd7
	.byte	0
	.uleb128 0x23
	.long	.LLRL58
	.long	0x394d
	.uleb128 0x11
	.string	"i"
	.value	0x17e
	.byte	0xe
	.long	0x69
	.long	.LLST59
	.long	.LVUS59
	.uleb128 0x12
	.long	.LLRL60
	.uleb128 0x15
	.long	.LASF351
	.value	0x180
	.byte	0xe
	.long	0x3adc
	.uleb128 0x3
	.byte	0x91
	.sleb128 -112
	.uleb128 0x9
	.long	0x46c3
	.quad	.LBI216
	.value	.LVU198
	.long	.LLRL61
	.value	0x181
	.byte	0x9
	.long	0x38a6
	.uleb128 0x2
	.long	0x46ea
	.long	.LLST62
	.long	.LVUS62
	.uleb128 0x2
	.long	0x46de
	.long	.LLST63
	.long	.LVUS63
	.uleb128 0x2
	.long	0x46d2
	.long	.LLST64
	.long	.LVUS64
	.uleb128 0x4
	.quad	.LVL72
	.long	0x4f26
	.long	0x3822
	.uleb128 0x1
	.uleb128 0x1
	.byte	0x55
	.uleb128 0x2
	.byte	0x73
	.sleb128 0
	.uleb128 0x1
	.uleb128 0x1
	.byte	0x54
	.uleb128 0x1
	.byte	0x49
	.uleb128 0x1
	.uleb128 0x1
	.byte	0x51
	.uleb128 0x1
	.byte	0x31
	.uleb128 0x1
	.uleb128 0x1
	.byte	0x52
	.uleb128 0x1
	.byte	0x49
	.uleb128 0x1
	.uleb128 0x1
	.byte	0x58
	.uleb128 0x2
	.byte	0x7f
	.sleb128 0
	.byte	0
	.uleb128 0x4
	.quad	.LVL75
	.long	0x4f26
	.long	0x384f
	.uleb128 0x1
	.uleb128 0x1
	.byte	0x55
	.uleb128 0x2
	.byte	0x73
	.sleb128 0
	.uleb128 0x1
	.uleb128 0x1
	.byte	0x54
	.uleb128 0x1
	.byte	0x49
	.uleb128 0x1
	.uleb128 0x1
	.byte	0x51
	.uleb128 0x1
	.byte	0x31
	.uleb128 0x1
	.uleb128 0x1
	.byte	0x52
	.uleb128 0x1
	.byte	0x49
	.uleb128 0x1
	.uleb128 0x1
	.byte	0x58
	.uleb128 0x2
	.byte	0x7f
	.sleb128 0
	.byte	0
	.uleb128 0x4
	.quad	.LVL78
	.long	0x4f26
	.long	0x387c
	.uleb128 0x1
	.uleb128 0x1
	.byte	0x55
	.uleb128 0x2
	.byte	0x73
	.sleb128 0
	.uleb128 0x1
	.uleb128 0x1
	.byte	0x54
	.uleb128 0x1
	.byte	0x49
	.uleb128 0x1
	.uleb128 0x1
	.byte	0x51
	.uleb128 0x1
	.byte	0x31
	.uleb128 0x1
	.uleb128 0x1
	.byte	0x52
	.uleb128 0x1
	.byte	0x49
	.uleb128 0x1
	.uleb128 0x1
	.byte	0x58
	.uleb128 0x2
	.byte	0x7f
	.sleb128 0
	.byte	0
	.uleb128 0x3
	.quad	.LVL81
	.long	0x4f26
	.uleb128 0x1
	.uleb128 0x1
	.byte	0x55
	.uleb128 0x2
	.byte	0x73
	.sleb128 0
	.uleb128 0x1
	.uleb128 0x1
	.byte	0x54
	.uleb128 0x1
	.byte	0x49
	.uleb128 0x1
	.uleb128 0x1
	.byte	0x51
	.uleb128 0x1
	.byte	0x31
	.uleb128 0x1
	.uleb128 0x1
	.byte	0x52
	.uleb128 0x1
	.byte	0x49
	.uleb128 0x1
	.uleb128 0x1
	.byte	0x58
	.uleb128 0x2
	.byte	0x7f
	.sleb128 0
	.byte	0
	.byte	0
	.uleb128 0x1f
	.long	0x45cd
	.quad	.LBI224
	.value	.LVU203
	.long	.LLRL65
	.value	0x182
	.byte	0x9
	.uleb128 0x2
	.long	0x45e8
	.long	.LLST66
	.long	.LVUS66
	.uleb128 0x2
	.long	0x45dc
	.long	.LLST67
	.long	.LVUS67
	.uleb128 0x4
	.quad	.LVL73
	.long	0x4f9f
	.long	0x38f4
	.uleb128 0x1
	.uleb128 0x1
	.byte	0x55
	.uleb128 0x2
	.byte	0x76
	.sleb128 0
	.uleb128 0x1
	.uleb128 0x1
	.byte	0x54
	.uleb128 0x2
	.byte	0x73
	.sleb128 0
	.byte	0
	.uleb128 0x4
	.quad	.LVL76
	.long	0x4f9f
	.long	0x3912
	.uleb128 0x1
	.uleb128 0x1
	.byte	0x55
	.uleb128 0x2
	.byte	0x76
	.sleb128 0
	.uleb128 0x1
	.uleb128 0x1
	.byte	0x54
	.uleb128 0x2
	.byte	0x73
	.sleb128 0
	.byte	0
	.uleb128 0x4
	.quad	.LVL79
	.long	0x4f9f
	.long	0x3930
	.uleb128 0x1
	.uleb128 0x1
	.byte	0x55
	.uleb128 0x2
	.byte	0x76
	.sleb128 0
	.uleb128 0x1
	.uleb128 0x1
	.byte	0x54
	.uleb128 0x2
	.byte	0x73
	.sleb128 0
	.byte	0
	.uleb128 0x3
	.quad	.LVL82
	.long	0x4f9f
	.uleb128 0x1
	.uleb128 0x1
	.byte	0x55
	.uleb128 0x2
	.byte	0x76
	.sleb128 0
	.uleb128 0x1
	.uleb128 0x1
	.byte	0x54
	.uleb128 0x2
	.byte	0x73
	.sleb128 0
	.byte	0
	.byte	0
	.byte	0
	.byte	0
	.uleb128 0x2b
	.quad	.LBB245
	.quad	.LBE245-.LBB245
	.long	0x398f
	.uleb128 0xb
	.long	.LASF351
	.value	0x18c
	.byte	0xf
	.long	0xd7
	.long	.LLST68
	.long	.LVUS68
	.uleb128 0x3
	.quad	.LVL112
	.long	0xd82
	.uleb128 0x1
	.uleb128 0x1
	.byte	0x55
	.uleb128 0x1
	.byte	0x32
	.uleb128 0x1
	.uleb128 0x1
	.byte	0x54
	.uleb128 0x1
	.byte	0x31
	.byte	0
	.byte	0
	.uleb128 0x9
	.long	0x46f8
	.quad	.LBI208
	.value	.LVU183
	.long	.LLRL55
	.value	0x16a
	.byte	0x5
	.long	0x39f0
	.uleb128 0x2
	.long	0x4713
	.long	.LLST56
	.long	.LVUS56
	.uleb128 0x2
	.long	0x4707
	.long	.LLST57
	.long	.LVUS57
	.uleb128 0x3
	.quad	.LVL70
	.long	0x4fa8
	.uleb128 0x1
	.uleb128 0x1
	.byte	0x55
	.uleb128 0x2
	.byte	0x76
	.sleb128 0
	.uleb128 0x1
	.uleb128 0x1
	.byte	0x54
	.uleb128 0x1
	.byte	0x31
	.uleb128 0x1
	.uleb128 0x1
	.byte	0x51
	.uleb128 0x2
	.byte	0x9
	.byte	0xff
	.uleb128 0x1
	.uleb128 0x1
	.byte	0x52
	.uleb128 0x9
	.byte	0x3
	.quad	.LC6
	.byte	0
	.byte	0
	.uleb128 0x4
	.quad	.LVL67
	.long	0xd82
	.long	0x3a07
	.uleb128 0x1
	.uleb128 0x1
	.byte	0x54
	.uleb128 0x1
	.byte	0x31
	.byte	0
	.uleb128 0x4
	.quad	.LVL85
	.long	0xd6b
	.long	0x3a1f
	.uleb128 0x1
	.uleb128 0x1
	.byte	0x55
	.uleb128 0x2
	.byte	0x76
	.sleb128 0
	.byte	0
	.uleb128 0x4
	.quad	.LVL86
	.long	0xd82
	.long	0x3a36
	.uleb128 0x1
	.uleb128 0x1
	.byte	0x54
	.uleb128 0x1
	.byte	0x31
	.byte	0
	.uleb128 0x4
	.quad	.LVL106
	.long	0xd58
	.long	0x3a4e
	.uleb128 0x1
	.uleb128 0x1
	.byte	0x55
	.uleb128 0x2
	.byte	0x76
	.sleb128 0
	.byte	0
	.uleb128 0x4
	.quad	.LVL107
	.long	0xd6b
	.long	0x3a66
	.uleb128 0x1
	.uleb128 0x1
	.byte	0x55
	.uleb128 0x2
	.byte	0x7f
	.sleb128 0
	.byte	0
	.uleb128 0x4
	.quad	.LVL115
	.long	0xf27
	.long	0x3a85
	.uleb128 0x1
	.uleb128 0x1
	.byte	0x55
	.uleb128 0x9
	.byte	0x3
	.quad	.LC5
	.byte	0
	.uleb128 0x4
	.quad	.LVL116
	.long	0xf14
	.long	0x3a9c
	.uleb128 0x1
	.uleb128 0x1
	.byte	0x55
	.uleb128 0x1
	.byte	0x30
	.byte	0
	.uleb128 0x13
	.quad	.LVL117
	.long	0x4f84
	.uleb128 0x4
	.quad	.LVL118
	.long	0xf27
	.long	0x3ac8
	.uleb128 0x1
	.uleb128 0x1
	.byte	0x55
	.uleb128 0x9
	.byte	0x3
	.quad	.LC8
	.byte	0
	.uleb128 0x3
	.quad	.LVL119
	.long	0xf14
	.uleb128 0x1
	.uleb128 0x1
	.byte	0x55
	.uleb128 0x1
	.byte	0x30
	.byte	0
	.byte	0
	.uleb128 0x1b
	.long	0xe1
	.long	0x3aec
	.uleb128 0x1c
	.long	0x3d
	.byte	0x18
	.byte	0
	.uleb128 0x3c
	.long	.LASF357
	.value	0x142
	.byte	0xb
	.long	0xabe
	.quad	.LFB5783
	.quad	.LFE5783-.LFB5783
	.uleb128 0x1
	.byte	0x9c
	.long	0x3d0d
	.uleb128 0x17
	.long	.LASF358
	.value	0x142
	.byte	0x21
	.long	0xabe
	.long	.LLST29
	.long	.LVUS29
	.uleb128 0x17
	.long	.LASF359
	.value	0x142
	.byte	0x2e
	.long	0xd53
	.long	.LLST30
	.long	.LVUS30
	.uleb128 0xb
	.long	.LASF360
	.value	0x144
	.byte	0x18
	.long	0xab2
	.long	.LLST31
	.long	.LVUS31
	.uleb128 0x11
	.string	"n"
	.value	0x145
	.byte	0x9
	.long	0x69
	.long	.LLST32
	.long	.LVUS32
	.uleb128 0xb
	.long	.LASF361
	.value	0x146
	.byte	0x9
	.long	0x69
	.long	.LLST33
	.long	.LVUS33
	.uleb128 0x11
	.string	"i"
	.value	0x14e
	.byte	0x9
	.long	0x69
	.long	.LLST34
	.long	.LVUS34
	.uleb128 0x11
	.string	"k"
	.value	0x14f
	.byte	0x9
	.long	0x69
	.long	.LLST35
	.long	.LVUS35
	.uleb128 0x23
	.long	.LLRL44
	.long	0x3bde
	.uleb128 0xb
	.long	.LASF362
	.value	0x152
	.byte	0x18
	.long	0xaa6
	.long	.LLST45
	.long	.LVUS45
	.uleb128 0xb
	.long	.LASF363
	.value	0x153
	.byte	0x12
	.long	0xa9a
	.long	.LLST46
	.long	.LVUS46
	.uleb128 0x12
	.long	.LLRL47
	.uleb128 0x11
	.string	"j"
	.value	0x154
	.byte	0x12
	.long	0x69
	.long	.LLST48
	.long	.LVUS48
	.byte	0
	.byte	0
	.uleb128 0x9
	.long	0x4563
	.quad	.LBI191
	.value	.LVU107
	.long	.LLRL36
	.value	0x147
	.byte	0x21
	.long	0x3c3e
	.uleb128 0x2
	.long	0x4580
	.long	.LLST37
	.long	.LVUS37
	.uleb128 0x2
	.long	0x4574
	.long	.LLST38
	.long	.LVUS38
	.uleb128 0x12
	.long	.LLRL36
	.uleb128 0xf
	.long	0x458c
	.uleb128 0x3
	.quad	.LVL42
	.long	0xd9e
	.uleb128 0x1
	.uleb128 0x1
	.byte	0x55
	.uleb128 0x2
	.byte	0x77
	.sleb128 48
	.uleb128 0x1
	.uleb128 0x1
	.byte	0x54
	.uleb128 0x2
	.byte	0x8
	.byte	0x40
	.uleb128 0x1
	.uleb128 0x1
	.byte	0x51
	.uleb128 0x2
	.byte	0x7f
	.sleb128 0
	.byte	0
	.byte	0
	.byte	0
	.uleb128 0xe
	.long	0x467d
	.quad	.LBI197
	.value	.LVU115
	.quad	.LBB197
	.quad	.LBE197-.LBB197
	.value	0x14a
	.byte	0x9
	.long	0x3c8d
	.uleb128 0x2
	.long	0x468c
	.long	.LLST39
	.long	.LVUS39
	.uleb128 0x3
	.quad	.LVL44
	.long	0x4f42
	.uleb128 0x1
	.uleb128 0x1
	.byte	0x55
	.uleb128 0x9
	.byte	0x3
	.quad	.LC4
	.byte	0
	.byte	0
	.uleb128 0x9
	.long	0x45f5
	.quad	.LBI199
	.value	.LVU124
	.long	.LLRL40
	.value	0x14d
	.byte	0x5
	.long	0x3ce8
	.uleb128 0x2
	.long	0x461c
	.long	.LLST41
	.long	.LVUS41
	.uleb128 0x2
	.long	0x4610
	.long	.LLST42
	.long	.LVUS42
	.uleb128 0x2
	.long	0x4604
	.long	.LLST43
	.long	.LVUS43
	.uleb128 0x3
	.quad	.LVL48
	.long	0x4f05
	.uleb128 0x1
	.uleb128 0x1
	.byte	0x54
	.uleb128 0x1
	.byte	0x30
	.uleb128 0x1
	.uleb128 0x1
	.byte	0x51
	.uleb128 0x2
	.byte	0x7f
	.sleb128 0
	.byte	0
	.byte	0
	.uleb128 0x4
	.quad	.LVL45
	.long	0xf14
	.long	0x3cff
	.uleb128 0x1
	.uleb128 0x1
	.byte	0x55
	.uleb128 0x1
	.byte	0x31
	.byte	0
	.uleb128 0x13
	.quad	.LVL63
	.long	0x4f84
	.byte	0
	.uleb128 0x3c
	.long	.LASF364
	.value	0x11a
	.byte	0x5
	.long	0x69
	.quad	.LFB5782
	.quad	.LFE5782-.LFB5782
	.uleb128 0x1
	.byte	0x9c
	.long	0x40c9
	.uleb128 0x17
	.long	.LASF365
	.value	0x11a
	.byte	0xe
	.long	0x69
	.long	.LLST347
	.long	.LVUS347
	.uleb128 0x17
	.long	.LASF366
	.value	0x11a
	.byte	0x1a
	.long	0x48b
	.long	.LLST348
	.long	.LVUS348
	.uleb128 0x68
	.long	.LASF424
	.long	0x40d9
	.uleb128 0x9
	.byte	0x3
	.quad	__PRETTY_FUNCTION__.0
	.uleb128 0x9
	.long	0x467d
	.quad	.LBI768
	.value	.LVU3003
	.long	.LLRL349
	.value	0x11e
	.byte	0x9
	.long	0x3db3
	.uleb128 0x2
	.long	0x468c
	.long	.LLST350
	.long	.LVUS350
	.uleb128 0x3
	.quad	.LVL722
	.long	0xdfa
	.uleb128 0x1
	.uleb128 0x1
	.byte	0x55
	.uleb128 0x2
	.byte	0x7c
	.sleb128 0
	.uleb128 0x1
	.uleb128 0x1
	.byte	0x54
	.uleb128 0x9
	.byte	0x3
	.quad	.LC41
	.byte	0
	.byte	0
	.uleb128 0xe
	.long	0x465d
	.quad	.LBI772
	.value	.LVU3015
	.quad	.LBB772
	.quad	.LBE772-.LBB772
	.value	0x122
	.byte	0x5
	.long	0x3dff
	.uleb128 0x2
	.long	0x466f
	.long	.LLST351
	.long	.LVUS351
	.uleb128 0x3
	.quad	.LVL726
	.long	0xdda
	.uleb128 0x1
	.uleb128 0x1
	.byte	0x54
	.uleb128 0x1
	.byte	0x30
	.uleb128 0x1
	.uleb128 0x1
	.byte	0x51
	.uleb128 0x1
	.byte	0x3a
	.byte	0
	.byte	0
	.uleb128 0x9
	.long	0x465d
	.quad	.LBI774
	.value	.LVU3022
	.long	.LLRL352
	.value	0x123
	.byte	0x10
	.long	0x3e3f
	.uleb128 0x2
	.long	0x466f
	.long	.LLST353
	.long	.LVUS353
	.uleb128 0x3
	.quad	.LVL728
	.long	0xdda
	.uleb128 0x1
	.uleb128 0x1
	.byte	0x54
	.uleb128 0x1
	.byte	0x30
	.uleb128 0x1
	.uleb128 0x1
	.byte	0x51
	.uleb128 0x1
	.byte	0x3a
	.byte	0
	.byte	0
	.uleb128 0x9
	.long	0x465d
	.quad	.LBI777
	.value	.LVU3028
	.long	.LLRL354
	.value	0x124
	.byte	0xf
	.long	0x3e7f
	.uleb128 0x2
	.long	0x466f
	.long	.LLST355
	.long	.LVUS355
	.uleb128 0x3
	.quad	.LVL730
	.long	0xdda
	.uleb128 0x1
	.uleb128 0x1
	.byte	0x54
	.uleb128 0x1
	.byte	0x30
	.uleb128 0x1
	.uleb128 0x1
	.byte	0x51
	.uleb128 0x1
	.byte	0x3a
	.byte	0
	.byte	0
	.uleb128 0x9
	.long	0x4563
	.quad	.LBI783
	.value	.LVU3035
	.long	.LLRL356
	.value	0x12a
	.byte	0x25
	.long	0x3ee0
	.uleb128 0x2
	.long	0x4580
	.long	.LLST357
	.long	.LVUS357
	.uleb128 0x2
	.long	0x4574
	.long	.LLST358
	.long	.LVUS358
	.uleb128 0x12
	.long	.LLRL356
	.uleb128 0xf
	.long	0x458c
	.uleb128 0x3
	.quad	.LVL732
	.long	0xd9e
	.uleb128 0x1
	.uleb128 0x1
	.byte	0x55
	.uleb128 0x2
	.byte	0x91
	.sleb128 -64
	.uleb128 0x1
	.uleb128 0x1
	.byte	0x54
	.uleb128 0x2
	.byte	0x8
	.byte	0x40
	.uleb128 0x1
	.uleb128 0x1
	.byte	0x51
	.uleb128 0x3
	.byte	0x40
	.byte	0x4a
	.byte	0x24
	.byte	0
	.byte	0
	.byte	0
	.uleb128 0x9
	.long	0x4563
	.quad	.LBI788
	.value	.LVU3044
	.long	.LLRL359
	.value	0x12b
	.byte	0x28
	.long	0x3f68
	.uleb128 0x2
	.long	0x4580
	.long	.LLST360
	.long	.LVUS360
	.uleb128 0x2
	.long	0x4574
	.long	.LLST361
	.long	.LVUS361
	.uleb128 0x12
	.long	.LLRL359
	.uleb128 0xf
	.long	0x458c
	.uleb128 0x4
	.quad	.LVL735
	.long	0xd9e
	.long	0x3f44
	.uleb128 0x1
	.uleb128 0x1
	.byte	0x55
	.uleb128 0x3
	.byte	0x91
	.sleb128 -72
	.uleb128 0x1
	.uleb128 0x1
	.byte	0x54
	.uleb128 0x2
	.byte	0x8
	.byte	0x40
	.uleb128 0x1
	.uleb128 0x1
	.byte	0x51
	.uleb128 0x3
	.byte	0x40
	.byte	0x4a
	.byte	0x24
	.byte	0
	.uleb128 0x3
	.quad	.LVL743
	.long	0xd9e
	.uleb128 0x1
	.uleb128 0x1
	.byte	0x55
	.uleb128 0x3
	.byte	0x91
	.sleb128 -72
	.uleb128 0x1
	.uleb128 0x1
	.byte	0x54
	.uleb128 0x2
	.byte	0x8
	.byte	0x40
	.uleb128 0x1
	.uleb128 0x1
	.byte	0x51
	.uleb128 0x3
	.byte	0x40
	.byte	0x4a
	.byte	0x24
	.byte	0
	.byte	0
	.byte	0
	.uleb128 0x9
	.long	0x45f5
	.quad	.LBI794
	.value	.LVU3060
	.long	.LLRL362
	.value	0x138
	.byte	0x5
	.long	0x3fca
	.uleb128 0x2
	.long	0x461c
	.long	.LLST363
	.long	.LVUS363
	.uleb128 0x2
	.long	0x4610
	.long	.LLST364
	.long	.LVUS364
	.uleb128 0x2
	.long	0x4604
	.long	.LLST365
	.long	.LVUS365
	.uleb128 0x3
	.quad	.LVL738
	.long	0x4f05
	.uleb128 0x1
	.uleb128 0x1
	.byte	0x55
	.uleb128 0x2
	.byte	0x7d
	.sleb128 0
	.uleb128 0x1
	.uleb128 0x1
	.byte	0x54
	.uleb128 0x1
	.byte	0x30
	.uleb128 0x1
	.uleb128 0x1
	.byte	0x51
	.uleb128 0x3
	.byte	0x40
	.byte	0x4a
	.byte	0x24
	.byte	0
	.byte	0
	.uleb128 0xe
	.long	0x45f5
	.quad	.LBI798
	.value	.LVU3065
	.quad	.LBB798
	.quad	.LBE798-.LBB798
	.value	0x139
	.byte	0x5
	.long	0x4038
	.uleb128 0x2
	.long	0x461c
	.long	.LLST366
	.long	.LVUS366
	.uleb128 0x2
	.long	0x4610
	.long	.LLST367
	.long	.LVUS367
	.uleb128 0x2
	.long	0x4604
	.long	.LLST368
	.long	.LVUS368
	.uleb128 0x3
	.quad	.LVL739
	.long	0x4f05
	.uleb128 0x1
	.uleb128 0x1
	.byte	0x55
	.uleb128 0x2
	.byte	0x76
	.sleb128 0
	.uleb128 0x1
	.uleb128 0x1
	.byte	0x54
	.uleb128 0x1
	.byte	0x30
	.uleb128 0x1
	.uleb128 0x1
	.byte	0x51
	.uleb128 0x3
	.byte	0x40
	.byte	0x4a
	.byte	0x24
	.byte	0
	.byte	0
	.uleb128 0x13
	.quad	.LVL740
	.long	0xf73
	.uleb128 0x4
	.quad	.LVL745
	.long	0xf27
	.long	0x4064
	.uleb128 0x1
	.uleb128 0x1
	.byte	0x55
	.uleb128 0x9
	.byte	0x3
	.quad	.LC44
	.byte	0
	.uleb128 0x4
	.quad	.LVL746
	.long	0xf14
	.long	0x407b
	.uleb128 0x1
	.uleb128 0x1
	.byte	0x55
	.uleb128 0x1
	.byte	0x31
	.byte	0
	.uleb128 0x4
	.quad	.LVL747
	.long	0xe16
	.long	0x40bb
	.uleb128 0x1
	.uleb128 0x1
	.byte	0x55
	.uleb128 0x9
	.byte	0x3
	.quad	.LC43
	.uleb128 0x1
	.uleb128 0x1
	.byte	0x54
	.uleb128 0x9
	.byte	0x3
	.quad	.LC42
	.uleb128 0x1
	.uleb128 0x1
	.byte	0x51
	.uleb128 0x3
	.byte	0xa
	.value	0x122
	.uleb128 0x1
	.uleb128 0x1
	.byte	0x52
	.uleb128 0x9
	.byte	0x3
	.quad	__PRETTY_FUNCTION__.0
	.byte	0
	.uleb128 0x13
	.quad	.LVL748
	.long	0x4f84
	.byte	0
	.uleb128 0x1b
	.long	0xe8
	.long	0x40d9
	.uleb128 0x1c
	.long	0x3d
	.byte	0x4
	.byte	0
	.uleb128 0x3d
	.long	0x40c9
	.uleb128 0x4e
	.long	.LASF367
	.byte	0xbd
	.byte	0xd
	.byte	0x3
	.long	0x4167
	.uleb128 0x1a
	.string	"a"
	.byte	0x1
	.byte	0xbd
	.byte	0x26
	.long	0xac3
	.uleb128 0x1a
	.string	"b"
	.byte	0x1
	.byte	0xbd
	.byte	0x3c
	.long	0xac3
	.uleb128 0xd
	.long	.LASF368
	.byte	0x1
	.byte	0xbd
	.byte	0x53
	.long	0x2c60
	.uleb128 0x1a
	.string	"n"
	.byte	0x1
	.byte	0xbd
	.byte	0x63
	.long	0x69
	.uleb128 0xd
	.long	.LASF334
	.byte	0x1
	.byte	0xbd
	.byte	0x6b
	.long	0xd53
	.uleb128 0x16
	.long	.LASF332
	.byte	0x1
	.byte	0xc2
	.byte	0x18
	.long	0xab2
	.uleb128 0x16
	.long	.LASF369
	.byte	0x1
	.byte	0xc4
	.byte	0xa
	.long	0x2cab
	.uleb128 0x16
	.long	.LASF370
	.byte	0x1
	.byte	0xce
	.byte	0x18
	.long	0xab2
	.uleb128 0x41
	.string	"i"
	.byte	0xcf
	.long	0x69
	.uleb128 0x16
	.long	.LASF371
	.byte	0x1
	.byte	0xe7
	.byte	0x9
	.long	0x69
	.uleb128 0x2a
	.uleb128 0x16
	.long	.LASF351
	.byte	0x1
	.byte	0xc8
	.byte	0x1c
	.long	0xab2
	.byte	0
	.byte	0
	.uleb128 0x4e
	.long	.LASF372
	.byte	0xac
	.byte	0x6
	.byte	0x1
	.long	0x418a
	.uleb128 0xd
	.long	.LASF370
	.byte	0x1
	.byte	0xac
	.byte	0x1b
	.long	0xabe
	.uleb128 0x1a
	.string	"n"
	.byte	0x1
	.byte	0xac
	.byte	0x2d
	.long	0x69
	.byte	0
	.uleb128 0x4f
	.long	.LASF373
	.byte	0x98
	.byte	0xd
	.long	0x2cab
	.byte	0x3
	.long	0x41c1
	.uleb128 0x1a
	.string	"a"
	.byte	0x1
	.byte	0x98
	.byte	0x24
	.long	0xabe
	.uleb128 0x1a
	.string	"b"
	.byte	0x1
	.byte	0x98
	.byte	0x31
	.long	0xabe
	.uleb128 0x1a
	.string	"n"
	.byte	0x1
	.byte	0x98
	.byte	0x3d
	.long	0xa9a
	.uleb128 0x41
	.string	"i"
	.byte	0x9a
	.long	0x69
	.byte	0
	.uleb128 0x69
	.long	.LASF374
	.byte	0x1
	.byte	0x7b
	.byte	0xf
	.long	0x3d
	.quad	.LFB5778
	.quad	.LFE5778-.LFB5778
	.uleb128 0x1
	.byte	0x9c
	.long	0x4420
	.uleb128 0x50
	.string	"ts1"
	.byte	0x7d
	.byte	0x15
	.long	0x310
	.uleb128 0x2
	.byte	0x91
	.sleb128 -64
	.uleb128 0x50
	.string	"ts2"
	.byte	0x7d
	.byte	0x1a
	.long	0x310
	.uleb128 0x2
	.byte	0x91
	.sleb128 -48
	.uleb128 0x51
	.long	.LASF375
	.byte	0x81
	.byte	0x9
	.long	0x69
	.long	.LLST7
	.long	.LVUS7
	.uleb128 0x6a
	.long	.LASF376
	.byte	0x1
	.byte	0x88
	.byte	0xe
	.long	0xa9a
	.uleb128 0x3
	.byte	0x91
	.sleb128 -72
	.uleb128 0x51
	.long	.LASF332
	.byte	0x89
	.byte	0xd
	.long	0x2cf
	.long	.LLST8
	.long	.LVUS8
	.uleb128 0x52
	.string	"pid"
	.byte	0x92
	.long	0x2f8
	.long	.LLST9
	.long	.LVUS9
	.uleb128 0x52
	.string	"tid"
	.byte	0x93
	.long	0x2f8
	.long	.LLST10
	.long	.LVUS10
	.uleb128 0x6b
	.long	0x4520
	.quad	.LBI153
	.value	.LVU28
	.quad	.LBB153
	.quad	.LBE153-.LBB153
	.byte	0x1
	.byte	0x81
	.byte	0x16
	.long	0x42ba
	.uleb128 0x2
	.long	0x453b
	.long	.LLST11
	.long	.LVUS11
	.uleb128 0x2
	.long	0x452f
	.long	.LLST12
	.long	.LVUS12
	.uleb128 0x3
	.quad	.LVL12
	.long	0xea9
	.uleb128 0x1
	.uleb128 0x1
	.byte	0x55
	.uleb128 0x9
	.byte	0x3
	.quad	.LC1
	.uleb128 0x1
	.uleb128 0x1
	.byte	0x54
	.uleb128 0x1
	.byte	0x30
	.byte	0
	.byte	0
	.uleb128 0x37
	.long	0x4599
	.quad	.LBI155
	.value	.LVU40
	.long	.LLRL13
	.byte	0x89
	.byte	0x16
	.long	0x431b
	.uleb128 0x2
	.long	0x45c0
	.long	.LLST14
	.long	.LVUS14
	.uleb128 0x2
	.long	0x45b4
	.long	.LLST15
	.long	.LVUS15
	.uleb128 0x2
	.long	0x45a8
	.long	.LLST16
	.long	.LVUS16
	.uleb128 0x3
	.quad	.LVL14
	.long	0xe85
	.uleb128 0x1
	.uleb128 0x1
	.byte	0x55
	.uleb128 0x2
	.byte	0x76
	.sleb128 0
	.uleb128 0x1
	.uleb128 0x1
	.byte	0x54
	.uleb128 0x3
	.byte	0x91
	.sleb128 -72
	.uleb128 0x1
	.uleb128 0x1
	.byte	0x51
	.uleb128 0x1
	.byte	0x38
	.byte	0
	.byte	0
	.uleb128 0x4
	.quad	.LVL10
	.long	0xf3a
	.long	0x4338
	.uleb128 0x1
	.uleb128 0x1
	.byte	0x55
	.uleb128 0x1
	.byte	0x31
	.uleb128 0x1
	.uleb128 0x1
	.byte	0x54
	.uleb128 0x2
	.byte	0x91
	.sleb128 -64
	.byte	0
	.uleb128 0x4
	.quad	.LVL11
	.long	0xf3a
	.long	0x4355
	.uleb128 0x1
	.uleb128 0x1
	.byte	0x55
	.uleb128 0x1
	.byte	0x30
	.uleb128 0x1
	.uleb128 0x1
	.byte	0x54
	.uleb128 0x2
	.byte	0x91
	.sleb128 -48
	.byte	0
	.uleb128 0x4
	.quad	.LVL15
	.long	0xefd
	.long	0x436d
	.uleb128 0x1
	.uleb128 0x1
	.byte	0x55
	.uleb128 0x2
	.byte	0x76
	.sleb128 0
	.byte	0
	.uleb128 0x13
	.quad	.LVL16
	.long	0xef0
	.uleb128 0x4
	.quad	.LVL18
	.long	0xf5b
	.long	0x4392
	.uleb128 0x1
	.uleb128 0x1
	.byte	0x55
	.uleb128 0x2
	.byte	0x8
	.byte	0xba
	.byte	0
	.uleb128 0x4
	.quad	.LVL22
	.long	0xf27
	.long	0x43b1
	.uleb128 0x1
	.uleb128 0x1
	.byte	0x55
	.uleb128 0x9
	.byte	0x3
	.quad	.LC2
	.byte	0
	.uleb128 0x4
	.quad	.LVL23
	.long	0xf14
	.long	0x43c8
	.uleb128 0x1
	.uleb128 0x1
	.byte	0x55
	.uleb128 0x1
	.byte	0x31
	.byte	0
	.uleb128 0x13
	.quad	.LVL24
	.long	0x4f84
	.uleb128 0x4
	.quad	.LVL25
	.long	0xf27
	.long	0x43f4
	.uleb128 0x1
	.uleb128 0x1
	.byte	0x55
	.uleb128 0x9
	.byte	0x3
	.quad	.LC3
	.byte	0
	.uleb128 0x4
	.quad	.LVL26
	.long	0xefd
	.long	0x440c
	.uleb128 0x1
	.uleb128 0x1
	.byte	0x55
	.uleb128 0x2
	.byte	0x76
	.sleb128 0
	.byte	0
	.uleb128 0x3
	.quad	.LVL27
	.long	0xf14
	.uleb128 0x1
	.uleb128 0x1
	.byte	0x55
	.uleb128 0x1
	.byte	0x31
	.byte	0
	.byte	0
	.uleb128 0x4f
	.long	.LASF377
	.byte	0x72
	.byte	0x6
	.long	0x70
	.byte	0x1
	.long	0x4477
	.uleb128 0xd
	.long	.LASF378
	.byte	0x1
	.byte	0x72
	.byte	0x2e
	.long	0x4477
	.uleb128 0x1a
	.string	"pid"
	.byte	0x1
	.byte	0x72
	.byte	0x3e
	.long	0x2f8
	.uleb128 0x1a
	.string	"cpu"
	.byte	0x1
	.byte	0x72
	.byte	0x47
	.long	0x69
	.uleb128 0xd
	.long	.LASF379
	.byte	0x1
	.byte	0x72
	.byte	0x50
	.long	0x69
	.uleb128 0xd
	.long	.LASF302
	.byte	0x1
	.byte	0x72
	.byte	0x68
	.long	0x3d
	.uleb128 0x41
	.string	"ret"
	.byte	0x74
	.long	0x69
	.byte	0
	.uleb128 0x10
	.long	0x75c
	.uleb128 0x53
	.long	.LASF380
	.byte	0x64
	.long	0x337
	.long	0x44af
	.uleb128 0x16
	.long	.LASF298
	.byte	0x1
	.byte	0x66
	.byte	0xe
	.long	0x44
	.uleb128 0x16
	.long	.LASF299
	.byte	0x1
	.byte	0x66
	.byte	0x1a
	.long	0x44
	.uleb128 0x16
	.long	.LASF381
	.byte	0x1
	.byte	0x67
	.byte	0x18
	.long	0x337
	.byte	0
	.uleb128 0x53
	.long	.LASF382
	.byte	0x57
	.long	0x337
	.long	0x44e2
	.uleb128 0x16
	.long	.LASF298
	.byte	0x1
	.byte	0x59
	.byte	0xe
	.long	0x44
	.uleb128 0x16
	.long	.LASF299
	.byte	0x1
	.byte	0x59
	.byte	0x1a
	.long	0x44
	.uleb128 0x16
	.long	.LASF381
	.byte	0x1
	.byte	0x5a
	.byte	0x18
	.long	0x337
	.byte	0
	.uleb128 0x6c
	.long	.LASF383
	.byte	0x1
	.byte	0x48
	.byte	0xd
	.byte	0x3
	.long	0x4520
	.uleb128 0x16
	.long	.LASF298
	.byte	0x1
	.byte	0x4a
	.byte	0xe
	.long	0x44
	.uleb128 0x16
	.long	.LASF299
	.byte	0x1
	.byte	0x4a
	.byte	0x1a
	.long	0x44
	.uleb128 0x16
	.long	.LASF300
	.byte	0x1
	.byte	0x4a
	.byte	0x27
	.long	0x44
	.uleb128 0x16
	.long	.LASF301
	.byte	0x1
	.byte	0x4a
	.byte	0x34
	.long	0x44
	.byte	0
	.uleb128 0x26
	.long	.LASF267
	.byte	0x2
	.byte	0x29
	.long	0x69
	.long	0x4549
	.uleb128 0xd
	.long	.LASF384
	.byte	0x2
	.byte	0x29
	.byte	0x13
	.long	0x344
	.uleb128 0xd
	.long	.LASF385
	.byte	0x2
	.byte	0x29
	.byte	0x1f
	.long	0x69
	.uleb128 0x20
	.byte	0
	.uleb128 0x6d
	.long	.LASF425
	.byte	0x5
	.byte	0x34
	.byte	0x1
	.byte	0x3
	.long	0x4563
	.uleb128 0xd
	.long	.LASF386
	.byte	0x5
	.byte	0x34
	.byte	0x11
	.long	0x4b
	.byte	0
	.uleb128 0x6e
	.long	.LASF426
	.byte	0x5
	.byte	0x26
	.byte	0x1
	.long	0x4b
	.byte	0x3
	.long	0x4599
	.uleb128 0xd
	.long	.LASF387
	.byte	0x5
	.byte	0x26
	.byte	0x14
	.long	0x31
	.uleb128 0xd
	.long	.LASF388
	.byte	0x5
	.byte	0x26
	.byte	0x23
	.long	0x31
	.uleb128 0x16
	.long	.LASF386
	.byte	0x5
	.byte	0x28
	.byte	0x9
	.long	0x4b
	.byte	0
	.uleb128 0x26
	.long	.LASF265
	.byte	0x3
	.byte	0x24
	.long	0x2cf
	.long	0x45cd
	.uleb128 0xd
	.long	.LASF389
	.byte	0x3
	.byte	0x24
	.byte	0xb
	.long	0x69
	.uleb128 0xd
	.long	.LASF390
	.byte	0x3
	.byte	0x24
	.byte	0x17
	.long	0x4b
	.uleb128 0xd
	.long	.LASF391
	.byte	0x3
	.byte	0x24
	.byte	0x25
	.long	0x31
	.byte	0
	.uleb128 0x26
	.long	.LASF392
	.byte	0x4
	.byte	0x80
	.long	0xd7
	.long	0x45f5
	.uleb128 0xd
	.long	.LASF393
	.byte	0x4
	.byte	0x80
	.byte	0x1
	.long	0xdc
	.uleb128 0xd
	.long	.LASF394
	.byte	0x4
	.byte	0x80
	.byte	0x1
	.long	0x349
	.byte	0
	.uleb128 0x26
	.long	.LASF395
	.byte	0x4
	.byte	0x39
	.long	0x4b
	.long	0x4629
	.uleb128 0xd
	.long	.LASF393
	.byte	0x4
	.byte	0x39
	.byte	0x1
	.long	0x4b
	.uleb128 0xd
	.long	.LASF396
	.byte	0x4
	.byte	0x39
	.byte	0x1
	.long	0x69
	.uleb128 0xd
	.long	.LASF397
	.byte	0x4
	.byte	0x39
	.byte	0x1
	.long	0x31
	.byte	0
	.uleb128 0x26
	.long	.LASF398
	.byte	0x4
	.byte	0x22
	.long	0x4b
	.long	0x465d
	.uleb128 0xd
	.long	.LASF393
	.byte	0x4
	.byte	0x22
	.byte	0x1
	.long	0x4b
	.uleb128 0xd
	.long	.LASF394
	.byte	0x4
	.byte	0x22
	.byte	0x1
	.long	0x33e
	.uleb128 0xd
	.long	.LASF397
	.byte	0x4
	.byte	0x22
	.byte	0x1
	.long	0x31
	.byte	0
	.uleb128 0x3a
	.long	.LASF399
	.byte	0x7
	.value	0x16a
	.byte	0x1
	.long	0x69
	.byte	0x3
	.long	0x467d
	.uleb128 0x25
	.long	.LASF400
	.byte	0x7
	.value	0x16a
	.byte	0x1
	.long	0x344
	.byte	0
	.uleb128 0x26
	.long	.LASF401
	.byte	0x6
	.byte	0x6e
	.long	0x69
	.long	0x469a
	.uleb128 0xd
	.long	.LASF402
	.byte	0x6
	.byte	0x6e
	.byte	0x20
	.long	0x349
	.uleb128 0x20
	.byte	0
	.uleb128 0x26
	.long	.LASF403
	.byte	0x6
	.byte	0x67
	.long	0x69
	.long	0x46c3
	.uleb128 0xd
	.long	.LASF404
	.byte	0x6
	.byte	0x67
	.byte	0x1b
	.long	0x2e0
	.uleb128 0xd
	.long	.LASF402
	.byte	0x6
	.byte	0x67
	.byte	0x3c
	.long	0x349
	.uleb128 0x20
	.byte	0
	.uleb128 0x26
	.long	.LASF405
	.byte	0x6
	.byte	0x44
	.long	0x69
	.long	0x46f8
	.uleb128 0x1a
	.string	"__s"
	.byte	0x6
	.byte	0x44
	.byte	0x1
	.long	0xdc
	.uleb128 0x1a
	.string	"__n"
	.byte	0x6
	.byte	0x44
	.byte	0x1
	.long	0x31
	.uleb128 0xd
	.long	.LASF402
	.byte	0x6
	.byte	0x44
	.byte	0x1
	.long	0x349
	.uleb128 0x20
	.byte	0
	.uleb128 0x26
	.long	.LASF406
	.byte	0x6
	.byte	0x24
	.long	0x69
	.long	0x4721
	.uleb128 0x1a
	.string	"__s"
	.byte	0x6
	.byte	0x24
	.byte	0x1
	.long	0xdc
	.uleb128 0xd
	.long	.LASF402
	.byte	0x6
	.byte	0x24
	.byte	0x1
	.long	0x349
	.uleb128 0x20
	.byte	0
	.uleb128 0x22
	.long	0x2f07
	.quad	.LFB5802
	.quad	.LFE5802-.LFB5802
	.uleb128 0x1
	.byte	0x9c
	.long	0x4781
	.uleb128 0xf
	.long	0x2f26
	.uleb128 0x2
	.long	0x2f19
	.long	.LLST0
	.long	.LVUS0
	.uleb128 0x4
	.quad	.LVL1
	.long	0xf27
	.long	0x476d
	.uleb128 0x1
	.uleb128 0x1
	.byte	0x55
	.uleb128 0x9
	.byte	0x3
	.quad	.LC0
	.byte	0
	.uleb128 0x3
	.quad	.LVL2
	.long	0xf14
	.uleb128 0x1
	.uleb128 0x1
	.byte	0x55
	.uleb128 0x1
	.byte	0x31
	.byte	0
	.byte	0
	.uleb128 0x22
	.long	0x4420
	.quad	.LFB5777
	.quad	.LFE5777-.LFB5777
	.uleb128 0x1
	.byte	0x9c
	.long	0x4823
	.uleb128 0x2
	.long	0x4430
	.long	.LLST1
	.long	.LVUS1
	.uleb128 0x2
	.long	0x443c
	.long	.LLST2
	.long	.LVUS2
	.uleb128 0x2
	.long	0x4448
	.long	.LLST3
	.long	.LVUS3
	.uleb128 0x2
	.long	0x4454
	.long	.LLST4
	.long	.LVUS4
	.uleb128 0x2
	.long	0x4460
	.long	.LLST5
	.long	.LVUS5
	.uleb128 0x7
	.long	0x446c
	.long	.LLST6
	.long	.LVUS6
	.uleb128 0x3
	.quad	.LVL9
	.long	0xf5b
	.uleb128 0x1
	.uleb128 0x1
	.byte	0x55
	.uleb128 0x3
	.byte	0xa
	.value	0x12a
	.uleb128 0x1
	.uleb128 0x1
	.byte	0x54
	.uleb128 0x3
	.byte	0xa3
	.uleb128 0x1
	.byte	0x55
	.uleb128 0x1
	.uleb128 0x1
	.byte	0x51
	.uleb128 0x3
	.byte	0xa3
	.uleb128 0x1
	.byte	0x54
	.uleb128 0x1
	.uleb128 0x1
	.byte	0x52
	.uleb128 0x3
	.byte	0xa3
	.uleb128 0x1
	.byte	0x51
	.uleb128 0x1
	.uleb128 0x1
	.byte	0x58
	.uleb128 0x3
	.byte	0xa3
	.uleb128 0x1
	.byte	0x52
	.uleb128 0x1
	.uleb128 0x1
	.byte	0x59
	.uleb128 0x3
	.byte	0xa3
	.uleb128 0x1
	.byte	0x58
	.byte	0
	.byte	0
	.uleb128 0x22
	.long	0x4167
	.quad	.LFB5780
	.quad	.LFE5780-.LFB5780
	.uleb128 0x1
	.byte	0x9c
	.long	0x494d
	.uleb128 0x2
	.long	0x4173
	.long	.LLST17
	.long	.LVUS17
	.uleb128 0x2
	.long	0x417f
	.long	.LLST18
	.long	.LVUS18
	.uleb128 0x37
	.long	0x4167
	.quad	.LBI169
	.value	.LVU83
	.long	.LLRL19
	.byte	0xac
	.byte	0x6
	.long	0x48eb
	.uleb128 0x2
	.long	0x417f
	.long	.LLST20
	.long	.LVUS20
	.uleb128 0x2
	.long	0x4173
	.long	.LLST21
	.long	.LVUS21
	.uleb128 0x38
	.long	0x45f5
	.quad	.LBI171
	.value	.LVU85
	.long	.LLRL22
	.byte	0xb1
	.byte	0x9
	.uleb128 0x2
	.long	0x461c
	.long	.LLST23
	.long	.LVUS23
	.uleb128 0x6f
	.long	0x4610
	.byte	0
	.uleb128 0x2
	.long	0x4604
	.long	.LLST24
	.long	.LVUS24
	.uleb128 0x3b
	.quad	.LVL35
	.long	0x4f05
	.uleb128 0x1
	.uleb128 0x1
	.byte	0x55
	.uleb128 0x3
	.byte	0xa3
	.uleb128 0x1
	.byte	0x55
	.uleb128 0x1
	.uleb128 0x1
	.byte	0x54
	.uleb128 0x1
	.byte	0x30
	.uleb128 0x1
	.uleb128 0x1
	.byte	0x51
	.uleb128 0xb
	.byte	0xa3
	.uleb128 0x1
	.byte	0x54
	.byte	0x8
	.byte	0x20
	.byte	0x24
	.byte	0x8
	.byte	0x20
	.byte	0x26
	.byte	0x33
	.byte	0x24
	.byte	0
	.byte	0
	.byte	0
	.uleb128 0x38
	.long	0x4629
	.quad	.LBI177
	.value	.LVU74
	.long	.LLRL25
	.byte	0xb6
	.byte	0x5
	.uleb128 0x2
	.long	0x4650
	.long	.LLST26
	.long	.LVUS26
	.uleb128 0x2
	.long	0x4644
	.long	.LLST27
	.long	.LVUS27
	.uleb128 0x2
	.long	0x4638
	.long	.LLST28
	.long	.LVUS28
	.uleb128 0x3
	.quad	.LVL32
	.long	0x4f0e
	.uleb128 0x1
	.uleb128 0x1
	.byte	0x55
	.uleb128 0x3
	.byte	0xa3
	.uleb128 0x1
	.byte	0x55
	.uleb128 0x1
	.uleb128 0x1
	.byte	0x54
	.uleb128 0x5
	.byte	0xa3
	.uleb128 0x1
	.byte	0x55
	.byte	0x23
	.uleb128 0x8
	.uleb128 0x1
	.uleb128 0x1
	.byte	0x51
	.uleb128 0x2
	.byte	0x7c
	.sleb128 -8
	.byte	0
	.byte	0
	.byte	0
	.uleb128 0x22
	.long	0x2f07
	.quad	.LFB5787
	.quad	.LFE5787-.LFB5787
	.uleb128 0x1
	.byte	0x9c
	.long	0x4a91
	.uleb128 0x2
	.long	0x2f19
	.long	.LLST116
	.long	.LVUS116
	.uleb128 0x7
	.long	0x2f26
	.long	.LLST117
	.long	.LVUS117
	.uleb128 0x29
	.long	0x2f32
	.quad	.LBB323
	.quad	.LBE323-.LBB323
	.long	0x49f9
	.uleb128 0x7
	.long	0x2f33
	.long	.LLST118
	.long	.LVUS118
	.uleb128 0x1f
	.long	0x469a
	.quad	.LBI324
	.value	.LVU682
	.long	.LLRL119
	.value	0x267
	.byte	0x9
	.uleb128 0x2
	.long	0x46b5
	.long	.LLST120
	.long	.LVUS120
	.uleb128 0x2
	.long	0x46a9
	.long	.LLST121
	.long	.LVUS121
	.uleb128 0x3
	.quad	.LVL191
	.long	0xd0f
	.uleb128 0x1
	.uleb128 0x1
	.byte	0x55
	.uleb128 0x2
	.byte	0x7c
	.sleb128 0
	.uleb128 0x1
	.uleb128 0x1
	.byte	0x54
	.uleb128 0x1
	.byte	0x31
	.uleb128 0x1
	.uleb128 0x1
	.byte	0x51
	.uleb128 0x2
	.byte	0x76
	.sleb128 0
	.byte	0
	.byte	0
	.byte	0
	.uleb128 0xe
	.long	0x469a
	.quad	.LBI328
	.value	.LVU691
	.quad	.LBB328
	.quad	.LBE328-.LBB328
	.value	0x269
	.byte	0x5
	.long	0x4a53
	.uleb128 0x2
	.long	0x46b5
	.long	.LLST122
	.long	.LVUS122
	.uleb128 0x2
	.long	0x46a9
	.long	.LLST123
	.long	.LVUS123
	.uleb128 0x3
	.quad	.LVL193
	.long	0x4f1d
	.uleb128 0x1
	.uleb128 0x1
	.byte	0x55
	.uleb128 0x1
	.byte	0x3a
	.uleb128 0x1
	.uleb128 0x1
	.byte	0x54
	.uleb128 0x2
	.byte	0x7c
	.sleb128 0
	.byte	0
	.byte	0
	.uleb128 0x4
	.quad	.LVL188
	.long	0xcf3
	.long	0x4a79
	.uleb128 0x1
	.uleb128 0x1
	.byte	0x55
	.uleb128 0x3
	.byte	0xa3
	.uleb128 0x1
	.byte	0x55
	.uleb128 0x1
	.uleb128 0x1
	.byte	0x54
	.uleb128 0x9
	.byte	0x3
	.quad	.LC13
	.byte	0
	.uleb128 0x3
	.quad	.LVL195
	.long	0x4721
	.uleb128 0x4a
	.long	0x2f19
	.uleb128 0x3
	.byte	0xa3
	.uleb128 0x1
	.byte	0x55
	.byte	0
	.byte	0
	.uleb128 0x22
	.long	0x2ee2
	.quad	.LFB5788
	.quad	.LFE5788-.LFB5788
	.uleb128 0x1
	.byte	0x9c
	.long	0x4bb5
	.uleb128 0x2
	.long	0x2eed
	.long	.LLST124
	.long	.LVUS124
	.uleb128 0x31
	.long	0x2efa
	.long	.LLRL125
	.long	0x4b37
	.uleb128 0x7
	.long	0x2efb
	.long	.LLST126
	.long	.LVUS126
	.uleb128 0x33
	.long	0x4599
	.quad	.LBI339
	.value	.LVU707
	.quad	.LBB339
	.quad	.LBE339-.LBB339
	.value	0x271
	.byte	0xd
	.uleb128 0x2
	.long	0x45c0
	.long	.LLST127
	.long	.LVUS127
	.uleb128 0x2
	.long	0x45b4
	.long	.LLST128
	.long	.LVUS128
	.uleb128 0x2
	.long	0x45a8
	.long	.LLST129
	.long	.LVUS129
	.uleb128 0x3
	.quad	.LVL199
	.long	0xe85
	.uleb128 0x1
	.uleb128 0x1
	.byte	0x54
	.uleb128 0x2
	.byte	0x76
	.sleb128 0
	.uleb128 0x1
	.uleb128 0x1
	.byte	0x51
	.uleb128 0x1
	.byte	0x38
	.byte	0
	.byte	0
	.byte	0
	.uleb128 0x33
	.long	0x2ee2
	.quad	.LBI342
	.value	.LVU717
	.quad	.LBB342
	.quad	.LBE342-.LBB342
	.value	0x26d
	.byte	0x6
	.uleb128 0x2
	.long	0x2eed
	.long	.LLST130
	.long	.LVUS130
	.uleb128 0x39
	.long	0x2efa
	.quad	.LBB343
	.quad	.LBE343-.LBB343
	.uleb128 0xf
	.long	0x2efb
	.uleb128 0x4
	.quad	.LVL204
	.long	0xf27
	.long	0x4b9f
	.uleb128 0x1
	.uleb128 0x1
	.byte	0x55
	.uleb128 0x9
	.byte	0x3
	.quad	.LC15
	.byte	0
	.uleb128 0x3
	.quad	.LVL205
	.long	0xf14
	.uleb128 0x1
	.uleb128 0x1
	.byte	0x55
	.uleb128 0x1
	.byte	0x31
	.byte	0
	.byte	0
	.byte	0
	.byte	0
	.uleb128 0x22
	.long	0x2eab
	.quad	.LFB5789
	.quad	.LFE5789-.LFB5789
	.uleb128 0x1
	.byte	0x9c
	.long	0x4ca0
	.uleb128 0x2
	.long	0x2eb6
	.long	.LLST131
	.long	.LVUS131
	.uleb128 0x2
	.long	0x2ec3
	.long	.LLST132
	.long	.LVUS132
	.uleb128 0x31
	.long	0x2ed0
	.long	.LLRL133
	.long	0x4c55
	.uleb128 0x7
	.long	0x2ed1
	.long	.LLST134
	.long	.LVUS134
	.uleb128 0x1f
	.long	0x469a
	.quad	.LBI350
	.value	.LVU727
	.long	.LLRL135
	.value	0x27d
	.byte	0x9
	.uleb128 0x2
	.long	0x46b5
	.long	.LLST136
	.long	.LVUS136
	.uleb128 0x2
	.long	0x46a9
	.long	.LLST137
	.long	.LVUS137
	.uleb128 0x3
	.quad	.LVL210
	.long	0xd0f
	.uleb128 0x1
	.uleb128 0x1
	.byte	0x55
	.uleb128 0x2
	.byte	0x76
	.sleb128 0
	.uleb128 0x1
	.uleb128 0x1
	.byte	0x54
	.uleb128 0x1
	.byte	0x31
	.uleb128 0x1
	.uleb128 0x1
	.byte	0x51
	.uleb128 0x2
	.byte	0x7c
	.sleb128 0
	.byte	0
	.byte	0
	.byte	0
	.uleb128 0x1f
	.long	0x469a
	.quad	.LBI355
	.value	.LVU736
	.long	.LLRL138
	.value	0x27f
	.byte	0x5
	.uleb128 0x4b
	.long	0x46b5
	.uleb128 0x6
	.byte	0xa0
	.long	.Ldebug_info0+20247
	.sleb128 0
	.uleb128 0x2
	.long	0x46a9
	.long	.LLST139
	.long	.LVUS139
	.uleb128 0x3b
	.quad	.LVL214
	.long	0x4f1d
	.uleb128 0x1
	.uleb128 0x1
	.byte	0x55
	.uleb128 0x1
	.byte	0x3a
	.uleb128 0x1
	.uleb128 0x1
	.byte	0x54
	.uleb128 0x3
	.byte	0xa3
	.uleb128 0x1
	.byte	0x55
	.byte	0
	.byte	0
	.byte	0
	.uleb128 0x22
	.long	0x2e5b
	.quad	.LFB5790
	.quad	.LFE5790-.LFB5790
	.uleb128 0x1
	.byte	0x9c
	.long	0x4cd3
	.uleb128 0x40
	.long	0x2e66
	.long	.LLRL140
	.uleb128 0x7
	.long	0x2e67
	.long	.LLST141
	.long	.LVUS141
	.byte	0
	.byte	0
	.uleb128 0x22
	.long	0x2e29
	.quad	.LFB5791
	.quad	.LFE5791-.LFB5791
	.uleb128 0x1
	.byte	0x9c
	.long	0x4d7a
	.uleb128 0x31
	.long	0x2e34
	.long	.LLRL142
	.long	0x4d09
	.uleb128 0x7
	.long	0x2e35
	.long	.LLST143
	.long	.LVUS143
	.byte	0
	.uleb128 0x33
	.long	0x2e29
	.quad	.LBI371
	.value	.LVU769
	.quad	.LBB371
	.quad	.LBE371-.LBB371
	.value	0x28d
	.byte	0x6
	.uleb128 0x39
	.long	0x2e34
	.quad	.LBB372
	.quad	.LBE372-.LBB372
	.uleb128 0xf
	.long	0x2e35
	.uleb128 0x4
	.quad	.LVL227
	.long	0xf27
	.long	0x4d64
	.uleb128 0x1
	.uleb128 0x1
	.byte	0x55
	.uleb128 0x9
	.byte	0x3
	.quad	.LC17
	.byte	0
	.uleb128 0x3
	.quad	.LVL228
	.long	0xf14
	.uleb128 0x1
	.uleb128 0x1
	.byte	0x55
	.uleb128 0x1
	.byte	0x31
	.byte	0
	.byte	0
	.byte	0
	.byte	0
	.uleb128 0x22
	.long	0x2c65
	.quad	.LFB5795
	.quad	.LFE5795-.LFB5795
	.uleb128 0x1
	.byte	0x9c
	.long	0x4e10
	.uleb128 0x2
	.long	0x2c77
	.long	.LLST150
	.long	.LVUS150
	.uleb128 0x2
	.long	0x2c84
	.long	.LLST151
	.long	.LVUS151
	.uleb128 0x2
	.long	0x2c91
	.long	.LLST152
	.long	.LVUS152
	.uleb128 0x29
	.long	0x2c9e
	.quad	.LBB373
	.quad	.LBE373-.LBB373
	.long	0x4de3
	.uleb128 0x7
	.long	0x2c9f
	.long	.LLST153
	.long	.LVUS153
	.byte	0
	.uleb128 0x4
	.quad	.LVL246
	.long	0xd6b
	.long	0x4dfb
	.uleb128 0x1
	.uleb128 0x1
	.byte	0x55
	.uleb128 0x2
	.byte	0x73
	.sleb128 0
	.byte	0
	.uleb128 0x3
	.quad	.LVL247
	.long	0xd6b
	.uleb128 0x1
	.uleb128 0x1
	.byte	0x55
	.uleb128 0x2
	.byte	0x76
	.sleb128 0
	.byte	0
	.byte	0
	.uleb128 0x22
	.long	0x2813
	.quad	.LFB5799
	.quad	.LFE5799-.LFB5799
	.uleb128 0x1
	.byte	0x9c
	.long	0x4f05
	.uleb128 0x2
	.long	0x2825
	.long	.LLST183
	.long	.LVUS183
	.uleb128 0x2
	.long	0x2832
	.long	.LLST184
	.long	.LVUS184
	.uleb128 0x7
	.long	0x283d
	.long	.LLST185
	.long	.LVUS185
	.uleb128 0x31
	.long	0x2849
	.long	.LLRL186
	.long	0x4e6d
	.uleb128 0x7
	.long	0x284a
	.long	.LLST187
	.long	.LVUS187
	.byte	0
	.uleb128 0xe
	.long	0x2813
	.quad	.LBI414
	.value	.LVU1247
	.quad	.LBB414
	.quad	.LBE414-.LBB414
	.value	0x32e
	.byte	0x7
	.long	0x4ee5
	.uleb128 0x2
	.long	0x2825
	.long	.LLST188
	.long	.LVUS188
	.uleb128 0x2
	.long	0x2832
	.long	.LLST189
	.long	.LVUS189
	.uleb128 0xf
	.long	0x283d
	.uleb128 0x4
	.quad	.LVL353
	.long	0xf27
	.long	0x4ed1
	.uleb128 0x1
	.uleb128 0x1
	.byte	0x55
	.uleb128 0x9
	.byte	0x3
	.quad	.LC23
	.byte	0
	.uleb128 0x3
	.quad	.LVL354
	.long	0xf14
	.uleb128 0x1
	.uleb128 0x1
	.byte	0x55
	.uleb128 0x1
	.byte	0x30
	.byte	0
	.byte	0
	.uleb128 0x3
	.quad	.LVL330
	.long	0xd82
	.uleb128 0x1
	.uleb128 0x1
	.byte	0x55
	.uleb128 0x8
	.byte	0x73
	.sleb128 1
	.byte	0x8
	.byte	0x20
	.byte	0x24
	.byte	0x8
	.byte	0x20
	.byte	0x26
	.uleb128 0x1
	.uleb128 0x1
	.byte	0x54
	.uleb128 0x1
	.byte	0x31
	.byte	0
	.byte	0
	.uleb128 0x27
	.long	.LASF395
	.long	.LASF407
	.uleb128 0x27
	.long	.LASF398
	.long	.LASF408
	.uleb128 0x34
	.uleb128 0x4
	.byte	0x9e
	.uleb128 0x2
	.byte	0xa
	.byte	0
	.uleb128 0x27
	.long	.LASF409
	.long	.LASF410
	.uleb128 0x27
	.long	.LASF411
	.long	.LASF412
	.uleb128 0x34
	.uleb128 0x11
	.byte	0x9e
	.uleb128 0xf
	.byte	0x52
	.byte	0x75
	.byte	0x6e
	.byte	0x6e
	.byte	0x69
	.byte	0x6e
	.byte	0x67
	.byte	0x20
	.byte	0x74
	.byte	0x65
	.byte	0x73
	.byte	0x74
	.byte	0x73
	.byte	0xa
	.byte	0
	.uleb128 0x27
	.long	.LASF413
	.long	.LASF414
	.uleb128 0x34
	.uleb128 0x21
	.byte	0x9e
	.uleb128 0x1f
	.byte	0x54
	.byte	0x65
	.byte	0x73
	.byte	0x74
	.byte	0x20
	.byte	0x31
	.byte	0x3a
	.byte	0x20
	.byte	0x4e
	.byte	0x6f
	.byte	0x20
	.byte	0x42
	.byte	0x6f
	.byte	0x72
	.byte	0x72
	.byte	0x6f
	.byte	0x77
	.byte	0x2d
	.byte	0x50
	.byte	0x72
	.byte	0x6f
	.byte	0x70
	.byte	0x61
	.byte	0x67
	.byte	0x61
	.byte	0x74
	.byte	0x69
	.byte	0x6f
	.byte	0x6e
	.byte	0xa
	.byte	0
	.uleb128 0x34
	.uleb128 0x14
	.byte	0x9e
	.uleb128 0x12
	.byte	0x54
	.byte	0x65
	.byte	0x73
	.byte	0x74
	.byte	0x20
	.byte	0x31
	.byte	0x20
	.byte	0x63
	.byte	0x6f
	.byte	0x6d
	.byte	0x70
	.byte	0x6c
	.byte	0x65
	.byte	0x74
	.byte	0x65
	.byte	0x64
	.byte	0xa
	.byte	0
	.uleb128 0x70
	.long	.LASF427
	.long	.LASF427
	.uleb128 0x27
	.long	.LASF415
	.long	.LASF416
	.uleb128 0x27
	.long	.LASF417
	.long	.LASF418
	.uleb128 0x27
	.long	.LASF392
	.long	.LASF419
	.uleb128 0x27
	.long	.LASF420
	.long	.LASF421
	.uleb128 0x34
	.uleb128 0x2b
	.byte	0x9e
	.uleb128 0x29
	.byte	0x4d
	.byte	0x65
	.byte	0x6d
	.byte	0x6f
	.byte	0x72
	.byte	0x79
	.byte	0x20
	.byte	0x63
	.byte	0x6f
	.byte	0x75
	.byte	0x6c
	.byte	0x64
	.byte	0x20
	.byte	0x6e
	.byte	0x6f
	.byte	0x74
	.byte	0x20
	.byte	0x62
	.byte	0x65
	.byte	0x20
	.byte	0x61
	.byte	0x6c
	.byte	0x6c
	.byte	0x6f
	.byte	0x63
	.byte	0x61
	.byte	0x74
	.byte	0x65
	.byte	0x64
	.byte	0x20
	.byte	0x66
	.byte	0x6f
	.byte	0x72
	.byte	0x20
	.byte	0x6c
	.byte	0x69
	.byte	0x6d
	.byte	0x62
	.byte	0x73
	.byte	0xa
	.byte	0
	.byte	0
	.section	.debug_abbrev,"",@progbits
.Ldebug_abbrev0:
	.uleb128 0x1
	.uleb128 0x49
	.byte	0
	.uleb128 0x2
	.uleb128 0x18
	.uleb128 0x7e
	.uleb128 0x18
	.byte	0
	.byte	0
	.uleb128 0x2
	.uleb128 0x5
	.byte	0
	.uleb128 0x31
	.uleb128 0x13
	.uleb128 0x2
	.uleb128 0x17
	.uleb128 0x2137
	.uleb128 0x17
	.byte	0
	.byte	0
	.uleb128 0x3
	.uleb128 0x48
	.byte	0x1
	.uleb128 0x7d
	.uleb128 0x1
	.uleb128 0x7f
	.uleb128 0x13
	.byte	0
	.byte	0
	.uleb128 0x4
	.uleb128 0x48
	.byte	0x1
	.uleb128 0x7d
	.uleb128 0x1
	.uleb128 0x7f
	.uleb128 0x13
	.uleb128 0x1
	.uleb128 0x13
	.byte	0
	.byte	0
	.uleb128 0x5
	.uleb128 0x28
	.byte	0
	.uleb128 0x3
	.uleb128 0xe
	.uleb128 0x1c
	.uleb128 0xb
	.byte	0
	.byte	0
	.uleb128 0x6
	.uleb128 0x5
	.byte	0
	.uleb128 0x49
	.uleb128 0x13
	.byte	0
	.byte	0
	.uleb128 0x7
	.uleb128 0x34
	.byte	0
	.uleb128 0x31
	.uleb128 0x13
	.uleb128 0x2
	.uleb128 0x17
	.uleb128 0x2137
	.uleb128 0x17
	.byte	0
	.byte	0
	.uleb128 0x8
	.uleb128 0xd
	.byte	0
	.uleb128 0x3
	.uleb128 0xe
	.uleb128 0x3a
	.uleb128 0x21
	.sleb128 18
	.uleb128 0x3b
	.uleb128 0x5
	.uleb128 0x39
	.uleb128 0xb
	.uleb128 0x49
	.uleb128 0x13
	.uleb128 0xd
	.uleb128 0xb
	.uleb128 0x6b
	.uleb128 0x5
	.byte	0
	.byte	0
	.uleb128 0x9
	.uleb128 0x1d
	.byte	0x1
	.uleb128 0x31
	.uleb128 0x13
	.uleb128 0x52
	.uleb128 0x1
	.uleb128 0x2138
	.uleb128 0x5
	.uleb128 0x55
	.uleb128 0x17
	.uleb128 0x58
	.uleb128 0x21
	.sleb128 1
	.uleb128 0x59
	.uleb128 0x5
	.uleb128 0x57
	.uleb128 0xb
	.uleb128 0x1
	.uleb128 0x13
	.byte	0
	.byte	0
	.uleb128 0xa
	.uleb128 0xd
	.byte	0
	.uleb128 0x3
	.uleb128 0xe
	.uleb128 0x3a
	.uleb128 0xb
	.uleb128 0x3b
	.uleb128 0xb
	.uleb128 0x39
	.uleb128 0xb
	.uleb128 0x49
	.uleb128 0x13
	.uleb128 0x38
	.uleb128 0xb
	.byte	0
	.byte	0
	.uleb128 0xb
	.uleb128 0x34
	.byte	0
	.uleb128 0x3
	.uleb128 0xe
	.uleb128 0x3a
	.uleb128 0x21
	.sleb128 1
	.uleb128 0x3b
	.uleb128 0x5
	.uleb128 0x39
	.uleb128 0xb
	.uleb128 0x49
	.uleb128 0x13
	.uleb128 0x2
	.uleb128 0x17
	.uleb128 0x2137
	.uleb128 0x17
	.byte	0
	.byte	0
	.uleb128 0xc
	.uleb128 0x16
	.byte	0
	.uleb128 0x3
	.uleb128 0xe
	.uleb128 0x3a
	.uleb128 0xb
	.uleb128 0x3b
	.uleb128 0xb
	.uleb128 0x39
	.uleb128 0xb
	.uleb128 0x49
	.uleb128 0x13
	.byte	0
	.byte	0
	.uleb128 0xd
	.uleb128 0x5
	.byte	0
	.uleb128 0x3
	.uleb128 0xe
	.uleb128 0x3a
	.uleb128 0xb
	.uleb128 0x3b
	.uleb128 0xb
	.uleb128 0x39
	.uleb128 0xb
	.uleb128 0x49
	.uleb128 0x13
	.byte	0
	.byte	0
	.uleb128 0xe
	.uleb128 0x1d
	.byte	0x1
	.uleb128 0x31
	.uleb128 0x13
	.uleb128 0x52
	.uleb128 0x1
	.uleb128 0x2138
	.uleb128 0x5
	.uleb128 0x11
	.uleb128 0x1
	.uleb128 0x12
	.uleb128 0x7
	.uleb128 0x58
	.uleb128 0x21
	.sleb128 1
	.uleb128 0x59
	.uleb128 0x5
	.uleb128 0x57
	.uleb128 0xb
	.uleb128 0x1
	.uleb128 0x13
	.byte	0
	.byte	0
	.uleb128 0xf
	.uleb128 0x34
	.byte	0
	.uleb128 0x31
	.uleb128 0x13
	.byte	0
	.byte	0
	.uleb128 0x10
	.uleb128 0xf
	.byte	0
	.uleb128 0xb
	.uleb128 0x21
	.sleb128 8
	.uleb128 0x49
	.uleb128 0x13
	.byte	0
	.byte	0
	.uleb128 0x11
	.uleb128 0x34
	.byte	0
	.uleb128 0x3
	.uleb128 0x8
	.uleb128 0x3a
	.uleb128 0x21
	.sleb128 1
	.uleb128 0x3b
	.uleb128 0x5
	.uleb128 0x39
	.uleb128 0xb
	.uleb128 0x49
	.uleb128 0x13
	.uleb128 0x2
	.uleb128 0x17
	.uleb128 0x2137
	.uleb128 0x17
	.byte	0
	.byte	0
	.uleb128 0x12
	.uleb128 0xb
	.byte	0x1
	.uleb128 0x55
	.uleb128 0x17
	.byte	0
	.byte	0
	.uleb128 0x13
	.uleb128 0x48
	.byte	0
	.uleb128 0x7d
	.uleb128 0x1
	.uleb128 0x7f
	.uleb128 0x13
	.byte	0
	.byte	0
	.uleb128 0x14
	.uleb128 0xd
	.byte	0
	.uleb128 0x3
	.uleb128 0xe
	.uleb128 0x3a
	.uleb128 0x21
	.sleb128 18
	.uleb128 0x3b
	.uleb128 0x5
	.uleb128 0x39
	.uleb128 0xb
	.uleb128 0x49
	.uleb128 0x13
	.uleb128 0x38
	.uleb128 0xb
	.byte	0
	.byte	0
	.uleb128 0x15
	.uleb128 0x34
	.byte	0
	.uleb128 0x3
	.uleb128 0xe
	.uleb128 0x3a
	.uleb128 0x21
	.sleb128 1
	.uleb128 0x3b
	.uleb128 0x5
	.uleb128 0x39
	.uleb128 0xb
	.uleb128 0x49
	.uleb128 0x13
	.uleb128 0x2
	.uleb128 0x18
	.byte	0
	.byte	0
	.uleb128 0x16
	.uleb128 0x34
	.byte	0
	.uleb128 0x3
	.uleb128 0xe
	.uleb128 0x3a
	.uleb128 0xb
	.uleb128 0x3b
	.uleb128 0xb
	.uleb128 0x39
	.uleb128 0xb
	.uleb128 0x49
	.uleb128 0x13
	.byte	0
	.byte	0
	.uleb128 0x17
	.uleb128 0x5
	.byte	0
	.uleb128 0x3
	.uleb128 0xe
	.uleb128 0x3a
	.uleb128 0x21
	.sleb128 1
	.uleb128 0x3b
	.uleb128 0x5
	.uleb128 0x39
	.uleb128 0xb
	.uleb128 0x49
	.uleb128 0x13
	.uleb128 0x2
	.uleb128 0x17
	.uleb128 0x2137
	.uleb128 0x17
	.byte	0
	.byte	0
	.uleb128 0x18
	.uleb128 0x24
	.byte	0
	.uleb128 0xb
	.uleb128 0xb
	.uleb128 0x3e
	.uleb128 0xb
	.uleb128 0x3
	.uleb128 0xe
	.byte	0
	.byte	0
	.uleb128 0x19
	.uleb128 0xd
	.byte	0
	.uleb128 0x3
	.uleb128 0xe
	.uleb128 0x3a
	.uleb128 0x21
	.sleb128 18
	.uleb128 0x3b
	.uleb128 0x5
	.uleb128 0x39
	.uleb128 0x21
	.sleb128 10
	.uleb128 0x49
	.uleb128 0x13
	.byte	0
	.byte	0
	.uleb128 0x1a
	.uleb128 0x5
	.byte	0
	.uleb128 0x3
	.uleb128 0x8
	.uleb128 0x3a
	.uleb128 0xb
	.uleb128 0x3b
	.uleb128 0xb
	.uleb128 0x39
	.uleb128 0xb
	.uleb128 0x49
	.uleb128 0x13
	.byte	0
	.byte	0
	.uleb128 0x1b
	.uleb128 0x1
	.byte	0x1
	.uleb128 0x49
	.uleb128 0x13
	.uleb128 0x1
	.uleb128 0x13
	.byte	0
	.byte	0
	.uleb128 0x1c
	.uleb128 0x21
	.byte	0
	.uleb128 0x49
	.uleb128 0x13
	.uleb128 0x2f
	.uleb128 0xb
	.byte	0
	.byte	0
	.uleb128 0x1d
	.uleb128 0x2e
	.byte	0x1
	.uleb128 0x3f
	.uleb128 0x19
	.uleb128 0x3
	.uleb128 0xe
	.uleb128 0x3a
	.uleb128 0xb
	.uleb128 0x3b
	.uleb128 0x5
	.uleb128 0x39
	.uleb128 0xb
	.uleb128 0x27
	.uleb128 0x19
	.uleb128 0x49
	.uleb128 0x13
	.uleb128 0x3c
	.uleb128 0x19
	.uleb128 0x1
	.uleb128 0x13
	.byte	0
	.byte	0
	.uleb128 0x1e
	.uleb128 0x34
	.byte	0
	.uleb128 0x3
	.uleb128 0xe
	.uleb128 0x3a
	.uleb128 0x21
	.sleb128 1
	.uleb128 0x3b
	.uleb128 0x5
	.uleb128 0x39
	.uleb128 0xb
	.uleb128 0x49
	.uleb128 0x13
	.byte	0
	.byte	0
	.uleb128 0x1f
	.uleb128 0x1d
	.byte	0x1
	.uleb128 0x31
	.uleb128 0x13
	.uleb128 0x52
	.uleb128 0x1
	.uleb128 0x2138
	.uleb128 0x5
	.uleb128 0x55
	.uleb128 0x17
	.uleb128 0x58
	.uleb128 0x21
	.sleb128 1
	.uleb128 0x59
	.uleb128 0x5
	.uleb128 0x57
	.uleb128 0xb
	.byte	0
	.byte	0
	.uleb128 0x20
	.uleb128 0x18
	.byte	0
	.byte	0
	.byte	0
	.uleb128 0x21
	.uleb128 0x34
	.byte	0
	.uleb128 0x3
	.uleb128 0x8
	.uleb128 0x3a
	.uleb128 0x21
	.sleb128 1
	.uleb128 0x3b
	.uleb128 0x5
	.uleb128 0x39
	.uleb128 0xb
	.uleb128 0x49
	.uleb128 0x13
	.byte	0
	.byte	0
	.uleb128 0x22
	.uleb128 0x2e
	.byte	0x1
	.uleb128 0x31
	.uleb128 0x13
	.uleb128 0x11
	.uleb128 0x1
	.uleb128 0x12
	.uleb128 0x7
	.uleb128 0x40
	.uleb128 0x18
	.uleb128 0x7a
	.uleb128 0x19
	.uleb128 0x1
	.uleb128 0x13
	.byte	0
	.byte	0
	.uleb128 0x23
	.uleb128 0xb
	.byte	0x1
	.uleb128 0x55
	.uleb128 0x17
	.uleb128 0x1
	.uleb128 0x13
	.byte	0
	.byte	0
	.uleb128 0x24
	.uleb128 0x5
	.byte	0
	.uleb128 0x31
	.uleb128 0x13
	.byte	0
	.byte	0
	.uleb128 0x25
	.uleb128 0x5
	.byte	0
	.uleb128 0x3
	.uleb128 0xe
	.uleb128 0x3a
	.uleb128 0xb
	.uleb128 0x3b
	.uleb128 0x5
	.uleb128 0x39
	.uleb128 0xb
	.uleb128 0x49
	.uleb128 0x13
	.byte	0
	.byte	0
	.uleb128 0x26
	.uleb128 0x2e
	.byte	0x1
	.uleb128 0x3f
	.uleb128 0x19
	.uleb128 0x3
	.uleb128 0xe
	.uleb128 0x3a
	.uleb128 0xb
	.uleb128 0x3b
	.uleb128 0xb
	.uleb128 0x39
	.uleb128 0x21
	.sleb128 1
	.uleb128 0x27
	.uleb128 0x19
	.uleb128 0x49
	.uleb128 0x13
	.uleb128 0x20
	.uleb128 0x21
	.sleb128 3
	.uleb128 0x34
	.uleb128 0x19
	.uleb128 0x1
	.uleb128 0x13
	.byte	0
	.byte	0
	.uleb128 0x27
	.uleb128 0x2e
	.byte	0
	.uleb128 0x3f
	.uleb128 0x19
	.uleb128 0x3c
	.uleb128 0x19
	.uleb128 0x6e
	.uleb128 0xe
	.uleb128 0x3
	.uleb128 0xe
	.uleb128 0x3a
	.uleb128 0x21
	.sleb128 26
	.uleb128 0x3b
	.uleb128 0x21
	.sleb128 0
	.byte	0
	.byte	0
	.uleb128 0x28
	.uleb128 0x2e
	.byte	0x1
	.uleb128 0x3f
	.uleb128 0x19
	.uleb128 0x3
	.uleb128 0xe
	.uleb128 0x3a
	.uleb128 0xb
	.uleb128 0x3b
	.uleb128 0x5
	.uleb128 0x39
	.uleb128 0xb
	.uleb128 0x27
	.uleb128 0x19
	.uleb128 0x3c
	.uleb128 0x19
	.uleb128 0x1
	.uleb128 0x13
	.byte	0
	.byte	0
	.uleb128 0x29
	.uleb128 0xb
	.byte	0x1
	.uleb128 0x31
	.uleb128 0x13
	.uleb128 0x11
	.uleb128 0x1
	.uleb128 0x12
	.uleb128 0x7
	.uleb128 0x1
	.uleb128 0x13
	.byte	0
	.byte	0
	.uleb128 0x2a
	.uleb128 0xb
	.byte	0x1
	.byte	0
	.byte	0
	.uleb128 0x2b
	.uleb128 0xb
	.byte	0x1
	.uleb128 0x11
	.uleb128 0x1
	.uleb128 0x12
	.uleb128 0x7
	.uleb128 0x1
	.uleb128 0x13
	.byte	0
	.byte	0
	.uleb128 0x2c
	.uleb128 0x4
	.byte	0x1
	.uleb128 0x3
	.uleb128 0xe
	.uleb128 0x3e
	.uleb128 0x21
	.sleb128 7
	.uleb128 0xb
	.uleb128 0x21
	.sleb128 4
	.uleb128 0x49
	.uleb128 0x13
	.uleb128 0x3a
	.uleb128 0x21
	.sleb128 18
	.uleb128 0x3b
	.uleb128 0xb
	.uleb128 0x39
	.uleb128 0x21
	.sleb128 6
	.uleb128 0x1
	.uleb128 0x13
	.byte	0
	.byte	0
	.uleb128 0x2d
	.uleb128 0x34
	.byte	0
	.uleb128 0x3
	.uleb128 0xe
	.uleb128 0x3a
	.uleb128 0x21
	.sleb128 1
	.uleb128 0x3b
	.uleb128 0xb
	.uleb128 0x39
	.uleb128 0xb
	.uleb128 0x49
	.uleb128 0x13
	.uleb128 0x3f
	.uleb128 0x19
	.uleb128 0x2
	.uleb128 0x18
	.byte	0
	.byte	0
	.uleb128 0x2e
	.uleb128 0x2e
	.byte	0x1
	.uleb128 0x3f
	.uleb128 0x19
	.uleb128 0x3
	.uleb128 0xe
	.uleb128 0x3a
	.uleb128 0xb
	.uleb128 0x3b
	.uleb128 0xb
	.uleb128 0x39
	.uleb128 0xb
	.uleb128 0x27
	.uleb128 0x19
	.uleb128 0x49
	.uleb128 0x13
	.uleb128 0x3c
	.uleb128 0x19
	.uleb128 0x1
	.uleb128 0x13
	.byte	0
	.byte	0
	.uleb128 0x2f
	.uleb128 0x5
	.byte	0
	.uleb128 0x3
	.uleb128 0x8
	.uleb128 0x3a
	.uleb128 0x21
	.sleb128 1
	.uleb128 0x3b
	.uleb128 0x5
	.uleb128 0x39
	.uleb128 0xb
	.uleb128 0x49
	.uleb128 0x13
	.uleb128 0x2
	.uleb128 0x17
	.uleb128 0x2137
	.uleb128 0x17
	.byte	0
	.byte	0
	.uleb128 0x30
	.uleb128 0x37
	.byte	0
	.uleb128 0x49
	.uleb128 0x13
	.byte	0
	.byte	0
	.uleb128 0x31
	.uleb128 0xb
	.byte	0x1
	.uleb128 0x31
	.uleb128 0x13
	.uleb128 0x55
	.uleb128 0x17
	.uleb128 0x1
	.uleb128 0x13
	.byte	0
	.byte	0
	.uleb128 0x32
	.uleb128 0x2e
	.byte	0x1
	.uleb128 0x3f
	.uleb128 0x19
	.uleb128 0x3
	.uleb128 0xe
	.uleb128 0x3a
	.uleb128 0x21
	.sleb128 1
	.uleb128 0x3b
	.uleb128 0x5
	.uleb128 0x39
	.uleb128 0x21
	.sleb128 6
	.uleb128 0x27
	.uleb128 0x19
	.uleb128 0x11
	.uleb128 0x1
	.uleb128 0x12
	.uleb128 0x7
	.uleb128 0x40
	.uleb128 0x18
	.uleb128 0x7a
	.uleb128 0x19
	.uleb128 0x1
	.uleb128 0x13
	.byte	0
	.byte	0
	.uleb128 0x33
	.uleb128 0x1d
	.byte	0x1
	.uleb128 0x31
	.uleb128 0x13
	.uleb128 0x52
	.uleb128 0x1
	.uleb128 0x2138
	.uleb128 0x5
	.uleb128 0x11
	.uleb128 0x1
	.uleb128 0x12
	.uleb128 0x7
	.uleb128 0x58
	.uleb128 0x21
	.sleb128 1
	.uleb128 0x59
	.uleb128 0x5
	.uleb128 0x57
	.uleb128 0xb
	.byte	0
	.byte	0
	.uleb128 0x34
	.uleb128 0x36
	.byte	0
	.uleb128 0x2
	.uleb128 0x18
	.byte	0
	.byte	0
	.uleb128 0x35
	.uleb128 0x17
	.byte	0x1
	.uleb128 0xb
	.uleb128 0xb
	.uleb128 0x3a
	.uleb128 0x21
	.sleb128 18
	.uleb128 0x3b
	.uleb128 0x5
	.uleb128 0x39
	.uleb128 0x21
	.sleb128 2
	.uleb128 0x1
	.uleb128 0x13
	.byte	0
	.byte	0
	.uleb128 0x36
	.uleb128 0xd
	.byte	0
	.uleb128 0x49
	.uleb128 0x13
	.uleb128 0x38
	.uleb128 0xb
	.byte	0
	.byte	0
	.uleb128 0x37
	.uleb128 0x1d
	.byte	0x1
	.uleb128 0x31
	.uleb128 0x13
	.uleb128 0x52
	.uleb128 0x1
	.uleb128 0x2138
	.uleb128 0x5
	.uleb128 0x55
	.uleb128 0x17
	.uleb128 0x58
	.uleb128 0x21
	.sleb128 1
	.uleb128 0x59
	.uleb128 0xb
	.uleb128 0x57
	.uleb128 0xb
	.uleb128 0x1
	.uleb128 0x13
	.byte	0
	.byte	0
	.uleb128 0x38
	.uleb128 0x1d
	.byte	0x1
	.uleb128 0x31
	.uleb128 0x13
	.uleb128 0x52
	.uleb128 0x1
	.uleb128 0x2138
	.uleb128 0x5
	.uleb128 0x55
	.uleb128 0x17
	.uleb128 0x58
	.uleb128 0x21
	.sleb128 1
	.uleb128 0x59
	.uleb128 0xb
	.uleb128 0x57
	.uleb128 0xb
	.byte	0
	.byte	0
	.uleb128 0x39
	.uleb128 0xb
	.byte	0x1
	.uleb128 0x31
	.uleb128 0x13
	.uleb128 0x11
	.uleb128 0x1
	.uleb128 0x12
	.uleb128 0x7
	.byte	0
	.byte	0
	.uleb128 0x3a
	.uleb128 0x2e
	.byte	0x1
	.uleb128 0x3f
	.uleb128 0x19
	.uleb128 0x3
	.uleb128 0xe
	.uleb128 0x3a
	.uleb128 0xb
	.uleb128 0x3b
	.uleb128 0x5
	.uleb128 0x39
	.uleb128 0xb
	.uleb128 0x27
	.uleb128 0x19
	.uleb128 0x49
	.uleb128 0x13
	.uleb128 0x20
	.uleb128 0xb
	.uleb128 0x1
	.uleb128 0x13
	.byte	0
	.byte	0
	.uleb128 0x3b
	.uleb128 0x48
	.byte	0x1
	.uleb128 0x7d
	.uleb128 0x1
	.uleb128 0x82
	.uleb128 0x19
	.uleb128 0x7f
	.uleb128 0x13
	.byte	0
	.byte	0
	.uleb128 0x3c
	.uleb128 0x2e
	.byte	0x1
	.uleb128 0x3f
	.uleb128 0x19
	.uleb128 0x3
	.uleb128 0xe
	.uleb128 0x3a
	.uleb128 0x21
	.sleb128 1
	.uleb128 0x3b
	.uleb128 0x5
	.uleb128 0x39
	.uleb128 0xb
	.uleb128 0x27
	.uleb128 0x19
	.uleb128 0x49
	.uleb128 0x13
	.uleb128 0x11
	.uleb128 0x1
	.uleb128 0x12
	.uleb128 0x7
	.uleb128 0x40
	.uleb128 0x18
	.uleb128 0x7a
	.uleb128 0x19
	.uleb128 0x1
	.uleb128 0x13
	.byte	0
	.byte	0
	.uleb128 0x3d
	.uleb128 0x26
	.byte	0
	.uleb128 0x49
	.uleb128 0x13
	.byte	0
	.byte	0
	.uleb128 0x3e
	.uleb128 0x13
	.byte	0
	.uleb128 0x3
	.uleb128 0xe
	.uleb128 0x3c
	.uleb128 0x19
	.byte	0
	.byte	0
	.uleb128 0x3f
	.uleb128 0x2e
	.byte	0x1
	.uleb128 0x3f
	.uleb128 0x19
	.uleb128 0x3
	.uleb128 0xe
	.uleb128 0x3a
	.uleb128 0xb
	.uleb128 0x3b
	.uleb128 0xb
	.uleb128 0x39
	.uleb128 0xb
	.uleb128 0x6e
	.uleb128 0xe
	.uleb128 0x27
	.uleb128 0x19
	.uleb128 0x49
	.uleb128 0x13
	.uleb128 0x3c
	.uleb128 0x19
	.uleb128 0x1
	.uleb128 0x13
	.byte	0
	.byte	0
	.uleb128 0x40
	.uleb128 0xb
	.byte	0x1
	.uleb128 0x31
	.uleb128 0x13
	.uleb128 0x55
	.uleb128 0x17
	.byte	0
	.byte	0
	.uleb128 0x41
	.uleb128 0x34
	.byte	0
	.uleb128 0x3
	.uleb128 0x8
	.uleb128 0x3a
	.uleb128 0x21
	.sleb128 1
	.uleb128 0x3b
	.uleb128 0xb
	.uleb128 0x39
	.uleb128 0x21
	.sleb128 9
	.uleb128 0x49
	.uleb128 0x13
	.byte	0
	.byte	0
	.uleb128 0x42
	.uleb128 0x13
	.byte	0x1
	.uleb128 0x3
	.uleb128 0xe
	.uleb128 0xb
	.uleb128 0xb
	.uleb128 0x3a
	.uleb128 0xb
	.uleb128 0x3b
	.uleb128 0xb
	.uleb128 0x39
	.uleb128 0x21
	.sleb128 8
	.uleb128 0x1
	.uleb128 0x13
	.byte	0
	.byte	0
	.uleb128 0x43
	.uleb128 0x13
	.byte	0x1
	.uleb128 0xb
	.uleb128 0xb
	.uleb128 0x3a
	.uleb128 0x21
	.sleb128 16
	.uleb128 0x3b
	.uleb128 0xb
	.uleb128 0x39
	.uleb128 0x21
	.sleb128 9
	.uleb128 0x1
	.uleb128 0x13
	.byte	0
	.byte	0
	.uleb128 0x44
	.uleb128 0x16
	.byte	0
	.uleb128 0x3
	.uleb128 0xe
	.uleb128 0x3a
	.uleb128 0x21
	.sleb128 1
	.uleb128 0x3b
	.uleb128 0xb
	.uleb128 0x39
	.uleb128 0xb
	.uleb128 0x49
	.uleb128 0x13
	.uleb128 0x88
	.uleb128 0xb
	.byte	0
	.byte	0
	.uleb128 0x45
	.uleb128 0x34
	.byte	0
	.uleb128 0x3
	.uleb128 0x8
	.uleb128 0x3a
	.uleb128 0x21
	.sleb128 1
	.uleb128 0x3b
	.uleb128 0x5
	.uleb128 0x39
	.uleb128 0xb
	.uleb128 0x49
	.uleb128 0x13
	.uleb128 0x3f
	.uleb128 0x19
	.uleb128 0x2
	.uleb128 0x18
	.byte	0
	.byte	0
	.uleb128 0x46
	.uleb128 0x34
	.byte	0
	.uleb128 0x3
	.uleb128 0xe
	.uleb128 0x3a
	.uleb128 0x21
	.sleb128 1
	.uleb128 0x3b
	.uleb128 0x5
	.uleb128 0x39
	.uleb128 0xb
	.uleb128 0x49
	.uleb128 0x13
	.uleb128 0x3f
	.uleb128 0x19
	.uleb128 0x2
	.uleb128 0x18
	.byte	0
	.byte	0
	.uleb128 0x47
	.uleb128 0x2e
	.byte	0
	.uleb128 0x3f
	.uleb128 0x19
	.uleb128 0x3
	.uleb128 0xe
	.uleb128 0x3a
	.uleb128 0xb
	.uleb128 0x3b
	.uleb128 0x5
	.uleb128 0x39
	.uleb128 0xb
	.uleb128 0x27
	.uleb128 0x19
	.uleb128 0x49
	.uleb128 0x13
	.uleb128 0x3c
	.uleb128 0x19
	.byte	0
	.byte	0
	.uleb128 0x48
	.uleb128 0x2e
	.byte	0
	.uleb128 0x3f
	.uleb128 0x19
	.uleb128 0x3
	.uleb128 0xe
	.uleb128 0x3a
	.uleb128 0x21
	.sleb128 2
	.uleb128 0x3b
	.uleb128 0xb
	.uleb128 0x39
	.uleb128 0x21
	.sleb128 1
	.uleb128 0x27
	.uleb128 0x19
	.uleb128 0x3c
	.uleb128 0x19
	.byte	0
	.byte	0
	.uleb128 0x49
	.uleb128 0x2e
	.byte	0x1
	.uleb128 0x3f
	.uleb128 0x19
	.uleb128 0x3
	.uleb128 0xe
	.uleb128 0x3a
	.uleb128 0x21
	.sleb128 1
	.uleb128 0x3b
	.uleb128 0x5
	.uleb128 0x39
	.uleb128 0x21
	.sleb128 6
	.uleb128 0x11
	.uleb128 0x1
	.uleb128 0x12
	.uleb128 0x7
	.uleb128 0x40
	.uleb128 0x18
	.uleb128 0x7a
	.uleb128 0x19
	.uleb128 0x1
	.uleb128 0x13
	.byte	0
	.byte	0
	.uleb128 0x4a
	.uleb128 0x49
	.byte	0
	.uleb128 0x80
	.uleb128 0x13
	.uleb128 0x7e
	.uleb128 0x18
	.byte	0
	.byte	0
	.uleb128 0x4b
	.uleb128 0x5
	.byte	0
	.uleb128 0x31
	.uleb128 0x13
	.uleb128 0x2
	.uleb128 0x18
	.byte	0
	.byte	0
	.uleb128 0x4c
	.uleb128 0x2e
	.byte	0x1
	.uleb128 0x3f
	.uleb128 0x19
	.uleb128 0x3
	.uleb128 0xe
	.uleb128 0x3a
	.uleb128 0x21
	.sleb128 1
	.uleb128 0x3b
	.uleb128 0x5
	.uleb128 0x39
	.uleb128 0x21
	.sleb128 6
	.uleb128 0x20
	.uleb128 0x21
	.sleb128 1
	.uleb128 0x1
	.uleb128 0x13
	.byte	0
	.byte	0
	.uleb128 0x4d
	.uleb128 0x2e
	.byte	0x1
	.uleb128 0x3f
	.uleb128 0x19
	.uleb128 0x3
	.uleb128 0xe
	.uleb128 0x3a
	.uleb128 0x21
	.sleb128 1
	.uleb128 0x3b
	.uleb128 0x5
	.uleb128 0x39
	.uleb128 0x21
	.sleb128 6
	.uleb128 0x27
	.uleb128 0x19
	.uleb128 0x20
	.uleb128 0x21
	.sleb128 1
	.uleb128 0x1
	.uleb128 0x13
	.byte	0
	.byte	0
	.uleb128 0x4e
	.uleb128 0x2e
	.byte	0x1
	.uleb128 0x3f
	.uleb128 0x19
	.uleb128 0x3
	.uleb128 0xe
	.uleb128 0x3a
	.uleb128 0x21
	.sleb128 1
	.uleb128 0x3b
	.uleb128 0xb
	.uleb128 0x39
	.uleb128 0xb
	.uleb128 0x27
	.uleb128 0x19
	.uleb128 0x20
	.uleb128 0xb
	.uleb128 0x1
	.uleb128 0x13
	.byte	0
	.byte	0
	.uleb128 0x4f
	.uleb128 0x2e
	.byte	0x1
	.uleb128 0x3f
	.uleb128 0x19
	.uleb128 0x3
	.uleb128 0xe
	.uleb128 0x3a
	.uleb128 0x21
	.sleb128 1
	.uleb128 0x3b
	.uleb128 0xb
	.uleb128 0x39
	.uleb128 0xb
	.uleb128 0x27
	.uleb128 0x19
	.uleb128 0x49
	.uleb128 0x13
	.uleb128 0x20
	.uleb128 0xb
	.uleb128 0x1
	.uleb128 0x13
	.byte	0
	.byte	0
	.uleb128 0x50
	.uleb128 0x34
	.byte	0
	.uleb128 0x3
	.uleb128 0x8
	.uleb128 0x3a
	.uleb128 0x21
	.sleb128 1
	.uleb128 0x3b
	.uleb128 0xb
	.uleb128 0x39
	.uleb128 0xb
	.uleb128 0x49
	.uleb128 0x13
	.uleb128 0x2
	.uleb128 0x18
	.byte	0
	.byte	0
	.uleb128 0x51
	.uleb128 0x34
	.byte	0
	.uleb128 0x3
	.uleb128 0xe
	.uleb128 0x3a
	.uleb128 0x21
	.sleb128 1
	.uleb128 0x3b
	.uleb128 0xb
	.uleb128 0x39
	.uleb128 0xb
	.uleb128 0x49
	.uleb128 0x13
	.uleb128 0x2
	.uleb128 0x17
	.uleb128 0x2137
	.uleb128 0x17
	.byte	0
	.byte	0
	.uleb128 0x52
	.uleb128 0x34
	.byte	0
	.uleb128 0x3
	.uleb128 0x8
	.uleb128 0x3a
	.uleb128 0x21
	.sleb128 1
	.uleb128 0x3b
	.uleb128 0xb
	.uleb128 0x39
	.uleb128 0x21
	.sleb128 11
	.uleb128 0x49
	.uleb128 0x13
	.uleb128 0x2
	.uleb128 0x17
	.uleb128 0x2137
	.uleb128 0x17
	.byte	0
	.byte	0
	.uleb128 0x53
	.uleb128 0x2e
	.byte	0x1
	.uleb128 0x3f
	.uleb128 0x19
	.uleb128 0x3
	.uleb128 0xe
	.uleb128 0x3a
	.uleb128 0x21
	.sleb128 1
	.uleb128 0x3b
	.uleb128 0xb
	.uleb128 0x39
	.uleb128 0x21
	.sleb128 27
	.uleb128 0x49
	.uleb128 0x13
	.uleb128 0x20
	.uleb128 0x21
	.sleb128 3
	.uleb128 0x1
	.uleb128 0x13
	.byte	0
	.byte	0
	.uleb128 0x54
	.uleb128 0x11
	.byte	0x1
	.uleb128 0x25
	.uleb128 0xe
	.uleb128 0x13
	.uleb128 0xb
	.uleb128 0x3
	.uleb128 0x1f
	.uleb128 0x1b
	.uleb128 0x1f
	.uleb128 0x55
	.uleb128 0x17
	.uleb128 0x11
	.uleb128 0x1
	.uleb128 0x10
	.uleb128 0x17
	.byte	0
	.byte	0
	.uleb128 0x55
	.uleb128 0xf
	.byte	0
	.uleb128 0xb
	.uleb128 0xb
	.byte	0
	.byte	0
	.uleb128 0x56
	.uleb128 0x24
	.byte	0
	.uleb128 0xb
	.uleb128 0xb
	.uleb128 0x3e
	.uleb128 0xb
	.uleb128 0x3
	.uleb128 0x8
	.byte	0
	.byte	0
	.uleb128 0x57
	.uleb128 0x16
	.byte	0
	.uleb128 0x3
	.uleb128 0xe
	.uleb128 0x3a
	.uleb128 0xb
	.uleb128 0x3b
	.uleb128 0xb
	.uleb128 0x39
	.uleb128 0xb
	.byte	0
	.byte	0
	.uleb128 0x58
	.uleb128 0x34
	.byte	0
	.uleb128 0x3
	.uleb128 0xe
	.uleb128 0x3a
	.uleb128 0xb
	.uleb128 0x3b
	.uleb128 0xb
	.uleb128 0x39
	.uleb128 0xb
	.uleb128 0x49
	.uleb128 0x13
	.uleb128 0x3f
	.uleb128 0x19
	.uleb128 0x3c
	.uleb128 0x19
	.byte	0
	.byte	0
	.uleb128 0x59
	.uleb128 0x26
	.byte	0
	.byte	0
	.byte	0
	.uleb128 0x5a
	.uleb128 0x4
	.byte	0x1
	.uleb128 0x3e
	.uleb128 0xb
	.uleb128 0xb
	.uleb128 0xb
	.uleb128 0x49
	.uleb128 0x13
	.uleb128 0x3a
	.uleb128 0xb
	.uleb128 0x3b
	.uleb128 0xb
	.uleb128 0x39
	.uleb128 0xb
	.uleb128 0x1
	.uleb128 0x13
	.byte	0
	.byte	0
	.uleb128 0x5b
	.uleb128 0x17
	.byte	0x1
	.uleb128 0xb
	.uleb128 0xb
	.uleb128 0x3a
	.uleb128 0xb
	.uleb128 0x3b
	.uleb128 0xb
	.uleb128 0x39
	.uleb128 0xb
	.uleb128 0x1
	.uleb128 0x13
	.byte	0
	.byte	0
	.uleb128 0x5c
	.uleb128 0xd
	.byte	0
	.uleb128 0x3
	.uleb128 0xe
	.uleb128 0x3a
	.uleb128 0xb
	.uleb128 0x3b
	.uleb128 0xb
	.uleb128 0x39
	.uleb128 0xb
	.uleb128 0x49
	.uleb128 0x13
	.byte	0
	.byte	0
	.uleb128 0x5d
	.uleb128 0x13
	.byte	0x1
	.uleb128 0x3
	.uleb128 0xe
	.uleb128 0xb
	.uleb128 0xb
	.uleb128 0x3a
	.uleb128 0xb
	.uleb128 0x3b
	.uleb128 0x5
	.uleb128 0x39
	.uleb128 0xb
	.uleb128 0x1
	.uleb128 0x13
	.byte	0
	.byte	0
	.uleb128 0x5e
	.uleb128 0x2e
	.byte	0
	.uleb128 0x3f
	.uleb128 0x19
	.uleb128 0x3
	.uleb128 0xe
	.uleb128 0x3a
	.uleb128 0xb
	.uleb128 0x3b
	.uleb128 0xb
	.uleb128 0x39
	.uleb128 0xb
	.uleb128 0x27
	.uleb128 0x19
	.uleb128 0x49
	.uleb128 0x13
	.uleb128 0x3c
	.uleb128 0x19
	.byte	0
	.byte	0
	.uleb128 0x5f
	.uleb128 0x2e
	.byte	0x1
	.uleb128 0x3f
	.uleb128 0x19
	.uleb128 0x3
	.uleb128 0xe
	.uleb128 0x3a
	.uleb128 0xb
	.uleb128 0x3b
	.uleb128 0xb
	.uleb128 0x39
	.uleb128 0xb
	.uleb128 0x27
	.uleb128 0x19
	.uleb128 0x87
	.uleb128 0x19
	.uleb128 0x3c
	.uleb128 0x19
	.uleb128 0x1
	.uleb128 0x13
	.byte	0
	.byte	0
	.uleb128 0x60
	.uleb128 0x2e
	.byte	0x1
	.uleb128 0x3f
	.uleb128 0x19
	.uleb128 0x3
	.uleb128 0xe
	.uleb128 0x3a
	.uleb128 0xb
	.uleb128 0x3b
	.uleb128 0x5
	.uleb128 0x39
	.uleb128 0xb
	.uleb128 0x27
	.uleb128 0x19
	.uleb128 0x87
	.uleb128 0x19
	.uleb128 0x3c
	.uleb128 0x19
	.uleb128 0x1
	.uleb128 0x13
	.byte	0
	.byte	0
	.uleb128 0x61
	.uleb128 0x34
	.byte	0
	.uleb128 0x3
	.uleb128 0x8
	.uleb128 0x3a
	.uleb128 0xb
	.uleb128 0x3b
	.uleb128 0x5
	.uleb128 0x39
	.uleb128 0xb
	.uleb128 0x49
	.uleb128 0x13
	.uleb128 0x2
	.uleb128 0x18
	.byte	0
	.byte	0
	.uleb128 0x62
	.uleb128 0x1d
	.byte	0x1
	.uleb128 0x31
	.uleb128 0x13
	.uleb128 0x52
	.uleb128 0x1
	.uleb128 0x2138
	.uleb128 0x5
	.uleb128 0x11
	.uleb128 0x1
	.uleb128 0x12
	.uleb128 0x7
	.uleb128 0x58
	.uleb128 0xb
	.uleb128 0x59
	.uleb128 0xb
	.uleb128 0x57
	.uleb128 0xb
	.byte	0
	.byte	0
	.uleb128 0x63
	.uleb128 0x1d
	.byte	0x1
	.uleb128 0x31
	.uleb128 0x13
	.uleb128 0x55
	.uleb128 0x17
	.uleb128 0x58
	.uleb128 0xb
	.uleb128 0x59
	.uleb128 0x5
	.uleb128 0x57
	.uleb128 0xb
	.uleb128 0x1
	.uleb128 0x13
	.byte	0
	.byte	0
	.uleb128 0x64
	.uleb128 0x1d
	.byte	0x1
	.uleb128 0x31
	.uleb128 0x13
	.uleb128 0x11
	.uleb128 0x1
	.uleb128 0x12
	.uleb128 0x7
	.uleb128 0x58
	.uleb128 0xb
	.uleb128 0x59
	.uleb128 0x5
	.uleb128 0x57
	.uleb128 0xb
	.uleb128 0x1
	.uleb128 0x13
	.byte	0
	.byte	0
	.uleb128 0x65
	.uleb128 0x5
	.byte	0
	.uleb128 0x3
	.uleb128 0x8
	.uleb128 0x3a
	.uleb128 0xb
	.uleb128 0x3b
	.uleb128 0x5
	.uleb128 0x39
	.uleb128 0xb
	.uleb128 0x49
	.uleb128 0x13
	.byte	0
	.byte	0
	.uleb128 0x66
	.uleb128 0x48
	.byte	0
	.uleb128 0x7d
	.uleb128 0x1
	.uleb128 0x82
	.uleb128 0x19
	.uleb128 0x7f
	.uleb128 0x13
	.byte	0
	.byte	0
	.uleb128 0x67
	.uleb128 0xb
	.byte	0x1
	.uleb128 0x1
	.uleb128 0x13
	.byte	0
	.byte	0
	.uleb128 0x68
	.uleb128 0x34
	.byte	0
	.uleb128 0x3
	.uleb128 0xe
	.uleb128 0x49
	.uleb128 0x13
	.uleb128 0x34
	.uleb128 0x19
	.uleb128 0x2
	.uleb128 0x18
	.byte	0
	.byte	0
	.uleb128 0x69
	.uleb128 0x2e
	.byte	0x1
	.uleb128 0x3f
	.uleb128 0x19
	.uleb128 0x3
	.uleb128 0xe
	.uleb128 0x3a
	.uleb128 0xb
	.uleb128 0x3b
	.uleb128 0xb
	.uleb128 0x39
	.uleb128 0xb
	.uleb128 0x49
	.uleb128 0x13
	.uleb128 0x11
	.uleb128 0x1
	.uleb128 0x12
	.uleb128 0x7
	.uleb128 0x40
	.uleb128 0x18
	.uleb128 0x7a
	.uleb128 0x19
	.uleb128 0x1
	.uleb128 0x13
	.byte	0
	.byte	0
	.uleb128 0x6a
	.uleb128 0x34
	.byte	0
	.uleb128 0x3
	.uleb128 0xe
	.uleb128 0x3a
	.uleb128 0xb
	.uleb128 0x3b
	.uleb128 0xb
	.uleb128 0x39
	.uleb128 0xb
	.uleb128 0x49
	.uleb128 0x13
	.uleb128 0x2
	.uleb128 0x18
	.byte	0
	.byte	0
	.uleb128 0x6b
	.uleb128 0x1d
	.byte	0x1
	.uleb128 0x31
	.uleb128 0x13
	.uleb128 0x52
	.uleb128 0x1
	.uleb128 0x2138
	.uleb128 0x5
	.uleb128 0x11
	.uleb128 0x1
	.uleb128 0x12
	.uleb128 0x7
	.uleb128 0x58
	.uleb128 0xb
	.uleb128 0x59
	.uleb128 0xb
	.uleb128 0x57
	.uleb128 0xb
	.uleb128 0x1
	.uleb128 0x13
	.byte	0
	.byte	0
	.uleb128 0x6c
	.uleb128 0x2e
	.byte	0x1
	.uleb128 0x3f
	.uleb128 0x19
	.uleb128 0x3
	.uleb128 0xe
	.uleb128 0x3a
	.uleb128 0xb
	.uleb128 0x3b
	.uleb128 0xb
	.uleb128 0x39
	.uleb128 0xb
	.uleb128 0x20
	.uleb128 0xb
	.uleb128 0x1
	.uleb128 0x13
	.byte	0
	.byte	0
	.uleb128 0x6d
	.uleb128 0x2e
	.byte	0x1
	.uleb128 0x3
	.uleb128 0xe
	.uleb128 0x3a
	.uleb128 0xb
	.uleb128 0x3b
	.uleb128 0xb
	.uleb128 0x39
	.uleb128 0xb
	.uleb128 0x27
	.uleb128 0x19
	.uleb128 0x20
	.uleb128 0xb
	.uleb128 0x1
	.uleb128 0x13
	.byte	0
	.byte	0
	.uleb128 0x6e
	.uleb128 0x2e
	.byte	0x1
	.uleb128 0x3
	.uleb128 0xe
	.uleb128 0x3a
	.uleb128 0xb
	.uleb128 0x3b
	.uleb128 0xb
	.uleb128 0x39
	.uleb128 0xb
	.uleb128 0x27
	.uleb128 0x19
	.uleb128 0x49
	.uleb128 0x13
	.uleb128 0x20
	.uleb128 0xb
	.uleb128 0x1
	.uleb128 0x13
	.byte	0
	.byte	0
	.uleb128 0x6f
	.uleb128 0x5
	.byte	0
	.uleb128 0x31
	.uleb128 0x13
	.uleb128 0x1c
	.uleb128 0xb
	.byte	0
	.byte	0
	.uleb128 0x70
	.uleb128 0x2e
	.byte	0
	.uleb128 0x3f
	.uleb128 0x19
	.uleb128 0x3c
	.uleb128 0x19
	.uleb128 0x6e
	.uleb128 0xe
	.uleb128 0x3
	.uleb128 0xe
	.byte	0
	.byte	0
	.byte	0
	.section	.debug_loclists,"",@progbits
	.long	.Ldebug_loc3-.Ldebug_loc2
.Ldebug_loc2:
	.value	0x5
	.byte	0x8
	.byte	0
	.long	0
.Ldebug_loc0:
.LVUS190:
	.uleb128 .LVU1313
	.uleb128 .LVU2411
	.uleb128 .LVU2411
	.uleb128 .LVU2412
	.uleb128 .LVU2412
	.uleb128 .LVU2413
	.uleb128 .LVU2413
	.uleb128 .LVU2994
	.uleb128 .LVU2995
	.uleb128 0
.LLST190:
	.byte	0x6
	.quad	.LVL373
	.byte	0x4
	.uleb128 .LVL373-.LVL373
	.uleb128 .LVL585-.LVL373
	.uleb128 0x3
	.byte	0x76
	.sleb128 -1408
	.byte	0x4
	.uleb128 .LVL585-.LVL373
	.uleb128 .LVL586-.LVL373
	.uleb128 0x3
	.byte	0x77
	.sleb128 -1416
	.byte	0x4
	.uleb128 .LVL586-.LVL373
	.uleb128 .LVL587-.LVL373
	.uleb128 0x9
	.byte	0x91
	.sleb128 -8
	.byte	0x9
	.byte	0xc0
	.byte	0x1a
	.byte	0xa
	.value	0x590
	.byte	0x1c
	.byte	0x4
	.uleb128 .LVL587-.LVL373
	.uleb128 .LVL715-.LVL373
	.uleb128 0x3
	.byte	0x76
	.sleb128 -1408
	.byte	0x4
	.uleb128 .LVL716-.LVL373
	.uleb128 .LFE5800-.LVL373
	.uleb128 0x3
	.byte	0x76
	.sleb128 -1408
	.byte	0
.LVUS191:
	.uleb128 .LVU1338
	.uleb128 .LVU2411
	.uleb128 .LVU2411
	.uleb128 .LVU2412
	.uleb128 .LVU2412
	.uleb128 .LVU2413
	.uleb128 .LVU2413
	.uleb128 .LVU2994
	.uleb128 .LVU2995
	.uleb128 0
.LLST191:
	.byte	0x6
	.quad	.LVL380
	.byte	0x4
	.uleb128 .LVL380-.LVL380
	.uleb128 .LVL585-.LVL380
	.uleb128 0x3
	.byte	0x76
	.sleb128 -1432
	.byte	0x4
	.uleb128 .LVL585-.LVL380
	.uleb128 .LVL586-.LVL380
	.uleb128 0x3
	.byte	0x77
	.sleb128 -1440
	.byte	0x4
	.uleb128 .LVL586-.LVL380
	.uleb128 .LVL587-.LVL380
	.uleb128 0x9
	.byte	0x91
	.sleb128 -8
	.byte	0x9
	.byte	0xc0
	.byte	0x1a
	.byte	0xa
	.value	0x5a8
	.byte	0x1c
	.byte	0x4
	.uleb128 .LVL587-.LVL380
	.uleb128 .LVL715-.LVL380
	.uleb128 0x3
	.byte	0x76
	.sleb128 -1432
	.byte	0x4
	.uleb128 .LVL716-.LVL380
	.uleb128 .LFE5800-.LVL380
	.uleb128 0x3
	.byte	0x76
	.sleb128 -1432
	.byte	0
.LVUS192:
	.uleb128 .LVU1351
	.uleb128 .LVU1352
	.uleb128 .LVU1352
	.uleb128 .LVU1417
.LLST192:
	.byte	0x6
	.quad	.LVL385
	.byte	0x4
	.uleb128 .LVL385-.LVL385
	.uleb128 .LVL386-1-.LVL385
	.uleb128 0x1
	.byte	0x50
	.byte	0x4
	.uleb128 .LVL386-1-.LVL385
	.uleb128 .LVL402-.LVL385
	.uleb128 0x1
	.byte	0x5e
	.byte	0
.LVUS193:
	.uleb128 .LVU1356
	.uleb128 .LVU1358
.LLST193:
	.byte	0x8
	.quad	.LVL390
	.uleb128 .LVL391-1-.LVL390
	.uleb128 0x1
	.byte	0x50
	.byte	0
.LVUS194:
	.uleb128 .LVU1399
	.uleb128 .LVU2994
	.uleb128 .LVU2995
	.uleb128 0
.LLST194:
	.byte	0x6
	.quad	.LVL400
	.byte	0x4
	.uleb128 .LVL400-.LVL400
	.uleb128 .LVL715-.LVL400
	.uleb128 0xa
	.byte	0x9e
	.uleb128 0x8
	.long	0
	.long	0
	.byte	0x4
	.uleb128 .LVL716-.LVL400
	.uleb128 .LFE5800-.LVL400
	.uleb128 0xa
	.byte	0x9e
	.uleb128 0x8
	.long	0
	.long	0
	.byte	0
.LVUS195:
	.uleb128 .LVU1400
	.uleb128 .LVU2994
	.uleb128 .LVU2995
	.uleb128 0
.LLST195:
	.byte	0x6
	.quad	.LVL400
	.byte	0x4
	.uleb128 .LVL400-.LVL400
	.uleb128 .LVL715-.LVL400
	.uleb128 0xa
	.byte	0x9e
	.uleb128 0x8
	.long	0
	.long	0
	.byte	0x4
	.uleb128 .LVL716-.LVL400
	.uleb128 .LFE5800-.LVL400
	.uleb128 0xa
	.byte	0x9e
	.uleb128 0x8
	.long	0
	.long	0
	.byte	0
.LVUS196:
	.uleb128 .LVU1759
	.uleb128 .LVU1778
	.uleb128 .LVU1778
	.uleb128 .LVU2203
	.uleb128 .LVU2417
	.uleb128 .LVU2579
	.uleb128 .LVU2743
	.uleb128 .LVU2748
	.uleb128 .LVU2748
	.uleb128 .LVU2980
.LLST196:
	.byte	0x6
	.quad	.LVL464
	.byte	0x4
	.uleb128 .LVL464-.LVL464
	.uleb128 .LVL467-.LVL464
	.uleb128 0x1
	.byte	0x58
	.byte	0x4
	.uleb128 .LVL467-.LVL464
	.uleb128 .LVL521-.LVL464
	.uleb128 0x3
	.byte	0x76
	.sleb128 -1384
	.byte	0x4
	.uleb128 .LVL589-.LVL464
	.uleb128 .LVL611-.LVL464
	.uleb128 0x3
	.byte	0x76
	.sleb128 -1384
	.byte	0x4
	.uleb128 .LVL655-.LVL464
	.uleb128 .LVL657-.LVL464
	.uleb128 0x1
	.byte	0x58
	.byte	0x4
	.uleb128 .LVL657-.LVL464
	.uleb128 .LVL708-.LVL464
	.uleb128 0x3
	.byte	0x76
	.sleb128 -1384
	.byte	0
.LVUS197:
	.uleb128 .LVU2162
	.uleb128 .LVU2176
	.uleb128 .LVU2176
	.uleb128 .LVU2201
.LLST197:
	.byte	0x6
	.quad	.LVL506
	.byte	0x4
	.uleb128 .LVL506-.LVL506
	.uleb128 .LVL512-.LVL506
	.uleb128 0x1
	.byte	0x53
	.byte	0x4
	.uleb128 .LVL512-.LVL506
	.uleb128 .LVL519-.LVL506
	.uleb128 0x3
	.byte	0x76
	.sleb128 -1456
	.byte	0
.LVUS198:
	.uleb128 .LVU2237
	.uleb128 .LVU2239
	.uleb128 .LVU2239
	.uleb128 .LVU2374
	.uleb128 .LVU2413
	.uleb128 .LVU2417
.LLST198:
	.byte	0x6
	.quad	.LVL533
	.byte	0x4
	.uleb128 .LVL533-.LVL533
	.uleb128 .LVL534-1-.LVL533
	.uleb128 0x1
	.byte	0x59
	.byte	0x4
	.uleb128 .LVL534-1-.LVL533
	.uleb128 .LVL572-.LVL533
	.uleb128 0x3
	.byte	0x76
	.sleb128 -1352
	.byte	0x4
	.uleb128 .LVL587-.LVL533
	.uleb128 .LVL589-.LVL533
	.uleb128 0x3
	.byte	0x76
	.sleb128 -1352
	.byte	0
.LVUS199:
	.uleb128 .LVU2250
	.uleb128 .LVU2282
.LLST199:
	.byte	0x8
	.quad	.LVL536
	.uleb128 .LVL547-.LVL536
	.uleb128 0x1
	.byte	0x53
	.byte	0
.LVUS200:
	.uleb128 .LVU1406
	.uleb128 .LVU1417
	.uleb128 .LVU1417
	.uleb128 .LVU2199
	.uleb128 .LVU2389
	.uleb128 .LVU2411
	.uleb128 .LVU2411
	.uleb128 .LVU2412
	.uleb128 .LVU2412
	.uleb128 .LVU2413
	.uleb128 .LVU2417
	.uleb128 .LVU2988
	.uleb128 .LVU2995
	.uleb128 0
.LLST200:
	.byte	0x6
	.quad	.LVL400
	.byte	0x4
	.uleb128 .LVL400-.LVL400
	.uleb128 .LVL402-.LVL400
	.uleb128 0x2
	.byte	0x30
	.byte	0x9f
	.byte	0x4
	.uleb128 .LVL402-.LVL400
	.uleb128 .LVL517-.LVL400
	.uleb128 0x3
	.byte	0x76
	.sleb128 -1472
	.byte	0x4
	.uleb128 .LVL579-.LVL400
	.uleb128 .LVL585-.LVL400
	.uleb128 0x3
	.byte	0x76
	.sleb128 -1472
	.byte	0x4
	.uleb128 .LVL585-.LVL400
	.uleb128 .LVL586-.LVL400
	.uleb128 0x3
	.byte	0x77
	.sleb128 -1480
	.byte	0x4
	.uleb128 .LVL586-.LVL400
	.uleb128 .LVL587-.LVL400
	.uleb128 0x9
	.byte	0x91
	.sleb128 -8
	.byte	0x9
	.byte	0xc0
	.byte	0x1a
	.byte	0xa
	.value	0x5d0
	.byte	0x1c
	.byte	0x4
	.uleb128 .LVL589-.LVL400
	.uleb128 .LVL711-.LVL400
	.uleb128 0x3
	.byte	0x76
	.sleb128 -1472
	.byte	0x4
	.uleb128 .LVL716-.LVL400
	.uleb128 .LFE5800-.LVL400
	.uleb128 0x3
	.byte	0x76
	.sleb128 -1472
	.byte	0
.LVUS201:
	.uleb128 .LVU1406
	.uleb128 .LVU1417
	.uleb128 .LVU1417
	.uleb128 .LVU2283
	.uleb128 .LVU2389
	.uleb128 .LVU2411
	.uleb128 .LVU2411
	.uleb128 .LVU2412
	.uleb128 .LVU2412
	.uleb128 .LVU2413
	.uleb128 .LVU2417
	.uleb128 .LVU2994
	.uleb128 .LVU2995
	.uleb128 0
.LLST201:
	.byte	0x6
	.quad	.LVL400
	.byte	0x4
	.uleb128 .LVL400-.LVL400
	.uleb128 .LVL402-.LVL400
	.uleb128 0x2
	.byte	0x30
	.byte	0x9f
	.byte	0x4
	.uleb128 .LVL402-.LVL400
	.uleb128 .LVL548-.LVL400
	.uleb128 0x3
	.byte	0x76
	.sleb128 -1480
	.byte	0x4
	.uleb128 .LVL579-.LVL400
	.uleb128 .LVL585-.LVL400
	.uleb128 0x3
	.byte	0x76
	.sleb128 -1480
	.byte	0x4
	.uleb128 .LVL585-.LVL400
	.uleb128 .LVL586-.LVL400
	.uleb128 0x3
	.byte	0x77
	.sleb128 -1488
	.byte	0x4
	.uleb128 .LVL586-.LVL400
	.uleb128 .LVL587-.LVL400
	.uleb128 0x9
	.byte	0x91
	.sleb128 -8
	.byte	0x9
	.byte	0xc0
	.byte	0x1a
	.byte	0xa
	.value	0x5d8
	.byte	0x1c
	.byte	0x4
	.uleb128 .LVL589-.LVL400
	.uleb128 .LVL715-.LVL400
	.uleb128 0x3
	.byte	0x76
	.sleb128 -1480
	.byte	0x4
	.uleb128 .LVL716-.LVL400
	.uleb128 .LFE5800-.LVL400
	.uleb128 0x3
	.byte	0x76
	.sleb128 -1480
	.byte	0
.LVUS250:
	.uleb128 .LVU1413
	.uleb128 .LVU1417
	.uleb128 .LVU1417
	.uleb128 .LVU2389
	.uleb128 .LVU2389
	.uleb128 .LVU2410
	.uleb128 .LVU2410
	.uleb128 .LVU2411
	.uleb128 .LVU2411
	.uleb128 .LVU2412
	.uleb128 .LVU2412
	.uleb128 .LVU2413
	.uleb128 .LVU2413
	.uleb128 .LVU2982
	.uleb128 .LVU2982
	.uleb128 .LVU2988
	.uleb128 .LVU2988
	.uleb128 .LVU2994
	.uleb128 .LVU2995
	.uleb128 0
.LLST250:
	.byte	0x6
	.quad	.LVL401
	.byte	0x4
	.uleb128 .LVL401-.LVL401
	.uleb128 .LVL402-.LVL401
	.uleb128 0x2
	.byte	0x30
	.byte	0x9f
	.byte	0x4
	.uleb128 .LVL402-.LVL401
	.uleb128 .LVL579-.LVL401
	.uleb128 0x3
	.byte	0x76
	.sleb128 -1376
	.byte	0x4
	.uleb128 .LVL579-.LVL401
	.uleb128 .LVL584-.LVL401
	.uleb128 0x1
	.byte	0x5d
	.byte	0x4
	.uleb128 .LVL584-.LVL401
	.uleb128 .LVL585-.LVL401
	.uleb128 0x3
	.byte	0x76
	.sleb128 -1376
	.byte	0x4
	.uleb128 .LVL585-.LVL401
	.uleb128 .LVL586-.LVL401
	.uleb128 0x3
	.byte	0x77
	.sleb128 -1384
	.byte	0x4
	.uleb128 .LVL586-.LVL401
	.uleb128 .LVL587-.LVL401
	.uleb128 0x9
	.byte	0x91
	.sleb128 -8
	.byte	0x9
	.byte	0xc0
	.byte	0x1a
	.byte	0xa
	.value	0x570
	.byte	0x1c
	.byte	0x4
	.uleb128 .LVL587-.LVL401
	.uleb128 .LVL710-.LVL401
	.uleb128 0x3
	.byte	0x76
	.sleb128 -1376
	.byte	0x4
	.uleb128 .LVL710-.LVL401
	.uleb128 .LVL711-.LVL401
	.uleb128 0x1
	.byte	0x5d
	.byte	0x4
	.uleb128 .LVL711-.LVL401
	.uleb128 .LVL715-.LVL401
	.uleb128 0x3
	.byte	0x76
	.sleb128 -1376
	.byte	0x4
	.uleb128 .LVL716-.LVL401
	.uleb128 .LFE5800-.LVL401
	.uleb128 0x1
	.byte	0x5d
	.byte	0
.LVUS252:
	.uleb128 .LVU1561
	.uleb128 .LVU1695
	.uleb128 .LVU2579
	.uleb128 .LVU2654
	.uleb128 .LVU2731
	.uleb128 .LVU2739
	.uleb128 .LVU2981
	.uleb128 .LVU2982
.LLST252:
	.byte	0x6
	.quad	.LVL426
	.byte	0x4
	.uleb128 .LVL426-.LVL426
	.uleb128 .LVL448-.LVL426
	.uleb128 0x3
	.byte	0x76
	.sleb128 -1368
	.byte	0x4
	.uleb128 .LVL611-.LVL426
	.uleb128 .LVL631-.LVL426
	.uleb128 0x3
	.byte	0x76
	.sleb128 -1368
	.byte	0x4
	.uleb128 .LVL650-.LVL426
	.uleb128 .LVL653-.LVL426
	.uleb128 0x3
	.byte	0x76
	.sleb128 -1368
	.byte	0x4
	.uleb128 .LVL709-.LVL426
	.uleb128 .LVL710-.LVL426
	.uleb128 0x3
	.byte	0x76
	.sleb128 -1368
	.byte	0
.LVUS253:
	.uleb128 .LVU1701
	.uleb128 .LVU1730
	.uleb128 .LVU1730
	.uleb128 .LVU2236
	.uleb128 .LVU2417
	.uleb128 .LVU2579
	.uleb128 .LVU2743
	.uleb128 .LVU2980
.LLST253:
	.byte	0x6
	.quad	.LVL449
	.byte	0x4
	.uleb128 .LVL449-.LVL449
	.uleb128 .LVL456-.LVL449
	.uleb128 0x1
	.byte	0x53
	.byte	0x4
	.uleb128 .LVL456-.LVL449
	.uleb128 .LVL533-.LVL449
	.uleb128 0x3
	.byte	0x76
	.sleb128 -1352
	.byte	0x4
	.uleb128 .LVL589-.LVL449
	.uleb128 .LVL611-.LVL449
	.uleb128 0x3
	.byte	0x76
	.sleb128 -1352
	.byte	0x4
	.uleb128 .LVL655-.LVL449
	.uleb128 .LVL708-.LVL449
	.uleb128 0x3
	.byte	0x76
	.sleb128 -1352
	.byte	0
.LVUS254:
	.uleb128 .LVU1713
	.uleb128 .LVU1715
	.uleb128 .LVU1715
	.uleb128 .LVU1783
	.uleb128 .LVU2743
	.uleb128 .LVU2855
	.uleb128 .LVU2855
	.uleb128 .LVU2856
	.uleb128 .LVU2856
	.uleb128 .LVU2857
.LLST254:
	.byte	0x6
	.quad	.LVL452
	.byte	0x4
	.uleb128 .LVL452-.LVL452
	.uleb128 .LVL453-1-.LVL452
	.uleb128 0x1
	.byte	0x50
	.byte	0x4
	.uleb128 .LVL453-1-.LVL452
	.uleb128 .LVL470-.LVL452
	.uleb128 0x1
	.byte	0x5c
	.byte	0x4
	.uleb128 .LVL655-.LVL452
	.uleb128 .LVL682-.LVL452
	.uleb128 0x1
	.byte	0x5c
	.byte	0x4
	.uleb128 .LVL682-.LVL452
	.uleb128 .LVL683-.LVL452
	.uleb128 0x1
	.byte	0x50
	.byte	0x4
	.uleb128 .LVL683-.LVL452
	.uleb128 .LVL684-.LVL452
	.uleb128 0x1
	.byte	0x5c
	.byte	0
.LVUS255:
	.uleb128 .LVU1717
	.uleb128 .LVU1730
	.uleb128 .LVU1730
	.uleb128 .LVU1781
	.uleb128 .LVU1781
	.uleb128 .LVU1782
	.uleb128 .LVU1782
	.uleb128 .LVU1785
	.uleb128 .LVU2743
	.uleb128 .LVU2857
.LLST255:
	.byte	0x6
	.quad	.LVL454
	.byte	0x4
	.uleb128 .LVL454-.LVL454
	.uleb128 .LVL456-.LVL454
	.uleb128 0x1
	.byte	0x50
	.byte	0x4
	.uleb128 .LVL456-.LVL454
	.uleb128 .LVL468-.LVL454
	.uleb128 0x1
	.byte	0x5d
	.byte	0x4
	.uleb128 .LVL468-.LVL454
	.uleb128 .LVL469-.LVL454
	.uleb128 0x1
	.byte	0x50
	.byte	0x4
	.uleb128 .LVL469-.LVL454
	.uleb128 .LVL471-.LVL454
	.uleb128 0x1
	.byte	0x5d
	.byte	0x4
	.uleb128 .LVL655-.LVL454
	.uleb128 .LVL684-.LVL454
	.uleb128 0x1
	.byte	0x5d
	.byte	0
.LVUS256:
	.uleb128 .LVU1718
	.uleb128 .LVU1724
	.uleb128 .LVU2148
	.uleb128 .LVU2155
	.uleb128 .LVU2155
	.uleb128 .LVU2387
	.uleb128 .LVU2413
	.uleb128 .LVU2417
	.uleb128 .LVU2988
	.uleb128 .LVU2994
.LLST256:
	.byte	0x6
	.quad	.LVL454
	.byte	0x4
	.uleb128 .LVL454-.LVL454
	.uleb128 .LVL455-.LVL454
	.uleb128 0x1f
	.byte	0x3
	.quad	sub_space_ptr
	.byte	0x94
	.byte	0x4
	.byte	0x8
	.byte	0x20
	.byte	0x24
	.byte	0x8
	.byte	0x20
	.byte	0x26
	.byte	0x33
	.byte	0x24
	.byte	0x3
	.quad	sub_space
	.byte	0x6
	.byte	0x22
	.byte	0x9f
	.byte	0x4
	.uleb128 .LVL503-.LVL454
	.uleb128 .LVL504-.LVL454
	.uleb128 0x1
	.byte	0x53
	.byte	0x4
	.uleb128 .LVL504-.LVL454
	.uleb128 .LVL578-.LVL454
	.uleb128 0x3
	.byte	0x76
	.sleb128 -1400
	.byte	0x4
	.uleb128 .LVL587-.LVL454
	.uleb128 .LVL589-.LVL454
	.uleb128 0x3
	.byte	0x76
	.sleb128 -1400
	.byte	0x4
	.uleb128 .LVL711-.LVL454
	.uleb128 .LVL715-.LVL454
	.uleb128 0x3
	.byte	0x76
	.sleb128 -1400
	.byte	0
.LVUS257:
	.uleb128 .LVU2286
	.uleb128 .LVU2288
	.uleb128 .LVU2288
	.uleb128 .LVU2380
	.uleb128 .LVU2413
	.uleb128 .LVU2417
.LLST257:
	.byte	0x6
	.quad	.LVL550
	.byte	0x4
	.uleb128 .LVL550-.LVL550
	.uleb128 .LVL551-1-.LVL550
	.uleb128 0x1
	.byte	0x50
	.byte	0x4
	.uleb128 .LVL551-1-.LVL550
	.uleb128 .LVL575-.LVL550
	.uleb128 0x1
	.byte	0x5c
	.byte	0x4
	.uleb128 .LVL587-.LVL550
	.uleb128 .LVL589-.LVL550
	.uleb128 0x1
	.byte	0x5c
	.byte	0
.LVUS258:
	.uleb128 .LVU2291
	.uleb128 .LVU2295
	.uleb128 .LVU2295
	.uleb128 .LVU2382
	.uleb128 .LVU2413
	.uleb128 .LVU2417
.LLST258:
	.byte	0x6
	.quad	.LVL552
	.byte	0x4
	.uleb128 .LVL552-.LVL552
	.uleb128 .LVL553-1-.LVL552
	.uleb128 0x1
	.byte	0x50
	.byte	0x4
	.uleb128 .LVL553-1-.LVL552
	.uleb128 .LVL576-.LVL552
	.uleb128 0x1
	.byte	0x5d
	.byte	0x4
	.uleb128 .LVL587-.LVL552
	.uleb128 .LVL589-.LVL552
	.uleb128 0x1
	.byte	0x5d
	.byte	0
.LVUS260:
	.uleb128 .LVU1423
	.uleb128 .LVU1553
	.uleb128 .LVU2654
	.uleb128 .LVU2731
	.uleb128 .LVU2980
	.uleb128 .LVU2981
.LLST260:
	.byte	0x6
	.quad	.LVL404
	.byte	0x4
	.uleb128 .LVL404-.LVL404
	.uleb128 .LVL425-.LVL404
	.uleb128 0x1
	.byte	0x53
	.byte	0x4
	.uleb128 .LVL631-.LVL404
	.uleb128 .LVL650-.LVL404
	.uleb128 0x1
	.byte	0x53
	.byte	0x4
	.uleb128 .LVL708-.LVL404
	.uleb128 .LVL709-.LVL404
	.uleb128 0x1
	.byte	0x53
	.byte	0
.LVUS261:
	.uleb128 .LVU1426
	.uleb128 .LVU1450
	.uleb128 .LVU1450
	.uleb128 .LVU1561
	.uleb128 .LVU2654
	.uleb128 .LVU2657
	.uleb128 .LVU2657
	.uleb128 .LVU2727
	.uleb128 .LVU2727
	.uleb128 .LVU2731
	.uleb128 .LVU2980
	.uleb128 .LVU2981
.LLST261:
	.byte	0x6
	.quad	.LVL406
	.byte	0x4
	.uleb128 .LVL406-.LVL406
	.uleb128 .LVL409-.LVL406
	.uleb128 0x1
	.byte	0x50
	.byte	0x4
	.uleb128 .LVL409-.LVL406
	.uleb128 .LVL426-.LVL406
	.uleb128 0x3
	.byte	0x76
	.sleb128 -1368
	.byte	0x4
	.uleb128 .LVL631-.LVL406
	.uleb128 .LVL632-.LVL406
	.uleb128 0x1
	.byte	0x50
	.byte	0x4
	.uleb128 .LVL632-.LVL406
	.uleb128 .LVL649-.LVL406
	.uleb128 0x3
	.byte	0x76
	.sleb128 -1368
	.byte	0x4
	.uleb128 .LVL649-.LVL406
	.uleb128 .LVL650-.LVL406
	.uleb128 0x1
	.byte	0x50
	.byte	0x4
	.uleb128 .LVL708-.LVL406
	.uleb128 .LVL709-.LVL406
	.uleb128 0x1
	.byte	0x50
	.byte	0
.LVUS263:
	.uleb128 .LVU1428
	.uleb128 .LVU1431
	.uleb128 .LVU1451
	.uleb128 .LVU1459
	.uleb128 .LVU1459
	.uleb128 .LVU1466
	.uleb128 .LVU1466
	.uleb128 .LVU1473
	.uleb128 .LVU1473
	.uleb128 .LVU1480
	.uleb128 .LVU1480
	.uleb128 .LVU1487
	.uleb128 .LVU1487
	.uleb128 .LVU1494
	.uleb128 .LVU1494
	.uleb128 .LVU1501
	.uleb128 .LVU1501
	.uleb128 .LVU1508
	.uleb128 .LVU1508
	.uleb128 .LVU1515
	.uleb128 .LVU1515
	.uleb128 .LVU1522
	.uleb128 .LVU1522
	.uleb128 .LVU1529
	.uleb128 .LVU1529
	.uleb128 .LVU1536
	.uleb128 .LVU1536
	.uleb128 .LVU1543
	.uleb128 .LVU1543
	.uleb128 .LVU1550
	.uleb128 .LVU2654
	.uleb128 .LVU2661
	.uleb128 .LVU2661
	.uleb128 .LVU2662
	.uleb128 .LVU2666
	.uleb128 .LVU2667
	.uleb128 .LVU2671
	.uleb128 .LVU2672
	.uleb128 .LVU2676
	.uleb128 .LVU2677
	.uleb128 .LVU2681
	.uleb128 .LVU2682
	.uleb128 .LVU2686
	.uleb128 .LVU2687
	.uleb128 .LVU2691
	.uleb128 .LVU2692
	.uleb128 .LVU2692
	.uleb128 .LVU2693
	.uleb128 .LVU2725
	.uleb128 .LVU2726
	.uleb128 .LVU2726
	.uleb128 .LVU2727
	.uleb128 .LVU2727
	.uleb128 .LVU2731
	.uleb128 .LVU2980
	.uleb128 .LVU2981
.LLST263:
	.byte	0x6
	.quad	.LVL407
	.byte	0x4
	.uleb128 .LVL407-.LVL407
	.uleb128 .LVL408-.LVL407
	.uleb128 0x2
	.byte	0x30
	.byte	0x9f
	.byte	0x4
	.uleb128 .LVL410-.LVL407
	.uleb128 .LVL411-.LVL407
	.uleb128 0x1
	.byte	0x50
	.byte	0x4
	.uleb128 .LVL411-.LVL407
	.uleb128 .LVL412-.LVL407
	.uleb128 0x1
	.byte	0x51
	.byte	0x4
	.uleb128 .LVL412-.LVL407
	.uleb128 .LVL413-.LVL407
	.uleb128 0x1
	.byte	0x58
	.byte	0x4
	.uleb128 .LVL413-.LVL407
	.uleb128 .LVL414-.LVL407
	.uleb128 0x1
	.byte	0x55
	.byte	0x4
	.uleb128 .LVL414-.LVL407
	.uleb128 .LVL415-.LVL407
	.uleb128 0x1
	.byte	0x52
	.byte	0x4
	.uleb128 .LVL415-.LVL407
	.uleb128 .LVL416-.LVL407
	.uleb128 0x1
	.byte	0x51
	.byte	0x4
	.uleb128 .LVL416-.LVL407
	.uleb128 .LVL417-.LVL407
	.uleb128 0x1
	.byte	0x55
	.byte	0x4
	.uleb128 .LVL417-.LVL407
	.uleb128 .LVL418-.LVL407
	.uleb128 0x1
	.byte	0x58
	.byte	0x4
	.uleb128 .LVL418-.LVL407
	.uleb128 .LVL419-.LVL407
	.uleb128 0x1
	.byte	0x52
	.byte	0x4
	.uleb128 .LVL419-.LVL407
	.uleb128 .LVL420-.LVL407
	.uleb128 0x1
	.byte	0x55
	.byte	0x4
	.uleb128 .LVL420-.LVL407
	.uleb128 .LVL421-.LVL407
	.uleb128 0x1
	.byte	0x51
	.byte	0x4
	.uleb128 .LVL421-.LVL407
	.uleb128 .LVL422-.LVL407
	.uleb128 0x1
	.byte	0x58
	.byte	0x4
	.uleb128 .LVL422-.LVL407
	.uleb128 .LVL423-.LVL407
	.uleb128 0x1
	.byte	0x55
	.byte	0x4
	.uleb128 .LVL423-.LVL407
	.uleb128 .LVL424-.LVL407
	.uleb128 0x1
	.byte	0x52
	.byte	0x4
	.uleb128 .LVL631-.LVL407
	.uleb128 .LVL633-.LVL407
	.uleb128 0x2
	.byte	0x30
	.byte	0x9f
	.byte	0x4
	.uleb128 .LVL633-.LVL407
	.uleb128 .LVL633-.LVL407
	.uleb128 0x2
	.byte	0x31
	.byte	0x9f
	.byte	0x4
	.uleb128 .LVL634-.LVL407
	.uleb128 .LVL635-.LVL407
	.uleb128 0x3
	.byte	0x72
	.sleb128 2
	.byte	0x9f
	.byte	0x4
	.uleb128 .LVL636-.LVL407
	.uleb128 .LVL637-.LVL407
	.uleb128 0x3
	.byte	0x72
	.sleb128 2
	.byte	0x9f
	.byte	0x4
	.uleb128 .LVL638-.LVL407
	.uleb128 .LVL639-.LVL407
	.uleb128 0x3
	.byte	0x72
	.sleb128 2
	.byte	0x9f
	.byte	0x4
	.uleb128 .LVL640-.LVL407
	.uleb128 .LVL641-.LVL407
	.uleb128 0x3
	.byte	0x72
	.sleb128 2
	.byte	0x9f
	.byte	0x4
	.uleb128 .LVL642-.LVL407
	.uleb128 .LVL643-.LVL407
	.uleb128 0x3
	.byte	0x72
	.sleb128 2
	.byte	0x9f
	.byte	0x4
	.uleb128 .LVL644-.LVL407
	.uleb128 .LVL645-.LVL407
	.uleb128 0x3
	.byte	0x72
	.sleb128 2
	.byte	0x9f
	.byte	0x4
	.uleb128 .LVL645-.LVL407
	.uleb128 .LVL646-.LVL407
	.uleb128 0x3
	.byte	0x72
	.sleb128 1
	.byte	0x9f
	.byte	0x4
	.uleb128 .LVL647-.LVL407
	.uleb128 .LVL648-.LVL407
	.uleb128 0x3
	.byte	0x72
	.sleb128 9
	.byte	0x9f
	.byte	0x4
	.uleb128 .LVL648-.LVL407
	.uleb128 .LVL649-.LVL407
	.uleb128 0x3
	.byte	0x72
	.sleb128 1
	.byte	0x9f
	.byte	0x4
	.uleb128 .LVL649-.LVL407
	.uleb128 .LVL650-.LVL407
	.uleb128 0x2
	.byte	0x30
	.byte	0x9f
	.byte	0x4
	.uleb128 .LVL708-.LVL407
	.uleb128 .LVL709-.LVL407
	.uleb128 0x2
	.byte	0x30
	.byte	0x9f
	.byte	0
.LVUS265:
	.uleb128 .LVU1565
	.uleb128 .LVU1691
	.uleb128 .LVU2579
	.uleb128 .LVU2654
	.uleb128 .LVU2733
	.uleb128 .LVU2736
	.uleb128 .LVU2981
	.uleb128 .LVU2982
.LLST265:
	.byte	0x6
	.quad	.LVL427
	.byte	0x4
	.uleb128 .LVL427-.LVL427
	.uleb128 .LVL447-.LVL427
	.uleb128 0x1
	.byte	0x53
	.byte	0x4
	.uleb128 .LVL611-.LVL427
	.uleb128 .LVL631-.LVL427
	.uleb128 0x1
	.byte	0x53
	.byte	0x4
	.uleb128 .LVL650-.LVL427
	.uleb128 .LVL651-1-.LVL427
	.uleb128 0x3
	.byte	0x76
	.sleb128 -1264
	.byte	0x4
	.uleb128 .LVL709-.LVL427
	.uleb128 .LVL710-.LVL427
	.uleb128 0x1
	.byte	0x53
	.byte	0
.LVUS266:
	.uleb128 .LVU1568
	.uleb128 .LVU1570
	.uleb128 .LVU1570
	.uleb128 .LVU1573
	.uleb128 .LVU1573
	.uleb128 .LVU1695
	.uleb128 .LVU2579
	.uleb128 .LVU2583
	.uleb128 .LVU2583
	.uleb128 .LVU2600
	.uleb128 .LVU2600
	.uleb128 .LVU2654
	.uleb128 .LVU2737
	.uleb128 .LVU2739
	.uleb128 .LVU2981
	.uleb128 .LVU2982
.LLST266:
	.byte	0x6
	.quad	.LVL429
	.byte	0x4
	.uleb128 .LVL429-.LVL429
	.uleb128 .LVL430-.LVL429
	.uleb128 0x1
	.byte	0x50
	.byte	0x4
	.uleb128 .LVL430-.LVL429
	.uleb128 .LVL431-.LVL429
	.uleb128 0x1
	.byte	0x58
	.byte	0x4
	.uleb128 .LVL431-.LVL429
	.uleb128 .LVL448-.LVL429
	.uleb128 0x3
	.byte	0x76
	.sleb128 -1352
	.byte	0x4
	.uleb128 .LVL611-.LVL429
	.uleb128 .LVL613-.LVL429
	.uleb128 0x1
	.byte	0x50
	.byte	0x4
	.uleb128 .LVL613-.LVL429
	.uleb128 .LVL619-.LVL429
	.uleb128 0x1
	.byte	0x58
	.byte	0x4
	.uleb128 .LVL619-.LVL429
	.uleb128 .LVL631-.LVL429
	.uleb128 0x3
	.byte	0x76
	.sleb128 -1352
	.byte	0x4
	.uleb128 .LVL652-.LVL429
	.uleb128 .LVL653-.LVL429
	.uleb128 0x1
	.byte	0x50
	.byte	0x4
	.uleb128 .LVL709-.LVL429
	.uleb128 .LVL710-.LVL429
	.uleb128 0x1
	.byte	0x50
	.byte	0
.LVUS268:
	.uleb128 .LVU1589
	.uleb128 .LVU1597
	.uleb128 .LVU1597
	.uleb128 .LVU1604
	.uleb128 .LVU1604
	.uleb128 .LVU1611
	.uleb128 .LVU1611
	.uleb128 .LVU1618
	.uleb128 .LVU1618
	.uleb128 .LVU1625
	.uleb128 .LVU1625
	.uleb128 .LVU1632
	.uleb128 .LVU1632
	.uleb128 .LVU1639
	.uleb128 .LVU1639
	.uleb128 .LVU1646
	.uleb128 .LVU1646
	.uleb128 .LVU1653
	.uleb128 .LVU1653
	.uleb128 .LVU1660
	.uleb128 .LVU1660
	.uleb128 .LVU1667
	.uleb128 .LVU1667
	.uleb128 .LVU1674
	.uleb128 .LVU1674
	.uleb128 .LVU1681
	.uleb128 .LVU1681
	.uleb128 .LVU1688
	.uleb128 .LVU2581
	.uleb128 .LVU2587
	.uleb128 .LVU2587
	.uleb128 .LVU2588
	.uleb128 .LVU2592
	.uleb128 .LVU2593
	.uleb128 .LVU2597
	.uleb128 .LVU2598
	.uleb128 .LVU2603
	.uleb128 .LVU2604
	.uleb128 .LVU2608
	.uleb128 .LVU2609
	.uleb128 .LVU2613
	.uleb128 .LVU2614
	.uleb128 .LVU2618
	.uleb128 .LVU2619
	.uleb128 .LVU2619
	.uleb128 .LVU2620
	.uleb128 .LVU2652
	.uleb128 .LVU2653
	.uleb128 .LVU2653
	.uleb128 .LVU2654
.LLST268:
	.byte	0x6
	.quad	.LVL432
	.byte	0x4
	.uleb128 .LVL432-.LVL432
	.uleb128 .LVL433-.LVL432
	.uleb128 0x1
	.byte	0x50
	.byte	0x4
	.uleb128 .LVL433-.LVL432
	.uleb128 .LVL434-.LVL432
	.uleb128 0x1
	.byte	0x5f
	.byte	0x4
	.uleb128 .LVL434-.LVL432
	.uleb128 .LVL435-.LVL432
	.uleb128 0x1
	.byte	0x51
	.byte	0x4
	.uleb128 .LVL435-.LVL432
	.uleb128 .LVL436-.LVL432
	.uleb128 0x1
	.byte	0x55
	.byte	0x4
	.uleb128 .LVL436-.LVL432
	.uleb128 .LVL437-.LVL432
	.uleb128 0x1
	.byte	0x52
	.byte	0x4
	.uleb128 .LVL437-.LVL432
	.uleb128 .LVL438-.LVL432
	.uleb128 0x1
	.byte	0x58
	.byte	0x4
	.uleb128 .LVL438-.LVL432
	.uleb128 .LVL439-.LVL432
	.uleb128 0x1
	.byte	0x5e
	.byte	0x4
	.uleb128 .LVL439-.LVL432
	.uleb128 .LVL440-.LVL432
	.uleb128 0x1
	.byte	0x5a
	.byte	0x4
	.uleb128 .LVL440-.LVL432
	.uleb128 .LVL441-.LVL432
	.uleb128 0x1
	.byte	0x55
	.byte	0x4
	.uleb128 .LVL441-.LVL432
	.uleb128 .LVL442-.LVL432
	.uleb128 0x1
	.byte	0x5f
	.byte	0x4
	.uleb128 .LVL442-.LVL432
	.uleb128 .LVL443-.LVL432
	.uleb128 0x1
	.byte	0x51
	.byte	0x4
	.uleb128 .LVL443-.LVL432
	.uleb128 .LVL444-.LVL432
	.uleb128 0x1
	.byte	0x5e
	.byte	0x4
	.uleb128 .LVL444-.LVL432
	.uleb128 .LVL445-.LVL432
	.uleb128 0x1
	.byte	0x52
	.byte	0x4
	.uleb128 .LVL445-.LVL432
	.uleb128 .LVL446-.LVL432
	.uleb128 0x1
	.byte	0x58
	.byte	0x4
	.uleb128 .LVL612-.LVL432
	.uleb128 .LVL614-.LVL432
	.uleb128 0x2
	.byte	0x30
	.byte	0x9f
	.byte	0x4
	.uleb128 .LVL614-.LVL432
	.uleb128 .LVL614-.LVL432
	.uleb128 0x2
	.byte	0x31
	.byte	0x9f
	.byte	0x4
	.uleb128 .LVL615-.LVL432
	.uleb128 .LVL616-.LVL432
	.uleb128 0x3
	.byte	0x7f
	.sleb128 2
	.byte	0x9f
	.byte	0x4
	.uleb128 .LVL617-.LVL432
	.uleb128 .LVL618-.LVL432
	.uleb128 0x3
	.byte	0x7f
	.sleb128 2
	.byte	0x9f
	.byte	0x4
	.uleb128 .LVL620-.LVL432
	.uleb128 .LVL621-.LVL432
	.uleb128 0x3
	.byte	0x7f
	.sleb128 2
	.byte	0x9f
	.byte	0x4
	.uleb128 .LVL622-.LVL432
	.uleb128 .LVL623-.LVL432
	.uleb128 0x3
	.byte	0x7f
	.sleb128 2
	.byte	0x9f
	.byte	0x4
	.uleb128 .LVL624-.LVL432
	.uleb128 .LVL625-.LVL432
	.uleb128 0x3
	.byte	0x7f
	.sleb128 2
	.byte	0x9f
	.byte	0x4
	.uleb128 .LVL626-.LVL432
	.uleb128 .LVL627-.LVL432
	.uleb128 0x3
	.byte	0x7f
	.sleb128 2
	.byte	0x9f
	.byte	0x4
	.uleb128 .LVL627-.LVL432
	.uleb128 .LVL628-.LVL432
	.uleb128 0x3
	.byte	0x7f
	.sleb128 1
	.byte	0x9f
	.byte	0x4
	.uleb128 .LVL629-.LVL432
	.uleb128 .LVL630-.LVL432
	.uleb128 0x3
	.byte	0x7f
	.sleb128 9
	.byte	0x9f
	.byte	0x4
	.uleb128 .LVL630-.LVL432
	.uleb128 .LVL631-.LVL432
	.uleb128 0x3
	.byte	0x7f
	.sleb128 1
	.byte	0x9f
	.byte	0
.LVUS271:
	.uleb128 .LVU1734
	.uleb128 .LVU1736
	.uleb128 .LVU1736
	.uleb128 .LVU1739
	.uleb128 .LVU1739
	.uleb128 .LVU1742
.LLST271:
	.byte	0x6
	.quad	.LVL457
	.byte	0x4
	.uleb128 .LVL457-.LVL457
	.uleb128 .LVL458-.LVL457
	.uleb128 0x2
	.byte	0x30
	.byte	0x9f
	.byte	0x4
	.uleb128 .LVL458-.LVL457
	.uleb128 .LVL459-.LVL457
	.uleb128 0xf
	.byte	0x73
	.sleb128 0
	.byte	0x3
	.quad	fd
	.byte	0x1c
	.byte	0x32
	.byte	0x25
	.byte	0x9f
	.byte	0x4
	.uleb128 .LVL459-.LVL457
	.uleb128 .LVL461-.LVL457
	.uleb128 0xf
	.byte	0x73
	.sleb128 0
	.byte	0x3
	.quad	fd+4
	.byte	0x1c
	.byte	0x32
	.byte	0x25
	.byte	0x9f
	.byte	0
.LVUS273:
	.uleb128 .LVU1748
	.uleb128 .LVU1759
.LLST273:
	.byte	0x8
	.quad	.LVL462
	.uleb128 .LVL464-.LVL462
	.uleb128 0x1
	.byte	0x54
	.byte	0
.LVUS274:
	.uleb128 .LVU1748
	.uleb128 .LVU1751
.LLST274:
	.byte	0x8
	.quad	.LVL462
	.uleb128 .LVL463-.LVL462
	.uleb128 0x1
	.byte	0x58
	.byte	0
.LVUS275:
	.uleb128 .LVU1758
	.uleb128 .LVU1759
.LLST275:
	.byte	0x8
	.quad	.LVL464
	.uleb128 .LVL464-.LVL464
	.uleb128 0x1
	.byte	0x58
	.byte	0
.LVUS277:
	.uleb128 .LVU1761
	.uleb128 .LVU2149
	.uleb128 .LVU2417
	.uleb128 .LVU2579
	.uleb128 .LVU2743
	.uleb128 .LVU2980
.LLST277:
	.byte	0x6
	.quad	.LVL464
	.byte	0x4
	.uleb128 .LVL464-.LVL464
	.uleb128 .LVL503-.LVL464
	.uleb128 0x4
	.byte	0x76
	.sleb128 -1332
	.byte	0x9f
	.byte	0x4
	.uleb128 .LVL589-.LVL464
	.uleb128 .LVL611-.LVL464
	.uleb128 0x4
	.byte	0x76
	.sleb128 -1332
	.byte	0x9f
	.byte	0x4
	.uleb128 .LVL655-.LVL464
	.uleb128 .LVL708-.LVL464
	.uleb128 0x4
	.byte	0x76
	.sleb128 -1332
	.byte	0x9f
	.byte	0
.LVUS278:
	.uleb128 .LVU1761
	.uleb128 .LVU2141
	.uleb128 .LVU2417
	.uleb128 .LVU2579
	.uleb128 .LVU2743
	.uleb128 .LVU2980
.LLST278:
	.byte	0x6
	.quad	.LVL464
	.byte	0x4
	.uleb128 .LVL464-.LVL464
	.uleb128 .LVL502-.LVL464
	.uleb128 0x1
	.byte	0x5e
	.byte	0x4
	.uleb128 .LVL589-.LVL464
	.uleb128 .LVL611-.LVL464
	.uleb128 0x1
	.byte	0x5e
	.byte	0x4
	.uleb128 .LVL655-.LVL464
	.uleb128 .LVL708-.LVL464
	.uleb128 0x1
	.byte	0x5e
	.byte	0
.LVUS279:
	.uleb128 .LVU1761
	.uleb128 .LVU2149
	.uleb128 .LVU2417
	.uleb128 .LVU2579
	.uleb128 .LVU2743
	.uleb128 .LVU2980
.LLST279:
	.byte	0x6
	.quad	.LVL464
	.byte	0x4
	.uleb128 .LVL464-.LVL464
	.uleb128 .LVL503-.LVL464
	.uleb128 0x6
	.byte	0xa0
	.long	.Ldebug_info0+4659
	.sleb128 0
	.byte	0x4
	.uleb128 .LVL589-.LVL464
	.uleb128 .LVL611-.LVL464
	.uleb128 0x6
	.byte	0xa0
	.long	.Ldebug_info0+4659
	.sleb128 0
	.byte	0x4
	.uleb128 .LVL655-.LVL464
	.uleb128 .LVL708-.LVL464
	.uleb128 0x6
	.byte	0xa0
	.long	.Ldebug_info0+4659
	.sleb128 0
	.byte	0
.LVUS280:
	.uleb128 .LVU1761
	.uleb128 .LVU1781
	.uleb128 .LVU1781
	.uleb128 .LVU1782
	.uleb128 .LVU1782
	.uleb128 .LVU1783
	.uleb128 .LVU1783
	.uleb128 .LVU1937
	.uleb128 .LVU2417
	.uleb128 .LVU2429
	.uleb128 .LVU2445
	.uleb128 .LVU2579
	.uleb128 .LVU2743
	.uleb128 .LVU2857
.LLST280:
	.byte	0x6
	.quad	.LVL464
	.byte	0x4
	.uleb128 .LVL464-.LVL464
	.uleb128 .LVL468-.LVL464
	.uleb128 0x1
	.byte	0x5d
	.byte	0x4
	.uleb128 .LVL468-.LVL464
	.uleb128 .LVL469-.LVL464
	.uleb128 0x1
	.byte	0x50
	.byte	0x4
	.uleb128 .LVL469-.LVL464
	.uleb128 .LVL470-.LVL464
	.uleb128 0x1
	.byte	0x5d
	.byte	0x4
	.uleb128 .LVL470-.LVL464
	.uleb128 .LVL478-1-.LVL464
	.uleb128 0x1
	.byte	0x50
	.byte	0x4
	.uleb128 .LVL589-.LVL464
	.uleb128 .LVL592-1-.LVL464
	.uleb128 0x1
	.byte	0x50
	.byte	0x4
	.uleb128 .LVL595-.LVL464
	.uleb128 .LVL611-.LVL464
	.uleb128 0x1
	.byte	0x50
	.byte	0x4
	.uleb128 .LVL655-.LVL464
	.uleb128 .LVL684-.LVL464
	.uleb128 0x1
	.byte	0x5d
	.byte	0
.LVUS281:
	.uleb128 .LVU1761
	.uleb128 .LVU1917
	.uleb128 .LVU2417
	.uleb128 .LVU2422
	.uleb128 .LVU2445
	.uleb128 .LVU2579
	.uleb128 .LVU2743
	.uleb128 .LVU2855
	.uleb128 .LVU2855
	.uleb128 .LVU2856
	.uleb128 .LVU2856
	.uleb128 .LVU2857
.LLST281:
	.byte	0x6
	.quad	.LVL464
	.byte	0x4
	.uleb128 .LVL464-.LVL464
	.uleb128 .LVL475-.LVL464
	.uleb128 0x1
	.byte	0x5c
	.byte	0x4
	.uleb128 .LVL589-.LVL464
	.uleb128 .LVL590-.LVL464
	.uleb128 0x1
	.byte	0x5c
	.byte	0x4
	.uleb128 .LVL595-.LVL464
	.uleb128 .LVL611-.LVL464
	.uleb128 0x1
	.byte	0x5c
	.byte	0x4
	.uleb128 .LVL655-.LVL464
	.uleb128 .LVL682-.LVL464
	.uleb128 0x1
	.byte	0x5c
	.byte	0x4
	.uleb128 .LVL682-.LVL464
	.uleb128 .LVL683-.LVL464
	.uleb128 0x1
	.byte	0x50
	.byte	0x4
	.uleb128 .LVL683-.LVL464
	.uleb128 .LVL684-.LVL464
	.uleb128 0x1
	.byte	0x5c
	.byte	0
.LVUS282:
	.uleb128 .LVU1766
	.uleb128 .LVU2089
	.uleb128 .LVU2417
	.uleb128 .LVU2579
	.uleb128 .LVU2743
	.uleb128 .LVU2980
.LLST282:
	.byte	0x6
	.quad	.LVL465
	.byte	0x4
	.uleb128 .LVL465-.LVL465
	.uleb128 .LVL486-.LVL465
	.uleb128 0x1
	.byte	0x53
	.byte	0x4
	.uleb128 .LVL589-.LVL465
	.uleb128 .LVL611-.LVL465
	.uleb128 0x1
	.byte	0x53
	.byte	0x4
	.uleb128 .LVL655-.LVL465
	.uleb128 .LVL708-.LVL465
	.uleb128 0x1
	.byte	0x53
	.byte	0
.LVUS283:
	.uleb128 .LVU1778
	.uleb128 .LVU1783
.LLST283:
	.byte	0x8
	.quad	.LVL467
	.uleb128 .LVL470-.LVL467
	.uleb128 0x3
	.byte	0x76
	.sleb128 -1433
	.byte	0
.LVUS284:
	.uleb128 .LVU1787
	.uleb128 .LVU1937
	.uleb128 .LVU1937
	.uleb128 .LVU1944
	.uleb128 .LVU2417
	.uleb128 .LVU2429
	.uleb128 .LVU2429
	.uleb128 .LVU2444
	.uleb128 .LVU2445
	.uleb128 .LVU2579
.LLST284:
	.byte	0x6
	.quad	.LVL472
	.byte	0x4
	.uleb128 .LVL472-.LVL472
	.uleb128 .LVL478-1-.LVL472
	.uleb128 0x1
	.byte	0x52
	.byte	0x4
	.uleb128 .LVL478-1-.LVL472
	.uleb128 .LVL481-.LVL472
	.uleb128 0x8
	.byte	0x7d
	.sleb128 0
	.byte	0x76
	.sleb128 -1392
	.byte	0x6
	.byte	0x22
	.byte	0x9f
	.byte	0x4
	.uleb128 .LVL589-.LVL472
	.uleb128 .LVL592-1-.LVL472
	.uleb128 0x1
	.byte	0x52
	.byte	0x4
	.uleb128 .LVL592-1-.LVL472
	.uleb128 .LVL594-.LVL472
	.uleb128 0x8
	.byte	0x7d
	.sleb128 0
	.byte	0x76
	.sleb128 -1392
	.byte	0x6
	.byte	0x22
	.byte	0x9f
	.byte	0x4
	.uleb128 .LVL595-.LVL472
	.uleb128 .LVL611-.LVL472
	.uleb128 0x1
	.byte	0x52
	.byte	0
.LVUS285:
	.uleb128 .LVU1792
	.uleb128 .LVU1794
	.uleb128 .LVU1915
	.uleb128 .LVU1923
	.uleb128 .LVU1923
	.uleb128 .LVU1924
	.uleb128 .LVU1942
	.uleb128 .LVU1947
	.uleb128 .LVU2076
	.uleb128 .LVU2078
	.uleb128 .LVU2078
	.uleb128 .LVU2084
	.uleb128 .LVU2084
	.uleb128 .LVU2085
	.uleb128 .LVU2085
	.uleb128 .LVU2089
	.uleb128 .LVU2092
	.uleb128 .LVU2097
	.uleb128 .LVU2097
	.uleb128 .LVU2099
	.uleb128 .LVU2099
	.uleb128 .LVU2103
	.uleb128 .LVU2103
	.uleb128 .LVU2105
	.uleb128 .LVU2105
	.uleb128 .LVU2109
	.uleb128 .LVU2109
	.uleb128 .LVU2111
	.uleb128 .LVU2111
	.uleb128 .LVU2115
	.uleb128 .LVU2115
	.uleb128 .LVU2117
	.uleb128 .LVU2117
	.uleb128 .LVU2121
	.uleb128 .LVU2121
	.uleb128 .LVU2123
	.uleb128 .LVU2123
	.uleb128 .LVU2127
	.uleb128 .LVU2127
	.uleb128 .LVU2129
	.uleb128 .LVU2129
	.uleb128 .LVU2133
	.uleb128 .LVU2133
	.uleb128 .LVU2136
	.uleb128 .LVU2136
	.uleb128 .LVU2141
	.uleb128 .LVU2417
	.uleb128 .LVU2422
	.uleb128 .LVU2431
	.uleb128 .LVU2440
	.uleb128 .LVU2440
	.uleb128 .LVU2441
	.uleb128 .LVU2441
	.uleb128 .LVU2455
	.uleb128 .LVU2455
	.uleb128 .LVU2456
	.uleb128 .LVU2464
	.uleb128 .LVU2465
	.uleb128 .LVU2473
	.uleb128 .LVU2474
	.uleb128 .LVU2482
	.uleb128 .LVU2483
	.uleb128 .LVU2491
	.uleb128 .LVU2492
	.uleb128 .LVU2500
	.uleb128 .LVU2501
	.uleb128 .LVU2509
	.uleb128 .LVU2510
	.uleb128 .LVU2510
	.uleb128 .LVU2511
	.uleb128 .LVU2578
	.uleb128 .LVU2579
	.uleb128 .LVU2857
	.uleb128 .LVU2866
	.uleb128 .LVU2866
	.uleb128 .LVU2867
	.uleb128 .LVU2867
	.uleb128 .LVU2874
	.uleb128 .LVU2874
	.uleb128 .LVU2875
	.uleb128 .LVU2875
	.uleb128 .LVU2881
	.uleb128 .LVU2881
	.uleb128 .LVU2882
	.uleb128 .LVU2882
	.uleb128 .LVU2888
	.uleb128 .LVU2888
	.uleb128 .LVU2889
	.uleb128 .LVU2889
	.uleb128 .LVU2895
	.uleb128 .LVU2895
	.uleb128 .LVU2896
	.uleb128 .LVU2896
	.uleb128 .LVU2902
	.uleb128 .LVU2902
	.uleb128 .LVU2903
	.uleb128 .LVU2903
	.uleb128 .LVU2909
	.uleb128 .LVU2909
	.uleb128 .LVU2910
	.uleb128 .LVU2910
	.uleb128 .LVU2916
	.uleb128 .LVU2916
	.uleb128 .LVU2917
	.uleb128 .LVU2917
	.uleb128 .LVU2925
	.uleb128 .LVU2925
	.uleb128 .LVU2926
	.uleb128 .LVU2926
	.uleb128 .LVU2936
	.uleb128 .LVU2936
	.uleb128 .LVU2937
	.uleb128 .LVU2937
	.uleb128 .LVU2943
	.uleb128 .LVU2943
	.uleb128 .LVU2944
	.uleb128 .LVU2944
	.uleb128 .LVU2950
	.uleb128 .LVU2950
	.uleb128 .LVU2951
	.uleb128 .LVU2951
	.uleb128 .LVU2958
	.uleb128 .LVU2958
	.uleb128 .LVU2959
	.uleb128 .LVU2959
	.uleb128 .LVU2965
	.uleb128 .LVU2965
	.uleb128 .LVU2966
	.uleb128 .LVU2966
	.uleb128 .LVU2972
	.uleb128 .LVU2972
	.uleb128 .LVU2973
	.uleb128 .LVU2973
	.uleb128 .LVU2979
	.uleb128 .LVU2979
	.uleb128 .LVU2980
.LLST285:
	.byte	0x6
	.quad	.LVL472
	.byte	0x4
	.uleb128 .LVL472-.LVL472
	.uleb128 .LVL473-.LVL472
	.uleb128 0x2
	.byte	0x30
	.byte	0x9f
	.byte	0x4
	.uleb128 .LVL474-.LVL472
	.uleb128 .LVL476-.LVL472
	.uleb128 0x1
	.byte	0x58
	.byte	0x4
	.uleb128 .LVL476-.LVL472
	.uleb128 .LVL476-.LVL472
	.uleb128 0x3
	.byte	0x78
	.sleb128 1
	.byte	0x9f
	.byte	0x4
	.uleb128 .LVL480-.LVL472
	.uleb128 .LVL482-.LVL472
	.uleb128 0x2
	.byte	0x30
	.byte	0x9f
	.byte	0x4
	.uleb128 .LVL483-.LVL472
	.uleb128 .LVL484-.LVL472
	.uleb128 0x1
	.byte	0x5a
	.byte	0x4
	.uleb128 .LVL484-.LVL472
	.uleb128 .LVL485-.LVL472
	.uleb128 0x13
	.byte	0x7e
	.sleb128 0
	.byte	0x31
	.byte	0x7e
	.sleb128 0
	.byte	0x8
	.byte	0x20
	.byte	0x24
	.byte	0x30
	.byte	0x2b
	.byte	0x28
	.value	0x1
	.byte	0x16
	.byte	0x13
	.byte	0x9
	.byte	0xfe
	.byte	0x1a
	.byte	0x9f
	.byte	0x4
	.uleb128 .LVL485-.LVL472
	.uleb128 .LVL485-.LVL472
	.uleb128 0x15
	.byte	0x7e
	.sleb128 0
	.byte	0x31
	.byte	0x7e
	.sleb128 0
	.byte	0x8
	.byte	0x20
	.byte	0x24
	.byte	0x30
	.byte	0x2b
	.byte	0x28
	.value	0x1
	.byte	0x16
	.byte	0x13
	.byte	0x9
	.byte	0xfe
	.byte	0x1a
	.byte	0x23
	.uleb128 0x1
	.byte	0x9f
	.byte	0x4
	.uleb128 .LVL485-.LVL472
	.uleb128 .LVL486-.LVL472
	.uleb128 0x2
	.byte	0x30
	.byte	0x9f
	.byte	0x4
	.uleb128 .LVL487-.LVL472
	.uleb128 .LVL488-.LVL472
	.uleb128 0x1
	.byte	0x53
	.byte	0x4
	.uleb128 .LVL488-.LVL472
	.uleb128 .LVL489-.LVL472
	.uleb128 0x3
	.byte	0x73
	.sleb128 1
	.byte	0x9f
	.byte	0x4
	.uleb128 .LVL489-.LVL472
	.uleb128 .LVL490-.LVL472
	.uleb128 0x1
	.byte	0x51
	.byte	0x4
	.uleb128 .LVL490-.LVL472
	.uleb128 .LVL491-.LVL472
	.uleb128 0x3
	.byte	0x73
	.sleb128 2
	.byte	0x9f
	.byte	0x4
	.uleb128 .LVL491-.LVL472
	.uleb128 .LVL492-.LVL472
	.uleb128 0x1
	.byte	0x51
	.byte	0x4
	.uleb128 .LVL492-.LVL472
	.uleb128 .LVL493-.LVL472
	.uleb128 0x3
	.byte	0x73
	.sleb128 3
	.byte	0x9f
	.byte	0x4
	.uleb128 .LVL493-.LVL472
	.uleb128 .LVL494-.LVL472
	.uleb128 0x1
	.byte	0x51
	.byte	0x4
	.uleb128 .LVL494-.LVL472
	.uleb128 .LVL495-.LVL472
	.uleb128 0x3
	.byte	0x73
	.sleb128 4
	.byte	0x9f
	.byte	0x4
	.uleb128 .LVL495-.LVL472
	.uleb128 .LVL496-.LVL472
	.uleb128 0x1
	.byte	0x51
	.byte	0x4
	.uleb128 .LVL496-.LVL472
	.uleb128 .LVL497-.LVL472
	.uleb128 0x3
	.byte	0x73
	.sleb128 5
	.byte	0x9f
	.byte	0x4
	.uleb128 .LVL497-.LVL472
	.uleb128 .LVL498-.LVL472
	.uleb128 0x1
	.byte	0x51
	.byte	0x4
	.uleb128 .LVL498-.LVL472
	.uleb128 .LVL499-.LVL472
	.uleb128 0x3
	.byte	0x73
	.sleb128 6
	.byte	0x9f
	.byte	0x4
	.uleb128 .LVL499-.LVL472
	.uleb128 .LVL500-.LVL472
	.uleb128 0x1
	.byte	0x51
	.byte	0x4
	.uleb128 .LVL500-.LVL472
	.uleb128 .LVL501-.LVL472
	.uleb128 0x3
	.byte	0x73
	.sleb128 7
	.byte	0x9f
	.byte	0x4
	.uleb128 .LVL501-.LVL472
	.uleb128 .LVL502-.LVL472
	.uleb128 0x1
	.byte	0x51
	.byte	0x4
	.uleb128 .LVL589-.LVL472
	.uleb128 .LVL590-.LVL472
	.uleb128 0x2
	.byte	0x30
	.byte	0x9f
	.byte	0x4
	.uleb128 .LVL592-.LVL472
	.uleb128 .LVL593-.LVL472
	.uleb128 0x2
	.byte	0x30
	.byte	0x9f
	.byte	0x4
	.uleb128 .LVL593-.LVL472
	.uleb128 .LVL593-.LVL472
	.uleb128 0x2
	.byte	0x31
	.byte	0x9f
	.byte	0x4
	.uleb128 .LVL593-.LVL472
	.uleb128 .LVL596-.LVL472
	.uleb128 0x2
	.byte	0x30
	.byte	0x9f
	.byte	0x4
	.uleb128 .LVL596-.LVL472
	.uleb128 .LVL596-.LVL472
	.uleb128 0x2
	.byte	0x31
	.byte	0x9f
	.byte	0x4
	.uleb128 .LVL597-.LVL472
	.uleb128 .LVL598-.LVL472
	.uleb128 0x3
	.byte	0x74
	.sleb128 2
	.byte	0x9f
	.byte	0x4
	.uleb128 .LVL599-.LVL472
	.uleb128 .LVL600-.LVL472
	.uleb128 0x3
	.byte	0x74
	.sleb128 2
	.byte	0x9f
	.byte	0x4
	.uleb128 .LVL601-.LVL472
	.uleb128 .LVL602-.LVL472
	.uleb128 0x3
	.byte	0x74
	.sleb128 2
	.byte	0x9f
	.byte	0x4
	.uleb128 .LVL603-.LVL472
	.uleb128 .LVL604-.LVL472
	.uleb128 0x3
	.byte	0x74
	.sleb128 2
	.byte	0x9f
	.byte	0x4
	.uleb128 .LVL605-.LVL472
	.uleb128 .LVL606-.LVL472
	.uleb128 0x3
	.byte	0x74
	.sleb128 2
	.byte	0x9f
	.byte	0x4
	.uleb128 .LVL607-.LVL472
	.uleb128 .LVL608-.LVL472
	.uleb128 0x3
	.byte	0x74
	.sleb128 2
	.byte	0x9f
	.byte	0x4
	.uleb128 .LVL608-.LVL472
	.uleb128 .LVL609-.LVL472
	.uleb128 0x3
	.byte	0x74
	.sleb128 1
	.byte	0x9f
	.byte	0x4
	.uleb128 .LVL610-.LVL472
	.uleb128 .LVL611-.LVL472
	.uleb128 0x3
	.byte	0x74
	.sleb128 1
	.byte	0x9f
	.byte	0x4
	.uleb128 .LVL684-.LVL472
	.uleb128 .LVL685-.LVL472
	.uleb128 0x2
	.byte	0x30
	.byte	0x9f
	.byte	0x4
	.uleb128 .LVL685-.LVL472
	.uleb128 .LVL686-.LVL472
	.uleb128 0x2
	.byte	0x31
	.byte	0x9f
	.byte	0x4
	.uleb128 .LVL686-.LVL472
	.uleb128 .LVL687-.LVL472
	.uleb128 0x2
	.byte	0x30
	.byte	0x9f
	.byte	0x4
	.uleb128 .LVL687-.LVL472
	.uleb128 .LVL687-.LVL472
	.uleb128 0x2
	.byte	0x31
	.byte	0x9f
	.byte	0x4
	.uleb128 .LVL687-.LVL472
	.uleb128 .LVL688-.LVL472
	.uleb128 0x2
	.byte	0x30
	.byte	0x9f
	.byte	0x4
	.uleb128 .LVL688-.LVL472
	.uleb128 .LVL689-.LVL472
	.uleb128 0x2
	.byte	0x31
	.byte	0x9f
	.byte	0x4
	.uleb128 .LVL689-.LVL472
	.uleb128 .LVL690-.LVL472
	.uleb128 0x2
	.byte	0x30
	.byte	0x9f
	.byte	0x4
	.uleb128 .LVL690-.LVL472
	.uleb128 .LVL691-.LVL472
	.uleb128 0x2
	.byte	0x31
	.byte	0x9f
	.byte	0x4
	.uleb128 .LVL691-.LVL472
	.uleb128 .LVL692-.LVL472
	.uleb128 0x2
	.byte	0x30
	.byte	0x9f
	.byte	0x4
	.uleb128 .LVL692-.LVL472
	.uleb128 .LVL693-.LVL472
	.uleb128 0x2
	.byte	0x31
	.byte	0x9f
	.byte	0x4
	.uleb128 .LVL693-.LVL472
	.uleb128 .LVL694-.LVL472
	.uleb128 0x2
	.byte	0x30
	.byte	0x9f
	.byte	0x4
	.uleb128 .LVL694-.LVL472
	.uleb128 .LVL695-.LVL472
	.uleb128 0x2
	.byte	0x31
	.byte	0x9f
	.byte	0x4
	.uleb128 .LVL695-.LVL472
	.uleb128 .LVL696-.LVL472
	.uleb128 0x2
	.byte	0x30
	.byte	0x9f
	.byte	0x4
	.uleb128 .LVL696-.LVL472
	.uleb128 .LVL697-.LVL472
	.uleb128 0x2
	.byte	0x31
	.byte	0x9f
	.byte	0x4
	.uleb128 .LVL697-.LVL472
	.uleb128 .LVL698-.LVL472
	.uleb128 0x2
	.byte	0x30
	.byte	0x9f
	.byte	0x4
	.uleb128 .LVL698-.LVL472
	.uleb128 .LVL699-.LVL472
	.uleb128 0x2
	.byte	0x31
	.byte	0x9f
	.byte	0x4
	.uleb128 .LVL699-.LVL472
	.uleb128 .LVL700-.LVL472
	.uleb128 0x2
	.byte	0x30
	.byte	0x9f
	.byte	0x4
	.uleb128 .LVL700-.LVL472
	.uleb128 .LVL700-.LVL472
	.uleb128 0x2
	.byte	0x31
	.byte	0x9f
	.byte	0x4
	.uleb128 .LVL700-.LVL472
	.uleb128 .LVL701-.LVL472
	.uleb128 0x2
	.byte	0x30
	.byte	0x9f
	.byte	0x4
	.uleb128 .LVL701-.LVL472
	.uleb128 .LVL701-.LVL472
	.uleb128 0x2
	.byte	0x31
	.byte	0x9f
	.byte	0x4
	.uleb128 .LVL701-.LVL472
	.uleb128 .LVL702-.LVL472
	.uleb128 0x2
	.byte	0x30
	.byte	0x9f
	.byte	0x4
	.uleb128 .LVL702-.LVL472
	.uleb128 .LVL702-.LVL472
	.uleb128 0x2
	.byte	0x31
	.byte	0x9f
	.byte	0x4
	.uleb128 .LVL702-.LVL472
	.uleb128 .LVL703-.LVL472
	.uleb128 0x2
	.byte	0x30
	.byte	0x9f
	.byte	0x4
	.uleb128 .LVL703-.LVL472
	.uleb128 .LVL703-.LVL472
	.uleb128 0x2
	.byte	0x31
	.byte	0x9f
	.byte	0x4
	.uleb128 .LVL703-.LVL472
	.uleb128 .LVL704-.LVL472
	.uleb128 0x2
	.byte	0x30
	.byte	0x9f
	.byte	0x4
	.uleb128 .LVL704-.LVL472
	.uleb128 .LVL704-.LVL472
	.uleb128 0x2
	.byte	0x31
	.byte	0x9f
	.byte	0x4
	.uleb128 .LVL704-.LVL472
	.uleb128 .LVL705-.LVL472
	.uleb128 0x2
	.byte	0x30
	.byte	0x9f
	.byte	0x4
	.uleb128 .LVL705-.LVL472
	.uleb128 .LVL705-.LVL472
	.uleb128 0x2
	.byte	0x31
	.byte	0x9f
	.byte	0x4
	.uleb128 .LVL705-.LVL472
	.uleb128 .LVL706-.LVL472
	.uleb128 0x2
	.byte	0x30
	.byte	0x9f
	.byte	0x4
	.uleb128 .LVL706-.LVL472
	.uleb128 .LVL706-.LVL472
	.uleb128 0x2
	.byte	0x31
	.byte	0x9f
	.byte	0x4
	.uleb128 .LVL706-.LVL472
	.uleb128 .LVL707-.LVL472
	.uleb128 0x2
	.byte	0x30
	.byte	0x9f
	.byte	0x4
	.uleb128 .LVL707-.LVL472
	.uleb128 .LVL708-.LVL472
	.uleb128 0x2
	.byte	0x31
	.byte	0x9f
	.byte	0
.LVUS287:
	.uleb128 .LVU1767
	.uleb128 .LVU1778
	.uleb128 .LVU2743
	.uleb128 .LVU2857
.LLST287:
	.byte	0x6
	.quad	.LVL465
	.byte	0x4
	.uleb128 .LVL465-.LVL465
	.uleb128 .LVL467-.LVL465
	.uleb128 0x1
	.byte	0x51
	.byte	0x4
	.uleb128 .LVL655-.LVL465
	.uleb128 .LVL684-.LVL465
	.uleb128 0x1
	.byte	0x51
	.byte	0
.LVUS288:
	.uleb128 .LVU1767
	.uleb128 .LVU1778
	.uleb128 .LVU2743
	.uleb128 .LVU2857
.LLST288:
	.byte	0x6
	.quad	.LVL465
	.byte	0x4
	.uleb128 .LVL465-.LVL465
	.uleb128 .LVL467-.LVL465
	.uleb128 0x1
	.byte	0x5d
	.byte	0x4
	.uleb128 .LVL655-.LVL465
	.uleb128 .LVL684-.LVL465
	.uleb128 0x1
	.byte	0x5d
	.byte	0
.LVUS289:
	.uleb128 .LVU1767
	.uleb128 .LVU1778
	.uleb128 .LVU2743
	.uleb128 .LVU2855
	.uleb128 .LVU2855
	.uleb128 .LVU2856
	.uleb128 .LVU2856
	.uleb128 .LVU2857
.LLST289:
	.byte	0x6
	.quad	.LVL465
	.byte	0x4
	.uleb128 .LVL465-.LVL465
	.uleb128 .LVL467-.LVL465
	.uleb128 0x1
	.byte	0x5c
	.byte	0x4
	.uleb128 .LVL655-.LVL465
	.uleb128 .LVL682-.LVL465
	.uleb128 0x1
	.byte	0x5c
	.byte	0x4
	.uleb128 .LVL682-.LVL465
	.uleb128 .LVL683-.LVL465
	.uleb128 0x1
	.byte	0x50
	.byte	0x4
	.uleb128 .LVL683-.LVL465
	.uleb128 .LVL684-.LVL465
	.uleb128 0x1
	.byte	0x5c
	.byte	0
.LVUS290:
	.uleb128 .LVU1769
	.uleb128 .LVU1777
	.uleb128 .LVU1777
	.uleb128 .LVU1778
	.uleb128 .LVU2743
	.uleb128 .LVU2744
	.uleb128 .LVU2744
	.uleb128 .LVU2752
	.uleb128 .LVU2752
	.uleb128 .LVU2753
	.uleb128 .LVU2753
	.uleb128 .LVU2759
	.uleb128 .LVU2759
	.uleb128 .LVU2760
	.uleb128 .LVU2760
	.uleb128 .LVU2766
	.uleb128 .LVU2766
	.uleb128 .LVU2767
	.uleb128 .LVU2767
	.uleb128 .LVU2773
	.uleb128 .LVU2773
	.uleb128 .LVU2774
	.uleb128 .LVU2774
	.uleb128 .LVU2780
	.uleb128 .LVU2780
	.uleb128 .LVU2781
	.uleb128 .LVU2781
	.uleb128 .LVU2787
	.uleb128 .LVU2787
	.uleb128 .LVU2788
	.uleb128 .LVU2788
	.uleb128 .LVU2794
	.uleb128 .LVU2794
	.uleb128 .LVU2795
	.uleb128 .LVU2795
	.uleb128 .LVU2801
	.uleb128 .LVU2801
	.uleb128 .LVU2804
	.uleb128 .LVU2804
	.uleb128 .LVU2810
	.uleb128 .LVU2810
	.uleb128 .LVU2811
	.uleb128 .LVU2811
	.uleb128 .LVU2817
	.uleb128 .LVU2817
	.uleb128 .LVU2818
	.uleb128 .LVU2818
	.uleb128 .LVU2824
	.uleb128 .LVU2824
	.uleb128 .LVU2825
	.uleb128 .LVU2825
	.uleb128 .LVU2831
	.uleb128 .LVU2831
	.uleb128 .LVU2832
	.uleb128 .LVU2832
	.uleb128 .LVU2838
	.uleb128 .LVU2838
	.uleb128 .LVU2839
	.uleb128 .LVU2839
	.uleb128 .LVU2845
	.uleb128 .LVU2845
	.uleb128 .LVU2846
	.uleb128 .LVU2846
	.uleb128 .LVU2852
	.uleb128 .LVU2852
	.uleb128 .LVU2853
.LLST290:
	.byte	0x6
	.quad	.LVL465
	.byte	0x4
	.uleb128 .LVL465-.LVL465
	.uleb128 .LVL466-.LVL465
	.uleb128 0x2
	.byte	0x30
	.byte	0x9f
	.byte	0x4
	.uleb128 .LVL466-.LVL465
	.uleb128 .LVL467-.LVL465
	.uleb128 0x2
	.byte	0x31
	.byte	0x9f
	.byte	0x4
	.uleb128 .LVL655-.LVL465
	.uleb128 .LVL656-.LVL465
	.uleb128 0x2
	.byte	0x31
	.byte	0x9f
	.byte	0x4
	.uleb128 .LVL656-.LVL465
	.uleb128 .LVL658-.LVL465
	.uleb128 0x2
	.byte	0x30
	.byte	0x9f
	.byte	0x4
	.uleb128 .LVL658-.LVL465
	.uleb128 .LVL659-.LVL465
	.uleb128 0x2
	.byte	0x31
	.byte	0x9f
	.byte	0x4
	.uleb128 .LVL659-.LVL465
	.uleb128 .LVL660-.LVL465
	.uleb128 0x2
	.byte	0x30
	.byte	0x9f
	.byte	0x4
	.uleb128 .LVL660-.LVL465
	.uleb128 .LVL661-.LVL465
	.uleb128 0x2
	.byte	0x31
	.byte	0x9f
	.byte	0x4
	.uleb128 .LVL661-.LVL465
	.uleb128 .LVL662-.LVL465
	.uleb128 0x2
	.byte	0x30
	.byte	0x9f
	.byte	0x4
	.uleb128 .LVL662-.LVL465
	.uleb128 .LVL663-.LVL465
	.uleb128 0x2
	.byte	0x31
	.byte	0x9f
	.byte	0x4
	.uleb128 .LVL663-.LVL465
	.uleb128 .LVL664-.LVL465
	.uleb128 0x2
	.byte	0x30
	.byte	0x9f
	.byte	0x4
	.uleb128 .LVL664-.LVL465
	.uleb128 .LVL665-.LVL465
	.uleb128 0x2
	.byte	0x31
	.byte	0x9f
	.byte	0x4
	.uleb128 .LVL665-.LVL465
	.uleb128 .LVL666-.LVL465
	.uleb128 0x2
	.byte	0x30
	.byte	0x9f
	.byte	0x4
	.uleb128 .LVL666-.LVL465
	.uleb128 .LVL667-.LVL465
	.uleb128 0x2
	.byte	0x31
	.byte	0x9f
	.byte	0x4
	.uleb128 .LVL667-.LVL465
	.uleb128 .LVL668-.LVL465
	.uleb128 0x2
	.byte	0x30
	.byte	0x9f
	.byte	0x4
	.uleb128 .LVL668-.LVL465
	.uleb128 .LVL669-.LVL465
	.uleb128 0x2
	.byte	0x31
	.byte	0x9f
	.byte	0x4
	.uleb128 .LVL669-.LVL465
	.uleb128 .LVL670-.LVL465
	.uleb128 0x2
	.byte	0x30
	.byte	0x9f
	.byte	0x4
	.uleb128 .LVL670-.LVL465
	.uleb128 .LVL671-.LVL465
	.uleb128 0x2
	.byte	0x31
	.byte	0x9f
	.byte	0x4
	.uleb128 .LVL671-.LVL465
	.uleb128 .LVL672-.LVL465
	.uleb128 0x2
	.byte	0x30
	.byte	0x9f
	.byte	0x4
	.uleb128 .LVL672-.LVL465
	.uleb128 .LVL673-.LVL465
	.uleb128 0x2
	.byte	0x31
	.byte	0x9f
	.byte	0x4
	.uleb128 .LVL673-.LVL465
	.uleb128 .LVL674-.LVL465
	.uleb128 0x2
	.byte	0x30
	.byte	0x9f
	.byte	0x4
	.uleb128 .LVL674-.LVL465
	.uleb128 .LVL674-.LVL465
	.uleb128 0x2
	.byte	0x31
	.byte	0x9f
	.byte	0x4
	.uleb128 .LVL674-.LVL465
	.uleb128 .LVL675-.LVL465
	.uleb128 0x2
	.byte	0x30
	.byte	0x9f
	.byte	0x4
	.uleb128 .LVL675-.LVL465
	.uleb128 .LVL675-.LVL465
	.uleb128 0x2
	.byte	0x31
	.byte	0x9f
	.byte	0x4
	.uleb128 .LVL675-.LVL465
	.uleb128 .LVL676-.LVL465
	.uleb128 0x2
	.byte	0x30
	.byte	0x9f
	.byte	0x4
	.uleb128 .LVL676-.LVL465
	.uleb128 .LVL676-.LVL465
	.uleb128 0x2
	.byte	0x31
	.byte	0x9f
	.byte	0x4
	.uleb128 .LVL676-.LVL465
	.uleb128 .LVL677-.LVL465
	.uleb128 0x2
	.byte	0x30
	.byte	0x9f
	.byte	0x4
	.uleb128 .LVL677-.LVL465
	.uleb128 .LVL677-.LVL465
	.uleb128 0x2
	.byte	0x31
	.byte	0x9f
	.byte	0x4
	.uleb128 .LVL677-.LVL465
	.uleb128 .LVL678-.LVL465
	.uleb128 0x2
	.byte	0x30
	.byte	0x9f
	.byte	0x4
	.uleb128 .LVL678-.LVL465
	.uleb128 .LVL678-.LVL465
	.uleb128 0x2
	.byte	0x31
	.byte	0x9f
	.byte	0x4
	.uleb128 .LVL678-.LVL465
	.uleb128 .LVL679-.LVL465
	.uleb128 0x2
	.byte	0x30
	.byte	0x9f
	.byte	0x4
	.uleb128 .LVL679-.LVL465
	.uleb128 .LVL679-.LVL465
	.uleb128 0x2
	.byte	0x31
	.byte	0x9f
	.byte	0x4
	.uleb128 .LVL679-.LVL465
	.uleb128 .LVL680-.LVL465
	.uleb128 0x2
	.byte	0x30
	.byte	0x9f
	.byte	0x4
	.uleb128 .LVL680-.LVL465
	.uleb128 .LVL681-.LVL465
	.uleb128 0x2
	.byte	0x31
	.byte	0x9f
	.byte	0
.LVUS292:
	.uleb128 .LVU1925
	.uleb128 .LVU1942
	.uleb128 .LVU2419
	.uleb128 .LVU2431
.LLST292:
	.byte	0x6
	.quad	.LVL476
	.byte	0x4
	.uleb128 .LVL476-.LVL476
	.uleb128 .LVL480-.LVL476
	.uleb128 0x1
	.byte	0x5e
	.byte	0x4
	.uleb128 .LVL589-.LVL476
	.uleb128 .LVL592-.LVL476
	.uleb128 0x1
	.byte	0x5e
	.byte	0
.LVUS293:
	.uleb128 .LVU1925
	.uleb128 .LVU1937
	.uleb128 .LVU1937
	.uleb128 .LVU1942
	.uleb128 .LVU2419
	.uleb128 .LVU2429
	.uleb128 .LVU2429
	.uleb128 .LVU2431
.LLST293:
	.byte	0x6
	.quad	.LVL476
	.byte	0x4
	.uleb128 .LVL476-.LVL476
	.uleb128 .LVL478-1-.LVL476
	.uleb128 0x1
	.byte	0x52
	.byte	0x4
	.uleb128 .LVL478-1-.LVL476
	.uleb128 .LVL480-.LVL476
	.uleb128 0x8
	.byte	0x7d
	.sleb128 0
	.byte	0x76
	.sleb128 -1392
	.byte	0x6
	.byte	0x22
	.byte	0x9f
	.byte	0x4
	.uleb128 .LVL589-.LVL476
	.uleb128 .LVL592-1-.LVL476
	.uleb128 0x1
	.byte	0x52
	.byte	0x4
	.uleb128 .LVL592-1-.LVL476
	.uleb128 .LVL592-.LVL476
	.uleb128 0x8
	.byte	0x7d
	.sleb128 0
	.byte	0x76
	.sleb128 -1392
	.byte	0x6
	.byte	0x22
	.byte	0x9f
	.byte	0
.LVUS295:
	.uleb128 .LVU2422
	.uleb128 .LVU2431
.LLST295:
	.byte	0x8
	.quad	.LVL590
	.uleb128 .LVL592-.LVL590
	.uleb128 0x1
	.byte	0x5e
	.byte	0
.LVUS296:
	.uleb128 .LVU2422
	.uleb128 .LVU2429
	.uleb128 .LVU2429
	.uleb128 .LVU2431
.LLST296:
	.byte	0x6
	.quad	.LVL590
	.byte	0x4
	.uleb128 .LVL590-.LVL590
	.uleb128 .LVL592-1-.LVL590
	.uleb128 0x1
	.byte	0x52
	.byte	0x4
	.uleb128 .LVL592-1-.LVL590
	.uleb128 .LVL592-.LVL590
	.uleb128 0x8
	.byte	0x7d
	.sleb128 0
	.byte	0x76
	.sleb128 -1392
	.byte	0x6
	.byte	0x22
	.byte	0x9f
	.byte	0
.LVUS297:
	.uleb128 .LVU2425
	.uleb128 .LVU2428
	.uleb128 .LVU2428
	.uleb128 .LVU2429
.LLST297:
	.byte	0x6
	.quad	.LVL590
	.byte	0x4
	.uleb128 .LVL590-.LVL590
	.uleb128 .LVL591-.LVL590
	.uleb128 0x5
	.byte	0x71
	.sleb128 0
	.byte	0x33
	.byte	0x24
	.byte	0x9f
	.byte	0x4
	.uleb128 .LVL591-.LVL590
	.uleb128 .LVL592-.LVL590
	.uleb128 0xb
	.byte	0x7e
	.sleb128 0
	.byte	0x8
	.byte	0x20
	.byte	0x24
	.byte	0x8
	.byte	0x20
	.byte	0x26
	.byte	0x33
	.byte	0x24
	.byte	0x9f
	.byte	0
.LVUS298:
	.uleb128 .LVU2425
	.uleb128 .LVU2429
.LLST298:
	.byte	0x8
	.quad	.LVL590
	.uleb128 .LVL592-.LVL590
	.uleb128 0x2
	.byte	0x30
	.byte	0x9f
	.byte	0
.LVUS299:
	.uleb128 .LVU2425
	.uleb128 .LVU2429
	.uleb128 .LVU2429
	.uleb128 .LVU2429
.LLST299:
	.byte	0x6
	.quad	.LVL590
	.byte	0x4
	.uleb128 .LVL590-.LVL590
	.uleb128 .LVL592-1-.LVL590
	.uleb128 0x1
	.byte	0x52
	.byte	0x4
	.uleb128 .LVL592-1-.LVL590
	.uleb128 .LVL592-.LVL590
	.uleb128 0x8
	.byte	0x7d
	.sleb128 0
	.byte	0x76
	.sleb128 -1392
	.byte	0x6
	.byte	0x22
	.byte	0x9f
	.byte	0
.LVUS301:
	.uleb128 .LVU1934
	.uleb128 .LVU1937
	.uleb128 .LVU1937
	.uleb128 .LVU1939
	.uleb128 .LVU1939
	.uleb128 .LVU1940
.LLST301:
	.byte	0x6
	.quad	.LVL477
	.byte	0x4
	.uleb128 .LVL477-.LVL477
	.uleb128 .LVL478-1-.LVL477
	.uleb128 0x1
	.byte	0x51
	.byte	0x4
	.uleb128 .LVL478-1-.LVL477
	.uleb128 .LVL479-.LVL477
	.uleb128 0x3
	.byte	0x7c
	.sleb128 -8
	.byte	0x9f
	.byte	0x4
	.uleb128 .LVL479-.LVL477
	.uleb128 .LVL480-.LVL477
	.uleb128 0xd
	.byte	0x7e
	.sleb128 0
	.byte	0x8
	.byte	0x20
	.byte	0x24
	.byte	0x8
	.byte	0x20
	.byte	0x26
	.byte	0x33
	.byte	0x24
	.byte	0x38
	.byte	0x1c
	.byte	0x9f
	.byte	0
.LVUS302:
	.uleb128 .LVU1934
	.uleb128 .LVU1937
	.uleb128 .LVU1937
	.uleb128 .LVU1940
.LLST302:
	.byte	0x6
	.quad	.LVL477
	.byte	0x4
	.uleb128 .LVL477-.LVL477
	.uleb128 .LVL478-1-.LVL477
	.uleb128 0x1
	.byte	0x54
	.byte	0x4
	.uleb128 .LVL478-1-.LVL477
	.uleb128 .LVL480-.LVL477
	.uleb128 0xa
	.byte	0x7d
	.sleb128 0
	.byte	0x76
	.sleb128 -1392
	.byte	0x6
	.byte	0x22
	.byte	0x23
	.uleb128 0x8
	.byte	0x9f
	.byte	0
.LVUS303:
	.uleb128 .LVU1934
	.uleb128 .LVU1937
	.uleb128 .LVU1937
	.uleb128 .LVU1940
.LLST303:
	.byte	0x6
	.quad	.LVL477
	.byte	0x4
	.uleb128 .LVL477-.LVL477
	.uleb128 .LVL478-1-.LVL477
	.uleb128 0x1
	.byte	0x52
	.byte	0x4
	.uleb128 .LVL478-1-.LVL477
	.uleb128 .LVL480-.LVL477
	.uleb128 0x8
	.byte	0x7d
	.sleb128 0
	.byte	0x76
	.sleb128 -1392
	.byte	0x6
	.byte	0x22
	.byte	0x9f
	.byte	0
.LVUS304:
	.uleb128 .LVU2155
	.uleb128 .LVU2162
.LLST304:
	.byte	0x8
	.quad	.LVL504
	.uleb128 .LVL506-.LVL504
	.uleb128 0x1
	.byte	0x5d
	.byte	0
.LVUS305:
	.uleb128 .LVU2155
	.uleb128 .LVU2159
.LLST305:
	.byte	0x8
	.quad	.LVL504
	.uleb128 .LVL505-.LVL504
	.uleb128 0x1
	.byte	0x5e
	.byte	0
.LVUS306:
	.uleb128 .LVU2161
	.uleb128 .LVU2162
.LLST306:
	.byte	0x8
	.quad	.LVL506
	.uleb128 .LVL506-.LVL506
	.uleb128 0x1
	.byte	0x53
	.byte	0
.LVUS308:
	.uleb128 .LVU2165
	.uleb128 .LVU2166
	.uleb128 .LVU2166
	.uleb128 .LVU2170
	.uleb128 .LVU2170
	.uleb128 .LVU2171
	.uleb128 .LVU2171
	.uleb128 .LVU2172
.LLST308:
	.byte	0x6
	.quad	.LVL506
	.byte	0x4
	.uleb128 .LVL506-.LVL506
	.uleb128 .LVL506-.LVL506
	.uleb128 0x2
	.byte	0x30
	.byte	0x9f
	.byte	0x4
	.uleb128 .LVL506-.LVL506
	.uleb128 .LVL508-.LVL506
	.uleb128 0xf
	.byte	0x7e
	.sleb128 0
	.byte	0x3
	.quad	fd
	.byte	0x1c
	.byte	0x32
	.byte	0x25
	.byte	0x9f
	.byte	0x4
	.uleb128 .LVL508-.LVL506
	.uleb128 .LVL509-.LVL506
	.uleb128 0x11
	.byte	0x7e
	.sleb128 0
	.byte	0x3
	.quad	fd
	.byte	0x1c
	.byte	0x32
	.byte	0x25
	.byte	0x23
	.uleb128 0x1
	.byte	0x9f
	.byte	0x4
	.uleb128 .LVL509-.LVL506
	.uleb128 .LVL510-.LVL506
	.uleb128 0x11
	.byte	0x7e
	.sleb128 0
	.byte	0x3
	.quad	fd+4
	.byte	0x1c
	.byte	0x32
	.byte	0x25
	.byte	0x23
	.uleb128 0x1
	.byte	0x9f
	.byte	0
.LVUS310:
	.uleb128 .LVU2176
	.uleb128 .LVU2181
	.uleb128 .LVU2181
	.uleb128 .LVU2184
.LLST310:
	.byte	0x6
	.quad	.LVL512
	.byte	0x4
	.uleb128 .LVL512-.LVL512
	.uleb128 .LVL513-.LVL512
	.uleb128 0xb
	.byte	0x73
	.sleb128 0
	.byte	0x76
	.sleb128 0
	.byte	0x1c
	.byte	0x23
	.uleb128 0x470
	.byte	0x33
	.byte	0x25
	.byte	0x9f
	.byte	0x4
	.uleb128 .LVL513-.LVL512
	.uleb128 .LVL514-.LVL512
	.uleb128 0xb
	.byte	0x73
	.sleb128 0
	.byte	0x76
	.sleb128 0
	.byte	0x1c
	.byte	0x23
	.uleb128 0x468
	.byte	0x33
	.byte	0x25
	.byte	0x9f
	.byte	0
.LVUS312:
	.uleb128 .LVU2177
	.uleb128 .LVU2182
.LLST312:
	.byte	0x8
	.quad	.LVL512
	.uleb128 .LVL514-.LVL512
	.uleb128 0xa
	.byte	0x3
	.quad	.LC16
	.byte	0x9f
	.byte	0
.LVUS313:
	.uleb128 .LVU2177
	.uleb128 .LVU2182
.LLST313:
	.byte	0x8
	.quad	.LVL512
	.uleb128 .LVL514-.LVL512
	.uleb128 0x1
	.byte	0x5e
	.byte	0
.LVUS315:
	.uleb128 .LVU2189
	.uleb128 .LVU2192
.LLST315:
	.byte	0x8
	.quad	.LVL515
	.uleb128 .LVL516-.LVL515
	.uleb128 0x6
	.byte	0xa0
	.long	.Ldebug_info0+20247
	.sleb128 0
	.byte	0
.LVUS316:
	.uleb128 .LVU2189
	.uleb128 .LVU2192
	.uleb128 .LVU2192
	.uleb128 .LVU2192
.LLST316:
	.byte	0x6
	.quad	.LVL515
	.byte	0x4
	.uleb128 .LVL515-.LVL515
	.uleb128 .LVL516-1-.LVL515
	.uleb128 0x1
	.byte	0x54
	.byte	0x4
	.uleb128 .LVL516-1-.LVL515
	.uleb128 .LVL516-.LVL515
	.uleb128 0x3
	.byte	0x76
	.sleb128 -1408
	.byte	0
.LVUS319:
	.uleb128 .LVU2214
	.uleb128 .LVU2216
	.uleb128 .LVU2216
	.uleb128 .LVU2219
	.uleb128 .LVU2219
	.uleb128 .LVU2222
.LLST319:
	.byte	0x6
	.quad	.LVL526
	.byte	0x4
	.uleb128 .LVL526-.LVL526
	.uleb128 .LVL527-.LVL526
	.uleb128 0x2
	.byte	0x30
	.byte	0x9f
	.byte	0x4
	.uleb128 .LVL527-.LVL526
	.uleb128 .LVL528-.LVL526
	.uleb128 0xf
	.byte	0x73
	.sleb128 0
	.byte	0x3
	.quad	fd
	.byte	0x1c
	.byte	0x32
	.byte	0x25
	.byte	0x9f
	.byte	0x4
	.uleb128 .LVL528-.LVL526
	.uleb128 .LVL530-.LVL526
	.uleb128 0xf
	.byte	0x73
	.sleb128 0
	.byte	0x3
	.quad	fd+4
	.byte	0x1c
	.byte	0x32
	.byte	0x25
	.byte	0x9f
	.byte	0
.LVUS321:
	.uleb128 .LVU2228
	.uleb128 .LVU2237
.LLST321:
	.byte	0x8
	.quad	.LVL531
	.uleb128 .LVL533-.LVL531
	.uleb128 0x1
	.byte	0x5a
	.byte	0
.LVUS322:
	.uleb128 .LVU2228
	.uleb128 .LVU2231
.LLST322:
	.byte	0x8
	.quad	.LVL531
	.uleb128 .LVL532-.LVL531
	.uleb128 0x1
	.byte	0x59
	.byte	0
.LVUS323:
	.uleb128 .LVU2236
	.uleb128 .LVU2237
.LLST323:
	.byte	0x8
	.quad	.LVL533
	.uleb128 .LVL533-.LVL533
	.uleb128 0x1
	.byte	0x59
	.byte	0
.LVUS324:
	.uleb128 .LVU2244
	.uleb128 .LVU2250
.LLST324:
	.byte	0x8
	.quad	.LVL535
	.uleb128 .LVL536-.LVL535
	.uleb128 0x1
	.byte	0x58
	.byte	0
.LVUS325:
	.uleb128 .LVU2244
	.uleb128 .LVU2250
.LLST325:
	.byte	0x8
	.quad	.LVL535
	.uleb128 .LVL536-.LVL535
	.uleb128 0x1
	.byte	0x5b
	.byte	0
.LVUS326:
	.uleb128 .LVU2249
	.uleb128 .LVU2250
.LLST326:
	.byte	0x8
	.quad	.LVL536
	.uleb128 .LVL536-.LVL536
	.uleb128 0x1
	.byte	0x53
	.byte	0
.LVUS327:
	.uleb128 .LVU2253
	.uleb128 .LVU2254
	.uleb128 .LVU2254
	.uleb128 .LVU2258
	.uleb128 .LVU2258
	.uleb128 .LVU2259
	.uleb128 .LVU2259
	.uleb128 .LVU2260
.LLST327:
	.byte	0x6
	.quad	.LVL536
	.byte	0x4
	.uleb128 .LVL536-.LVL536
	.uleb128 .LVL536-.LVL536
	.uleb128 0x2
	.byte	0x30
	.byte	0x9f
	.byte	0x4
	.uleb128 .LVL536-.LVL536
	.uleb128 .LVL538-.LVL536
	.uleb128 0xf
	.byte	0x7f
	.sleb128 0
	.byte	0x3
	.quad	fd
	.byte	0x1c
	.byte	0x32
	.byte	0x25
	.byte	0x9f
	.byte	0x4
	.uleb128 .LVL538-.LVL536
	.uleb128 .LVL539-.LVL536
	.uleb128 0x11
	.byte	0x7f
	.sleb128 0
	.byte	0x3
	.quad	fd
	.byte	0x1c
	.byte	0x32
	.byte	0x25
	.byte	0x23
	.uleb128 0x1
	.byte	0x9f
	.byte	0x4
	.uleb128 .LVL539-.LVL536
	.uleb128 .LVL540-.LVL536
	.uleb128 0x11
	.byte	0x7f
	.sleb128 0
	.byte	0x3
	.quad	fd+4
	.byte	0x1c
	.byte	0x32
	.byte	0x25
	.byte	0x23
	.uleb128 0x1
	.byte	0x9f
	.byte	0
.LVUS328:
	.uleb128 .LVU2264
	.uleb128 .LVU2269
	.uleb128 .LVU2269
	.uleb128 .LVU2272
.LLST328:
	.byte	0x6
	.quad	.LVL542
	.byte	0x4
	.uleb128 .LVL542-.LVL542
	.uleb128 .LVL543-.LVL542
	.uleb128 0xb
	.byte	0x7c
	.sleb128 0
	.byte	0x76
	.sleb128 0
	.byte	0x1c
	.byte	0x23
	.uleb128 0x470
	.byte	0x33
	.byte	0x25
	.byte	0x9f
	.byte	0x4
	.uleb128 .LVL543-.LVL542
	.uleb128 .LVL544-.LVL542
	.uleb128 0xb
	.byte	0x7c
	.sleb128 0
	.byte	0x76
	.sleb128 0
	.byte	0x1c
	.byte	0x23
	.uleb128 0x468
	.byte	0x33
	.byte	0x25
	.byte	0x9f
	.byte	0
.LVUS330:
	.uleb128 .LVU2265
	.uleb128 .LVU2270
.LLST330:
	.byte	0x8
	.quad	.LVL542
	.uleb128 .LVL544-.LVL542
	.uleb128 0xa
	.byte	0x3
	.quad	.LC16
	.byte	0x9f
	.byte	0
.LVUS331:
	.uleb128 .LVU2265
	.uleb128 .LVU2270
.LLST331:
	.byte	0x8
	.quad	.LVL542
	.uleb128 .LVL544-.LVL542
	.uleb128 0x1
	.byte	0x5e
	.byte	0
.LVUS332:
	.uleb128 .LVU2274
	.uleb128 .LVU2277
.LLST332:
	.byte	0x8
	.quad	.LVL545
	.uleb128 .LVL546-.LVL545
	.uleb128 0x6
	.byte	0xa0
	.long	.Ldebug_info0+20247
	.sleb128 0
	.byte	0
.LVUS333:
	.uleb128 .LVU2274
	.uleb128 .LVU2277
.LLST333:
	.byte	0x8
	.quad	.LVL545
	.uleb128 .LVL546-.LVL545
	.uleb128 0x3
	.byte	0x76
	.sleb128 -1432
	.byte	0
.LVUS335:
	.uleb128 .LVU2292
	.uleb128 .LVU2300
	.uleb128 .LVU2300
	.uleb128 .LVU2369
.LLST335:
	.byte	0x6
	.quad	.LVL552
	.byte	0x4
	.uleb128 .LVL552-.LVL552
	.uleb128 .LVL556-.LVL552
	.uleb128 0x1
	.byte	0x5e
	.byte	0x4
	.uleb128 .LVL556-.LVL552
	.uleb128 .LVL571-.LVL552
	.uleb128 0x1
	.byte	0x55
	.byte	0
.LVUS336:
	.uleb128 .LVU2292
	.uleb128 .LVU2295
	.uleb128 .LVU2295
	.uleb128 .LVU2369
.LLST336:
	.byte	0x6
	.quad	.LVL552
	.byte	0x4
	.uleb128 .LVL552-.LVL552
	.uleb128 .LVL553-1-.LVL552
	.uleb128 0x1
	.byte	0x50
	.byte	0x4
	.uleb128 .LVL553-1-.LVL552
	.uleb128 .LVL571-.LVL552
	.uleb128 0x1
	.byte	0x5d
	.byte	0
.LVUS337:
	.uleb128 .LVU2292
	.uleb128 .LVU2369
.LLST337:
	.byte	0x8
	.quad	.LVL552
	.uleb128 .LVL571-.LVL552
	.uleb128 0x1
	.byte	0x5c
	.byte	0
.LVUS338:
	.uleb128 .LVU2299
	.uleb128 .LVU2304
	.uleb128 .LVU2304
	.uleb128 .LVU2305
	.uleb128 .LVU2310
	.uleb128 .LVU2311
	.uleb128 .LVU2315
	.uleb128 .LVU2316
	.uleb128 .LVU2320
	.uleb128 .LVU2321
	.uleb128 .LVU2325
	.uleb128 .LVU2326
	.uleb128 .LVU2330
	.uleb128 .LVU2331
	.uleb128 .LVU2335
	.uleb128 .LVU2336
	.uleb128 .LVU2336
	.uleb128 .LVU2337
.LLST338:
	.byte	0x6
	.quad	.LVL555
	.byte	0x4
	.uleb128 .LVL555-.LVL555
	.uleb128 .LVL557-.LVL555
	.uleb128 0x2
	.byte	0x30
	.byte	0x9f
	.byte	0x4
	.uleb128 .LVL557-.LVL555
	.uleb128 .LVL557-.LVL555
	.uleb128 0x2
	.byte	0x31
	.byte	0x9f
	.byte	0x4
	.uleb128 .LVL558-.LVL555
	.uleb128 .LVL559-.LVL555
	.uleb128 0x3
	.byte	0x79
	.sleb128 2
	.byte	0x9f
	.byte	0x4
	.uleb128 .LVL560-.LVL555
	.uleb128 .LVL561-.LVL555
	.uleb128 0x3
	.byte	0x79
	.sleb128 2
	.byte	0x9f
	.byte	0x4
	.uleb128 .LVL562-.LVL555
	.uleb128 .LVL563-.LVL555
	.uleb128 0x3
	.byte	0x79
	.sleb128 2
	.byte	0x9f
	.byte	0x4
	.uleb128 .LVL564-.LVL555
	.uleb128 .LVL565-.LVL555
	.uleb128 0x3
	.byte	0x79
	.sleb128 2
	.byte	0x9f
	.byte	0x4
	.uleb128 .LVL566-.LVL555
	.uleb128 .LVL567-.LVL555
	.uleb128 0x3
	.byte	0x79
	.sleb128 2
	.byte	0x9f
	.byte	0x4
	.uleb128 .LVL568-.LVL555
	.uleb128 .LVL569-.LVL555
	.uleb128 0x3
	.byte	0x79
	.sleb128 2
	.byte	0x9f
	.byte	0x4
	.uleb128 .LVL569-.LVL555
	.uleb128 .LVL570-.LVL555
	.uleb128 0x3
	.byte	0x79
	.sleb128 1
	.byte	0x9f
	.byte	0
.LVUS339:
	.uleb128 .LVU2371
	.uleb128 .LVU2375
.LLST339:
	.byte	0x8
	.quad	.LVL571
	.uleb128 .LVL574-.LVL571
	.uleb128 0xa
	.byte	0x3
	.quad	.LC37
	.byte	0x9f
	.byte	0
.LVUS341:
	.uleb128 .LVU2377
	.uleb128 .LVU2383
.LLST341:
	.byte	0x8
	.quad	.LVL574
	.uleb128 .LVL577-.LVL574
	.uleb128 0xa
	.byte	0x3
	.quad	.LC37
	.byte	0x9f
	.byte	0
.LVUS342:
	.uleb128 .LVU2414
	.uleb128 .LVU2417
.LLST342:
	.byte	0x8
	.quad	.LVL587
	.uleb128 .LVL589-.LVL587
	.uleb128 0xa
	.byte	0x3
	.quad	.LC36
	.byte	0x9f
	.byte	0
.LVUS203:
	.uleb128 .LVU1288
	.uleb128 .LVU1295
	.uleb128 .LVU1295
	.uleb128 .LVU1313
.LLST203:
	.byte	0x6
	.quad	.LVL365
	.byte	0x4
	.uleb128 .LVL365-.LVL365
	.uleb128 .LVL368-.LVL365
	.uleb128 0x1
	.byte	0x53
	.byte	0x4
	.uleb128 .LVL368-.LVL365
	.uleb128 .LVL373-.LVL365
	.uleb128 0x3
	.byte	0x76
	.sleb128 -1448
	.byte	0
.LVUS204:
	.uleb128 .LVU1293
	.uleb128 .LVU1296
	.uleb128 .LVU1296
	.uleb128 .LVU1306
	.uleb128 .LVU1306
	.uleb128 .LVU1313
.LLST204:
	.byte	0x6
	.quad	.LVL367
	.byte	0x4
	.uleb128 .LVL367-.LVL367
	.uleb128 .LVL369-.LVL367
	.uleb128 0x1
	.byte	0x50
	.byte	0x4
	.uleb128 .LVL369-.LVL367
	.uleb128 .LVL372-.LVL367
	.uleb128 0x1
	.byte	0x53
	.byte	0x4
	.uleb128 .LVL372-.LVL367
	.uleb128 .LVL373-.LVL367
	.uleb128 0x3
	.byte	0x76
	.sleb128 -1408
	.byte	0
.LVUS205:
	.uleb128 .LVU1296
	.uleb128 .LVU1301
	.uleb128 .LVU1301
	.uleb128 .LVU1304
.LLST205:
	.byte	0x6
	.quad	.LVL369
	.byte	0x4
	.uleb128 .LVL369-.LVL369
	.uleb128 .LVL370-.LVL369
	.uleb128 0xf
	.byte	0x7f
	.sleb128 0
	.byte	0x3
	.quad	event_names
	.byte	0x1c
	.byte	0x33
	.byte	0x25
	.byte	0x9f
	.byte	0x4
	.uleb128 .LVL370-.LVL369
	.uleb128 .LVL371-.LVL369
	.uleb128 0xf
	.byte	0x7f
	.sleb128 0
	.byte	0x3
	.quad	event_names+8
	.byte	0x1c
	.byte	0x33
	.byte	0x25
	.byte	0x9f
	.byte	0
.LVUS207:
	.uleb128 .LVU1297
	.uleb128 .LVU1302
.LLST207:
	.byte	0x8
	.quad	.LVL369
	.uleb128 .LVL371-.LVL369
	.uleb128 0xa
	.byte	0x3
	.quad	.LC14
	.byte	0x9f
	.byte	0
.LVUS208:
	.uleb128 .LVU1297
	.uleb128 .LVU1302
.LLST208:
	.byte	0x8
	.quad	.LVL369
	.uleb128 .LVL371-.LVL369
	.uleb128 0x1
	.byte	0x53
	.byte	0
.LVUS210:
	.uleb128 .LVU1308
	.uleb128 .LVU1311
.LLST210:
	.byte	0x8
	.quad	.LVL372
	.uleb128 .LVL373-.LVL372
	.uleb128 0x6
	.byte	0xa0
	.long	.Ldebug_info0+20247
	.sleb128 0
	.byte	0
.LVUS211:
	.uleb128 .LVU1308
	.uleb128 .LVU1311
	.uleb128 .LVU1311
	.uleb128 .LVU1311
.LLST211:
	.byte	0x6
	.quad	.LVL372
	.byte	0x4
	.uleb128 .LVL372-.LVL372
	.uleb128 .LVL373-1-.LVL372
	.uleb128 0x1
	.byte	0x54
	.byte	0x4
	.uleb128 .LVL373-1-.LVL372
	.uleb128 .LVL373-.LVL372
	.uleb128 0x3
	.byte	0x76
	.sleb128 -1408
	.byte	0
.LVUS213:
	.uleb128 .LVU1262
	.uleb128 .LVU1265
.LLST213:
	.byte	0x8
	.quad	.LVL355
	.uleb128 .LVL356-.LVL355
	.uleb128 0xa
	.byte	0x3
	.quad	.LC26
	.byte	0x9f
	.byte	0
.LVUS214:
	.uleb128 .LVU1262
	.uleb128 .LVU1265
.LLST214:
	.byte	0x8
	.quad	.LVL355
	.uleb128 .LVL356-.LVL355
	.uleb128 0x4
	.byte	0xa
	.value	0x100
	.byte	0x9f
	.byte	0
.LVUS215:
	.uleb128 .LVU1262
	.uleb128 .LVU1265
.LLST215:
	.byte	0x8
	.quad	.LVL355
	.uleb128 .LVL356-.LVL355
	.uleb128 0x1
	.byte	0x53
	.byte	0
.LVUS216:
	.uleb128 .LVU1267
	.uleb128 .LVU1272
.LLST216:
	.byte	0x8
	.quad	.LVL356
	.uleb128 .LVL359-.LVL356
	.uleb128 0xa
	.byte	0x3
	.quad	.LC27
	.byte	0x9f
	.byte	0
.LVUS217:
	.uleb128 .LVU1267
	.uleb128 .LVU1272
.LLST217:
	.byte	0x8
	.quad	.LVL356
	.uleb128 .LVL359-.LVL356
	.uleb128 0x4
	.byte	0xa
	.value	0x100
	.byte	0x9f
	.byte	0
.LVUS218:
	.uleb128 .LVU1267
	.uleb128 .LVU1270
	.uleb128 .LVU1270
	.uleb128 .LVU1271
	.uleb128 .LVU1271
	.uleb128 .LVU1272
	.uleb128 .LVU1272
	.uleb128 .LVU1272
.LLST218:
	.byte	0x6
	.quad	.LVL356
	.byte	0x4
	.uleb128 .LVL356-.LVL356
	.uleb128 .LVL357-.LVL356
	.uleb128 0x4
	.byte	0x76
	.sleb128 -832
	.byte	0x9f
	.byte	0x4
	.uleb128 .LVL357-.LVL356
	.uleb128 .LVL358-.LVL356
	.uleb128 0x1
	.byte	0x51
	.byte	0x4
	.uleb128 .LVL358-.LVL356
	.uleb128 .LVL359-1-.LVL356
	.uleb128 0x1
	.byte	0x55
	.byte	0x4
	.uleb128 .LVL359-1-.LVL356
	.uleb128 .LVL359-.LVL356
	.uleb128 0x3
	.byte	0x76
	.sleb128 -1360
	.byte	0
.LVUS219:
	.uleb128 .LVU1274
	.uleb128 .LVU1279
.LLST219:
	.byte	0x8
	.quad	.LVL359
	.uleb128 .LVL362-.LVL359
	.uleb128 0xa
	.byte	0x3
	.quad	.LC28
	.byte	0x9f
	.byte	0
.LVUS220:
	.uleb128 .LVU1274
	.uleb128 .LVU1279
.LLST220:
	.byte	0x8
	.quad	.LVL359
	.uleb128 .LVL362-.LVL359
	.uleb128 0x4
	.byte	0xa
	.value	0x100
	.byte	0x9f
	.byte	0
.LVUS221:
	.uleb128 .LVU1274
	.uleb128 .LVU1277
	.uleb128 .LVU1277
	.uleb128 .LVU1278
	.uleb128 .LVU1278
	.uleb128 .LVU1279
	.uleb128 .LVU1279
	.uleb128 .LVU1279
.LLST221:
	.byte	0x6
	.quad	.LVL359
	.byte	0x4
	.uleb128 .LVL359-.LVL359
	.uleb128 .LVL360-.LVL359
	.uleb128 0x4
	.byte	0x76
	.sleb128 -576
	.byte	0x9f
	.byte	0x4
	.uleb128 .LVL360-.LVL359
	.uleb128 .LVL361-.LVL359
	.uleb128 0x1
	.byte	0x54
	.byte	0x4
	.uleb128 .LVL361-.LVL359
	.uleb128 .LVL362-1-.LVL359
	.uleb128 0x1
	.byte	0x55
	.byte	0x4
	.uleb128 .LVL362-1-.LVL359
	.uleb128 .LVL362-.LVL359
	.uleb128 0x3
	.byte	0x76
	.sleb128 -1352
	.byte	0
.LVUS222:
	.uleb128 .LVU1281
	.uleb128 .LVU1286
.LLST222:
	.byte	0x8
	.quad	.LVL362
	.uleb128 .LVL365-.LVL362
	.uleb128 0xa
	.byte	0x3
	.quad	.LC29
	.byte	0x9f
	.byte	0
.LVUS223:
	.uleb128 .LVU1281
	.uleb128 .LVU1286
.LLST223:
	.byte	0x8
	.quad	.LVL362
	.uleb128 .LVL365-.LVL362
	.uleb128 0x4
	.byte	0xa
	.value	0x100
	.byte	0x9f
	.byte	0
.LVUS224:
	.uleb128 .LVU1281
	.uleb128 .LVU1284
	.uleb128 .LVU1284
	.uleb128 .LVU1285
	.uleb128 .LVU1285
	.uleb128 .LVU1286
	.uleb128 .LVU1286
	.uleb128 .LVU1286
.LLST224:
	.byte	0x6
	.quad	.LVL362
	.byte	0x4
	.uleb128 .LVL362-.LVL362
	.uleb128 .LVL363-.LVL362
	.uleb128 0x4
	.byte	0x76
	.sleb128 -320
	.byte	0x9f
	.byte	0x4
	.uleb128 .LVL363-.LVL362
	.uleb128 .LVL364-.LVL362
	.uleb128 0x1
	.byte	0x59
	.byte	0x4
	.uleb128 .LVL364-.LVL362
	.uleb128 .LVL365-1-.LVL362
	.uleb128 0x1
	.byte	0x55
	.byte	0x4
	.uleb128 .LVL365-1-.LVL362
	.uleb128 .LVL365-.LVL362
	.uleb128 0x3
	.byte	0x76
	.sleb128 -1368
	.byte	0
.LVUS226:
	.uleb128 .LVU1315
	.uleb128 .LVU1338
.LLST226:
	.byte	0x8
	.quad	.LVL373
	.uleb128 .LVL380-.LVL373
	.uleb128 0x4
	.byte	0x76
	.sleb128 -832
	.byte	0x9f
	.byte	0
.LVUS227:
	.uleb128 .LVU1318
	.uleb128 .LVU1320
	.uleb128 .LVU1320
	.uleb128 .LVU1338
.LLST227:
	.byte	0x6
	.quad	.LVL375
	.byte	0x4
	.uleb128 .LVL375-.LVL375
	.uleb128 .LVL376-.LVL375
	.uleb128 0x1
	.byte	0x50
	.byte	0x4
	.uleb128 .LVL376-.LVL375
	.uleb128 .LVL380-.LVL375
	.uleb128 0x1
	.byte	0x5f
	.byte	0
.LVUS228:
	.uleb128 .LVU1320
	.uleb128 .LVU1325
	.uleb128 .LVU1325
	.uleb128 .LVU1328
.LLST228:
	.byte	0x6
	.quad	.LVL376
	.byte	0x4
	.uleb128 .LVL376-.LVL376
	.uleb128 .LVL377-.LVL376
	.uleb128 0xf
	.byte	0x73
	.sleb128 0
	.byte	0x3
	.quad	event_names
	.byte	0x1c
	.byte	0x33
	.byte	0x25
	.byte	0x9f
	.byte	0x4
	.uleb128 .LVL377-.LVL376
	.uleb128 .LVL378-.LVL376
	.uleb128 0xf
	.byte	0x73
	.sleb128 0
	.byte	0x3
	.quad	event_names+8
	.byte	0x1c
	.byte	0x33
	.byte	0x25
	.byte	0x9f
	.byte	0
.LVUS230:
	.uleb128 .LVU1321
	.uleb128 .LVU1326
.LLST230:
	.byte	0x8
	.quad	.LVL376
	.uleb128 .LVL378-.LVL376
	.uleb128 0xa
	.byte	0x3
	.quad	.LC14
	.byte	0x9f
	.byte	0
.LVUS231:
	.uleb128 .LVU1321
	.uleb128 .LVU1326
.LLST231:
	.byte	0x8
	.quad	.LVL376
	.uleb128 .LVL378-.LVL376
	.uleb128 0x1
	.byte	0x5f
	.byte	0
.LVUS233:
	.uleb128 .LVU1330
	.uleb128 .LVU1336
.LLST233:
	.byte	0x8
	.quad	.LVL379
	.uleb128 .LVL380-.LVL379
	.uleb128 0x6
	.byte	0xa0
	.long	.Ldebug_info0+20247
	.sleb128 0
	.byte	0
.LVUS234:
	.uleb128 .LVU1330
	.uleb128 .LVU1336
.LLST234:
	.byte	0x8
	.quad	.LVL379
	.uleb128 .LVL380-.LVL379
	.uleb128 0x3
	.byte	0x76
	.sleb128 -1432
	.byte	0
.LVUS236:
	.uleb128 .LVU1363
	.uleb128 .LVU1366
.LLST236:
	.byte	0x8
	.quad	.LVL392
	.uleb128 .LVL393-.LVL392
	.uleb128 0xa
	.byte	0x3
	.quad	.LC30
	.byte	0x9f
	.byte	0
.LVUS237:
	.uleb128 .LVU1368
	.uleb128 .LVU1371
.LLST237:
	.byte	0x8
	.quad	.LVL393
	.uleb128 .LVL394-.LVL393
	.uleb128 0xa
	.byte	0x3
	.quad	.LC31
	.byte	0x9f
	.byte	0
.LVUS238:
	.uleb128 .LVU1373
	.uleb128 .LVU1376
.LLST238:
	.byte	0x8
	.quad	.LVL394
	.uleb128 .LVL395-.LVL394
	.uleb128 0x6
	.byte	0xa0
	.long	.Ldebug_info0+20271
	.sleb128 0
	.byte	0
.LVUS239:
	.uleb128 .LVU1378
	.uleb128 .LVU1381
.LLST239:
	.byte	0x8
	.quad	.LVL395
	.uleb128 .LVL396-.LVL395
	.uleb128 0x4
	.byte	0x40
	.byte	0x4a
	.byte	0x24
	.byte	0x9f
	.byte	0
.LVUS240:
	.uleb128 .LVU1378
	.uleb128 .LVU1381
.LLST240:
	.byte	0x8
	.quad	.LVL395
	.uleb128 .LVL396-.LVL395
	.uleb128 0x2
	.byte	0x30
	.byte	0x9f
	.byte	0
.LVUS241:
	.uleb128 .LVU1378
	.uleb128 .LVU1381
.LLST241:
	.byte	0x8
	.quad	.LVL395
	.uleb128 .LVL396-1-.LVL395
	.uleb128 0x9
	.byte	0x3
	.quad	sub_space
	.byte	0
.LVUS243:
	.uleb128 .LVU1386
	.uleb128 .LVU1389
.LLST243:
	.byte	0x8
	.quad	.LVL397
	.uleb128 .LVL398-.LVL397
	.uleb128 0x4
	.byte	0x40
	.byte	0x4a
	.byte	0x24
	.byte	0x9f
	.byte	0
.LVUS244:
	.uleb128 .LVU1386
	.uleb128 .LVU1389
.LLST244:
	.byte	0x8
	.quad	.LVL397
	.uleb128 .LVL398-.LVL397
	.uleb128 0x2
	.byte	0x30
	.byte	0x9f
	.byte	0
.LVUS245:
	.uleb128 .LVU1386
	.uleb128 .LVU1389
.LLST245:
	.byte	0x8
	.quad	.LVL397
	.uleb128 .LVL398-1-.LVL397
	.uleb128 0x1
	.byte	0x55
	.byte	0
.LVUS247:
	.uleb128 .LVU1394
	.uleb128 .LVU1397
.LLST247:
	.byte	0x8
	.quad	.LVL399
	.uleb128 .LVL400-.LVL399
	.uleb128 0x6
	.byte	0xa0
	.long	.Ldebug_info0+20299
	.sleb128 0
	.byte	0
.LVUS248:
	.uleb128 .LVU1407
	.uleb128 .LVU1410
.LLST248:
	.byte	0x8
	.quad	.LVL400
	.uleb128 .LVL401-.LVL400
	.uleb128 0xa
	.byte	0x3
	.quad	.LC34
	.byte	0x9f
	.byte	0
.LVUS343:
	.uleb128 .LVU2391
	.uleb128 .LVU2394
.LLST343:
	.byte	0x8
	.quad	.LVL580
	.uleb128 .LVL581-.LVL580
	.uleb128 0x6
	.byte	0xa0
	.long	.Ldebug_info0+20334
	.sleb128 0
	.byte	0
.LVUS344:
	.uleb128 .LVU2396
	.uleb128 .LVU2399
.LLST344:
	.byte	0x8
	.quad	.LVL581
	.uleb128 .LVL582-.LVL581
	.uleb128 0xa
	.byte	0x3
	.quad	.LC39
	.byte	0x9f
	.byte	0
.LVUS346:
	.uleb128 .LVU2401
	.uleb128 .LVU2408
	.uleb128 .LVU2982
	.uleb128 .LVU2988
.LLST346:
	.byte	0x6
	.quad	.LVL582
	.byte	0x4
	.uleb128 .LVL582-.LVL582
	.uleb128 .LVL583-.LVL582
	.uleb128 0xa
	.byte	0x3
	.quad	.LC40
	.byte	0x9f
	.byte	0x4
	.uleb128 .LVL710-.LVL582
	.uleb128 .LVL711-.LVL582
	.uleb128 0xa
	.byte	0x3
	.quad	.LC40
	.byte	0x9f
	.byte	0
.LVUS178:
	.uleb128 0
	.uleb128 .LVU1101
	.uleb128 .LVU1101
	.uleb128 0
.LLST178:
	.byte	0x6
	.quad	.LVL323
	.byte	0x4
	.uleb128 .LVL323-.LVL323
	.uleb128 .LVL326-1-.LVL323
	.uleb128 0x1
	.byte	0x55
	.byte	0x4
	.uleb128 .LVL326-1-.LVL323
	.uleb128 .LFE5798-.LVL323
	.uleb128 0x4
	.byte	0xa3
	.uleb128 0x1
	.byte	0x55
	.byte	0x9f
	.byte	0
.LVUS179:
	.uleb128 0
	.uleb128 .LVU1101
	.uleb128 .LVU1101
	.uleb128 0
.LLST179:
	.byte	0x6
	.quad	.LVL323
	.byte	0x4
	.uleb128 .LVL323-.LVL323
	.uleb128 .LVL326-1-.LVL323
	.uleb128 0x1
	.byte	0x61
	.byte	0x4
	.uleb128 .LVL326-1-.LVL323
	.uleb128 .LFE5798-.LVL323
	.uleb128 0x6
	.byte	0xa3
	.uleb128 0x3
	.byte	0xa5
	.uleb128 0x11
	.uleb128 0x2a
	.byte	0x9f
	.byte	0
.LVUS180:
	.uleb128 0
	.uleb128 .LVU1100
	.uleb128 .LVU1100
	.uleb128 .LVU1101
	.uleb128 .LVU1101
	.uleb128 0
.LLST180:
	.byte	0x6
	.quad	.LVL323
	.byte	0x4
	.uleb128 .LVL323-.LVL323
	.uleb128 .LVL325-.LVL323
	.uleb128 0x1
	.byte	0x54
	.byte	0x4
	.uleb128 .LVL325-.LVL323
	.uleb128 .LVL326-1-.LVL323
	.uleb128 0x1
	.byte	0x52
	.byte	0x4
	.uleb128 .LVL326-1-.LVL323
	.uleb128 .LFE5798-.LVL323
	.uleb128 0x4
	.byte	0xa3
	.uleb128 0x1
	.byte	0x54
	.byte	0x9f
	.byte	0
.LVUS182:
	.uleb128 .LVU1096
	.uleb128 .LVU1101
	.uleb128 .LVU1101
	.uleb128 0
.LLST182:
	.byte	0x6
	.quad	.LVL324
	.byte	0x4
	.uleb128 .LVL324-.LVL324
	.uleb128 .LVL326-1-.LVL324
	.uleb128 0x1
	.byte	0x55
	.byte	0x4
	.uleb128 .LVL326-1-.LVL324
	.uleb128 .LFE5798-.LVL324
	.uleb128 0x4
	.byte	0xa3
	.uleb128 0x1
	.byte	0x55
	.byte	0x9f
	.byte	0
.LVUS173:
	.uleb128 0
	.uleb128 .LVU1081
	.uleb128 .LVU1081
	.uleb128 0
.LLST173:
	.byte	0x6
	.quad	.LVL315
	.byte	0x4
	.uleb128 .LVL315-.LVL315
	.uleb128 .LVL317-1-.LVL315
	.uleb128 0x1
	.byte	0x55
	.byte	0x4
	.uleb128 .LVL317-1-.LVL315
	.uleb128 .LFE5797-.LVL315
	.uleb128 0x4
	.byte	0xa3
	.uleb128 0x1
	.byte	0x55
	.byte	0x9f
	.byte	0
.LVUS174:
	.uleb128 0
	.uleb128 .LVU1080
	.uleb128 .LVU1080
	.uleb128 .LVU1089
	.uleb128 .LVU1089
	.uleb128 .LVU1090
	.uleb128 .LVU1090
	.uleb128 0
.LLST174:
	.byte	0x6
	.quad	.LVL315
	.byte	0x4
	.uleb128 .LVL315-.LVL315
	.uleb128 .LVL316-.LVL315
	.uleb128 0x1
	.byte	0x54
	.byte	0x4
	.uleb128 .LVL316-.LVL315
	.uleb128 .LVL319-.LVL315
	.uleb128 0x1
	.byte	0x53
	.byte	0x4
	.uleb128 .LVL319-.LVL315
	.uleb128 .LVL320-.LVL315
	.uleb128 0x4
	.byte	0xa3
	.uleb128 0x1
	.byte	0x54
	.byte	0x9f
	.byte	0x4
	.uleb128 .LVL320-.LVL315
	.uleb128 .LFE5797-.LVL315
	.uleb128 0x1
	.byte	0x53
	.byte	0
.LVUS176:
	.uleb128 .LVU1085
	.uleb128 .LVU1090
.LLST176:
	.byte	0x8
	.quad	.LVL318
	.uleb128 .LVL320-.LVL318
	.uleb128 0xa
	.byte	0x3
	.quad	.LC21
	.byte	0x9f
	.byte	0
.LVUS177:
	.uleb128 .LVU1085
	.uleb128 .LVU1090
.LLST177:
	.byte	0x8
	.quad	.LVL318
	.uleb128 .LVL320-1-.LVL318
	.uleb128 0x1
	.byte	0x50
	.byte	0
.LVUS154:
	.uleb128 0
	.uleb128 .LVU916
	.uleb128 .LVU916
	.uleb128 .LVU1023
	.uleb128 .LVU1023
	.uleb128 .LVU1024
	.uleb128 .LVU1024
	.uleb128 0
.LLST154:
	.byte	0x6
	.quad	.LVL270
	.byte	0x4
	.uleb128 .LVL270-.LVL270
	.uleb128 .LVL272-.LVL270
	.uleb128 0x1
	.byte	0x55
	.byte	0x4
	.uleb128 .LVL272-.LVL270
	.uleb128 .LVL301-.LVL270
	.uleb128 0x1
	.byte	0x5f
	.byte	0x4
	.uleb128 .LVL301-.LVL270
	.uleb128 .LVL302-.LVL270
	.uleb128 0x4
	.byte	0xa3
	.uleb128 0x1
	.byte	0x55
	.byte	0x9f
	.byte	0x4
	.uleb128 .LVL302-.LVL270
	.uleb128 .LFE5796-.LVL270
	.uleb128 0x1
	.byte	0x5f
	.byte	0
.LVUS155:
	.uleb128 0
	.uleb128 .LVU917
	.uleb128 .LVU917
	.uleb128 .LVU955
	.uleb128 .LVU955
	.uleb128 0
.LLST155:
	.byte	0x6
	.quad	.LVL270
	.byte	0x4
	.uleb128 .LVL270-.LVL270
	.uleb128 .LVL273-.LVL270
	.uleb128 0x1
	.byte	0x54
	.byte	0x4
	.uleb128 .LVL273-.LVL270
	.uleb128 .LVL286-.LVL270
	.uleb128 0x1
	.byte	0x5e
	.byte	0x4
	.uleb128 .LVL286-.LVL270
	.uleb128 .LFE5796-.LVL270
	.uleb128 0x3
	.byte	0x91
	.sleb128 -104
	.byte	0
.LVUS156:
	.uleb128 0
	.uleb128 .LVU912
	.uleb128 .LVU912
	.uleb128 .LVU954
	.uleb128 .LVU954
	.uleb128 0
.LLST156:
	.byte	0x6
	.quad	.LVL270
	.byte	0x4
	.uleb128 .LVL270-.LVL270
	.uleb128 .LVL271-.LVL270
	.uleb128 0x1
	.byte	0x51
	.byte	0x4
	.uleb128 .LVL271-.LVL270
	.uleb128 .LVL285-.LVL270
	.uleb128 0x1
	.byte	0x53
	.byte	0x4
	.uleb128 .LVL285-.LVL270
	.uleb128 .LFE5796-.LVL270
	.uleb128 0x4
	.byte	0xa3
	.uleb128 0x1
	.byte	0x51
	.byte	0x9f
	.byte	0
.LVUS157:
	.uleb128 .LVU948
	.uleb128 .LVU949
.LLST157:
	.byte	0x8
	.quad	.LVL283
	.uleb128 .LVL284-1-.LVL283
	.uleb128 0x1
	.byte	0x50
	.byte	0
.LVUS165:
	.uleb128 .LVU953
	.uleb128 .LVU954
	.uleb128 .LVU954
	.uleb128 .LVU956
	.uleb128 .LVU956
	.uleb128 .LVU961
	.uleb128 .LVU961
	.uleb128 .LVU1018
	.uleb128 .LVU1018
	.uleb128 .LVU1022
	.uleb128 .LVU1024
	.uleb128 .LVU1072
	.uleb128 .LVU1072
	.uleb128 0
.LLST165:
	.byte	0x6
	.quad	.LVL284
	.byte	0x4
	.uleb128 .LVL284-.LVL284
	.uleb128 .LVL285-.LVL284
	.uleb128 0x3
	.byte	0x73
	.sleb128 -1
	.byte	0x9f
	.byte	0x4
	.uleb128 .LVL285-.LVL284
	.uleb128 .LVL287-.LVL284
	.uleb128 0x1
	.byte	0x53
	.byte	0x4
	.uleb128 .LVL287-.LVL284
	.uleb128 .LVL288-.LVL284
	.uleb128 0x1
	.byte	0x5e
	.byte	0x4
	.uleb128 .LVL288-.LVL284
	.uleb128 .LVL298-.LVL284
	.uleb128 0x3
	.byte	0x91
	.sleb128 -128
	.byte	0x4
	.uleb128 .LVL298-.LVL284
	.uleb128 .LVL300-.LVL284
	.uleb128 0x1
	.byte	0x5e
	.byte	0x4
	.uleb128 .LVL302-.LVL284
	.uleb128 .LVL313-.LVL284
	.uleb128 0x3
	.byte	0x91
	.sleb128 -128
	.byte	0x4
	.uleb128 .LVL313-.LVL284
	.uleb128 .LFE5796-.LVL284
	.uleb128 0x1
	.byte	0x5e
	.byte	0
.LVUS167:
	.uleb128 .LVU962
	.uleb128 .LVU964
	.uleb128 .LVU964
	.uleb128 .LVU1020
	.uleb128 .LVU1024
	.uleb128 .LVU1072
.LLST167:
	.byte	0x6
	.quad	.LVL289
	.byte	0x4
	.uleb128 .LVL289-.LVL289
	.uleb128 .LVL290-1-.LVL289
	.uleb128 0x1
	.byte	0x54
	.byte	0x4
	.uleb128 .LVL290-1-.LVL289
	.uleb128 .LVL299-.LVL289
	.uleb128 0x3
	.byte	0x91
	.sleb128 -132
	.byte	0x4
	.uleb128 .LVL302-.LVL289
	.uleb128 .LVL313-.LVL289
	.uleb128 0x3
	.byte	0x91
	.sleb128 -132
	.byte	0
.LVUS168:
	.uleb128 .LVU965
	.uleb128 .LVU1012
	.uleb128 .LVU1012
	.uleb128 .LVU1020
	.uleb128 .LVU1024
	.uleb128 .LVU1059
	.uleb128 .LVU1059
	.uleb128 .LVU1072
.LLST168:
	.byte	0x6
	.quad	.LVL291
	.byte	0x4
	.uleb128 .LVL291-.LVL291
	.uleb128 .LVL297-.LVL291
	.uleb128 0x1
	.byte	0x53
	.byte	0x4
	.uleb128 .LVL297-.LVL291
	.uleb128 .LVL299-.LVL291
	.uleb128 0x3
	.byte	0x91
	.sleb128 -120
	.byte	0x4
	.uleb128 .LVL302-.LVL291
	.uleb128 .LVL309-.LVL291
	.uleb128 0x1
	.byte	0x53
	.byte	0x4
	.uleb128 .LVL309-.LVL291
	.uleb128 .LVL313-.LVL291
	.uleb128 0x3
	.byte	0x91
	.sleb128 -120
	.byte	0
.LVUS169:
	.uleb128 .LVU970
	.uleb128 .LVU988
.LLST169:
	.byte	0x8
	.quad	.LVL292
	.uleb128 .LVL295-.LVL292
	.uleb128 0x1
	.byte	0x5d
	.byte	0
.LVUS170:
	.uleb128 .LVU972
	.uleb128 .LVU973
.LLST170:
	.byte	0x8
	.quad	.LVL292
	.uleb128 .LVL292-.LVL292
	.uleb128 0x2
	.byte	0x30
	.byte	0x9f
	.byte	0
.LVUS172:
	.uleb128 .LVU1009
	.uleb128 .LVU1017
	.uleb128 .LVU1017
	.uleb128 .LVU1018
	.uleb128 .LVU1024
	.uleb128 .LVU1031
	.uleb128 .LVU1031
	.uleb128 .LVU1036
	.uleb128 .LVU1036
	.uleb128 .LVU1041
	.uleb128 .LVU1041
	.uleb128 .LVU1046
	.uleb128 .LVU1046
	.uleb128 .LVU1051
	.uleb128 .LVU1051
	.uleb128 .LVU1056
	.uleb128 .LVU1056
	.uleb128 .LVU1061
	.uleb128 .LVU1061
	.uleb128 .LVU1066
	.uleb128 .LVU1066
	.uleb128 .LVU1071
	.uleb128 .LVU1071
	.uleb128 .LVU1072
.LLST172:
	.byte	0x6
	.quad	.LVL296
	.byte	0x4
	.uleb128 .LVL296-.LVL296
	.uleb128 .LVL298-.LVL296
	.uleb128 0x1
	.byte	0x58
	.byte	0x4
	.uleb128 .LVL298-.LVL296
	.uleb128 .LVL298-.LVL296
	.uleb128 0x3
	.byte	0x78
	.sleb128 1
	.byte	0x9f
	.byte	0x4
	.uleb128 .LVL302-.LVL296
	.uleb128 .LVL303-.LVL296
	.uleb128 0x2
	.byte	0x30
	.byte	0x9f
	.byte	0x4
	.uleb128 .LVL303-.LVL296
	.uleb128 .LVL304-.LVL296
	.uleb128 0x2
	.byte	0x31
	.byte	0x9f
	.byte	0x4
	.uleb128 .LVL304-.LVL296
	.uleb128 .LVL305-.LVL296
	.uleb128 0x2
	.byte	0x32
	.byte	0x9f
	.byte	0x4
	.uleb128 .LVL305-.LVL296
	.uleb128 .LVL306-.LVL296
	.uleb128 0x2
	.byte	0x33
	.byte	0x9f
	.byte	0x4
	.uleb128 .LVL306-.LVL296
	.uleb128 .LVL307-.LVL296
	.uleb128 0x2
	.byte	0x34
	.byte	0x9f
	.byte	0x4
	.uleb128 .LVL307-.LVL296
	.uleb128 .LVL308-.LVL296
	.uleb128 0x2
	.byte	0x35
	.byte	0x9f
	.byte	0x4
	.uleb128 .LVL308-.LVL296
	.uleb128 .LVL310-.LVL296
	.uleb128 0x2
	.byte	0x36
	.byte	0x9f
	.byte	0x4
	.uleb128 .LVL310-.LVL296
	.uleb128 .LVL311-.LVL296
	.uleb128 0x2
	.byte	0x37
	.byte	0x9f
	.byte	0x4
	.uleb128 .LVL311-.LVL296
	.uleb128 .LVL312-.LVL296
	.uleb128 0x2
	.byte	0x38
	.byte	0x9f
	.byte	0x4
	.uleb128 .LVL312-.LVL296
	.uleb128 .LVL313-.LVL296
	.uleb128 0x2
	.byte	0x39
	.byte	0x9f
	.byte	0
.LVUS159:
	.uleb128 .LVU921
	.uleb128 .LVU927
.LLST159:
	.byte	0x8
	.quad	.LVL274
	.uleb128 .LVL276-.LVL274
	.uleb128 0x3
	.byte	0x8
	.byte	0x40
	.byte	0x9f
	.byte	0
.LVUS160:
	.uleb128 .LVU920
	.uleb128 .LVU926
	.uleb128 .LVU926
	.uleb128 .LVU927
.LLST160:
	.byte	0x6
	.quad	.LVL274
	.byte	0x4
	.uleb128 .LVL274-.LVL274
	.uleb128 .LVL275-1-.LVL274
	.uleb128 0x1
	.byte	0x51
	.byte	0x4
	.uleb128 .LVL275-1-.LVL274
	.uleb128 .LVL276-.LVL274
	.uleb128 0x1
	.byte	0x5c
	.byte	0
.LVUS162:
	.uleb128 .LVU931
	.uleb128 .LVU937
	.uleb128 .LVU942
	.uleb128 .LVU943
.LLST162:
	.byte	0x6
	.quad	.LVL277
	.byte	0x4
	.uleb128 .LVL277-.LVL277
	.uleb128 .LVL279-.LVL277
	.uleb128 0x3
	.byte	0x8
	.byte	0x40
	.byte	0x9f
	.byte	0x4
	.uleb128 .LVL281-.LVL277
	.uleb128 .LVL282-.LVL277
	.uleb128 0x3
	.byte	0x8
	.byte	0x40
	.byte	0x9f
	.byte	0
.LVUS163:
	.uleb128 .LVU930
	.uleb128 .LVU937
	.uleb128 .LVU942
	.uleb128 .LVU943
.LLST163:
	.byte	0x6
	.quad	.LVL277
	.byte	0x4
	.uleb128 .LVL277-.LVL277
	.uleb128 .LVL279-.LVL277
	.uleb128 0x1
	.byte	0x5c
	.byte	0x4
	.uleb128 .LVL281-.LVL277
	.uleb128 .LVL282-.LVL277
	.uleb128 0x1
	.byte	0x5c
	.byte	0
.LVUS146:
	.uleb128 0
	.uleb128 .LVU809
.LLST146:
	.byte	0x8
	.quad	.LVL239
	.uleb128 .LVL241-.LVL239
	.uleb128 0x6
	.byte	0x55
	.byte	0x93
	.uleb128 0x8
	.byte	0x54
	.byte	0x93
	.uleb128 0x8
	.byte	0
.LVUS147:
	.uleb128 0
	.uleb128 .LVU806
.LLST147:
	.byte	0x8
	.quad	.LVL239
	.uleb128 .LVL240-.LVL239
	.uleb128 0x6
	.byte	0x51
	.byte	0x93
	.uleb128 0x8
	.byte	0x52
	.byte	0x93
	.uleb128 0x8
	.byte	0
.LVUS148:
	.uleb128 .LVU806
	.uleb128 .LVU816
.LLST148:
	.byte	0x8
	.quad	.LVL240
	.uleb128 .LVL244-.LVL240
	.uleb128 0x1
	.byte	0x51
	.byte	0
.LVUS149:
	.uleb128 .LVU807
	.uleb128 .LVU809
	.uleb128 .LVU809
	.uleb128 0
.LLST149:
	.byte	0x6
	.quad	.LVL240
	.byte	0x4
	.uleb128 .LVL240-.LVL240
	.uleb128 .LVL241-.LVL240
	.uleb128 0x6
	.byte	0x72
	.sleb128 0
	.byte	0x74
	.sleb128 0
	.byte	0x1c
	.byte	0x9f
	.byte	0x4
	.uleb128 .LVL241-.LVL240
	.uleb128 .LFE5794-.LVL240
	.uleb128 0x1
	.byte	0x52
	.byte	0
.LVUS145:
	.uleb128 0
	.uleb128 .LVU797
	.uleb128 .LVU797
	.uleb128 .LVU798
	.uleb128 .LVU798
	.uleb128 0
.LLST145:
	.byte	0x6
	.quad	.LVL234
	.byte	0x4
	.uleb128 .LVL234-.LVL234
	.uleb128 .LVL235-.LVL234
	.uleb128 0x1
	.byte	0x55
	.byte	0x4
	.uleb128 .LVL235-.LVL234
	.uleb128 .LVL236-1-.LVL234
	.uleb128 0x1
	.byte	0x54
	.byte	0x4
	.uleb128 .LVL236-1-.LVL234
	.uleb128 .LFE5793-.LVL234
	.uleb128 0x4
	.byte	0xa3
	.uleb128 0x1
	.byte	0x55
	.byte	0x9f
	.byte	0
.LVUS144:
	.uleb128 0
	.uleb128 .LVU782
	.uleb128 .LVU782
	.uleb128 .LVU783
	.uleb128 .LVU783
	.uleb128 0
.LLST144:
	.byte	0x6
	.quad	.LVL229
	.byte	0x4
	.uleb128 .LVL229-.LVL229
	.uleb128 .LVL230-.LVL229
	.uleb128 0x1
	.byte	0x55
	.byte	0x4
	.uleb128 .LVL230-.LVL229
	.uleb128 .LVL231-1-.LVL229
	.uleb128 0x1
	.byte	0x54
	.byte	0x4
	.uleb128 .LVL231-1-.LVL229
	.uleb128 .LFE5792-.LVL229
	.uleb128 0x4
	.byte	0xa3
	.uleb128 0x1
	.byte	0x55
	.byte	0x9f
	.byte	0
.LVUS105:
	.uleb128 .LVU557
	.uleb128 .LVU570
	.uleb128 .LVU570
	.uleb128 .LVU580
	.uleb128 .LVU580
	.uleb128 .LVU590
	.uleb128 .LVU590
	.uleb128 .LVU600
	.uleb128 .LVU600
	.uleb128 .LVU610
	.uleb128 .LVU610
	.uleb128 .LVU620
	.uleb128 .LVU620
	.uleb128 0
.LLST105:
	.byte	0x6
	.quad	.LVL171
	.byte	0x4
	.uleb128 .LVL171-.LVL171
	.uleb128 .LVL172-.LVL171
	.uleb128 0x2
	.byte	0x30
	.byte	0x9f
	.byte	0x4
	.uleb128 .LVL172-.LVL171
	.uleb128 .LVL173-.LVL171
	.uleb128 0x2
	.byte	0x31
	.byte	0x9f
	.byte	0x4
	.uleb128 .LVL173-.LVL171
	.uleb128 .LVL174-.LVL171
	.uleb128 0x2
	.byte	0x32
	.byte	0x9f
	.byte	0x4
	.uleb128 .LVL174-.LVL171
	.uleb128 .LVL175-.LVL171
	.uleb128 0x2
	.byte	0x33
	.byte	0x9f
	.byte	0x4
	.uleb128 .LVL175-.LVL171
	.uleb128 .LVL176-.LVL171
	.uleb128 0x2
	.byte	0x34
	.byte	0x9f
	.byte	0x4
	.uleb128 .LVL176-.LVL171
	.uleb128 .LVL177-.LVL171
	.uleb128 0x2
	.byte	0x35
	.byte	0x9f
	.byte	0x4
	.uleb128 .LVL177-.LVL171
	.uleb128 .LFE5786-.LVL171
	.uleb128 0x2
	.byte	0x36
	.byte	0x9f
	.byte	0
.LVUS107:
	.uleb128 .LVU647
	.uleb128 .LVU648
	.uleb128 .LVU648
	.uleb128 .LVU659
	.uleb128 .LVU659
	.uleb128 .LVU660
	.uleb128 .LVU662
	.uleb128 0
.LLST107:
	.byte	0x6
	.quad	.LVL178
	.byte	0x4
	.uleb128 .LVL178-.LVL178
	.uleb128 .LVL178-.LVL178
	.uleb128 0x2
	.byte	0x30
	.byte	0x9f
	.byte	0x4
	.uleb128 .LVL178-.LVL178
	.uleb128 .LVL180-.LVL178
	.uleb128 0x1
	.byte	0x53
	.byte	0x4
	.uleb128 .LVL180-.LVL178
	.uleb128 .LVL181-.LVL178
	.uleb128 0x3
	.byte	0x73
	.sleb128 1
	.byte	0x9f
	.byte	0x4
	.uleb128 .LVL182-.LVL178
	.uleb128 .LFE5786-.LVL178
	.uleb128 0x1
	.byte	0x53
	.byte	0
.LVUS108:
	.uleb128 .LVU649
	.uleb128 .LVU654
.LLST108:
	.byte	0x8
	.quad	.LVL178
	.uleb128 .LVL179-.LVL178
	.uleb128 0x2
	.byte	0x30
	.byte	0x9f
	.byte	0
.LVUS109:
	.uleb128 .LVU649
	.uleb128 .LVU654
.LLST109:
	.byte	0x8
	.quad	.LVL178
	.uleb128 .LVL179-.LVL178
	.uleb128 0x3
	.byte	0x9
	.byte	0xff
	.byte	0x9f
	.byte	0
.LVUS110:
	.uleb128 .LVU649
	.uleb128 .LVU653
.LLST110:
	.byte	0x8
	.quad	.LVL178
	.uleb128 .LVL179-1-.LVL178
	.uleb128 0x9
	.byte	0x3
	.quad	CORE_NO
	.byte	0
.LVUS112:
	.uleb128 .LVU649
	.uleb128 .LVU654
.LLST112:
	.byte	0x8
	.quad	.LVL178
	.uleb128 .LVL179-.LVL178
	.uleb128 0xf
	.byte	0x73
	.sleb128 0
	.byte	0x37
	.byte	0x24
	.byte	0x3
	.quad	pe
	.byte	0x22
	.byte	0x9f
	.byte	0
.LVUS113:
	.uleb128 .LVU653
	.uleb128 .LVU654
.LLST113:
	.byte	0x8
	.quad	.LVL179
	.uleb128 .LVL179-.LVL179
	.uleb128 0x1
	.byte	0x50
	.byte	0
.LVUS115:
	.uleb128 .LVU665
	.uleb128 .LVU670
.LLST115:
	.byte	0x8
	.quad	.LVL184
	.uleb128 .LVL185-.LVL184
	.uleb128 0xa
	.byte	0x3
	.quad	.LC12
	.byte	0x9f
	.byte	0
.LVUS101:
	.uleb128 .LVU542
	.uleb128 .LVU554
.LLST101:
	.byte	0x8
	.quad	.LVL170
	.uleb128 .LVL171-.LVL170
	.uleb128 0x4
	.byte	0xa
	.value	0x300
	.byte	0x9f
	.byte	0
.LVUS102:
	.uleb128 .LVU542
	.uleb128 .LVU554
.LLST102:
	.byte	0x8
	.quad	.LVL170
	.uleb128 .LVL171-.LVL170
	.uleb128 0x2
	.byte	0x30
	.byte	0x9f
	.byte	0
.LVUS103:
	.uleb128 .LVU542
	.uleb128 .LVU554
.LLST103:
	.byte	0x8
	.quad	.LVL170
	.uleb128 .LVL171-.LVL170
	.uleb128 0xa
	.byte	0x3
	.quad	pe
	.byte	0x9f
	.byte	0
.LVUS69:
	.uleb128 0
	.uleb128 .LVU406
	.uleb128 .LVU406
	.uleb128 .LVU452
	.uleb128 .LVU452
	.uleb128 .LVU455
	.uleb128 .LVU455
	.uleb128 .LVU505
	.uleb128 .LVU505
	.uleb128 .LVU523
	.uleb128 .LVU523
	.uleb128 .LVU538
	.uleb128 .LVU538
	.uleb128 0
.LLST69:
	.byte	0x6
	.quad	.LVL120
	.byte	0x4
	.uleb128 .LVL120-.LVL120
	.uleb128 .LVL125-.LVL120
	.uleb128 0x1
	.byte	0x55
	.byte	0x4
	.uleb128 .LVL125-.LVL120
	.uleb128 .LVL142-.LVL120
	.uleb128 0x4
	.byte	0xa3
	.uleb128 0x1
	.byte	0x55
	.byte	0x9f
	.byte	0x4
	.uleb128 .LVL142-.LVL120
	.uleb128 .LVL143-.LVL120
	.uleb128 0x1
	.byte	0x55
	.byte	0x4
	.uleb128 .LVL143-.LVL120
	.uleb128 .LVL157-.LVL120
	.uleb128 0x1
	.byte	0x5d
	.byte	0x4
	.uleb128 .LVL157-.LVL120
	.uleb128 .LVL163-.LVL120
	.uleb128 0x4
	.byte	0xa3
	.uleb128 0x1
	.byte	0x55
	.byte	0x9f
	.byte	0x4
	.uleb128 .LVL163-.LVL120
	.uleb128 .LVL168-.LVL120
	.uleb128 0x1
	.byte	0x5d
	.byte	0x4
	.uleb128 .LVL168-.LVL120
	.uleb128 .LFE5785-.LVL120
	.uleb128 0x4
	.byte	0xa3
	.uleb128 0x1
	.byte	0x55
	.byte	0x9f
	.byte	0
.LVUS70:
	.uleb128 0
	.uleb128 .LVU407
	.uleb128 .LVU407
	.uleb128 .LVU450
	.uleb128 .LVU450
	.uleb128 .LVU452
	.uleb128 .LVU452
	.uleb128 .LVU456
	.uleb128 .LVU456
	.uleb128 .LVU458
	.uleb128 .LVU458
	.uleb128 .LVU505
	.uleb128 .LVU505
	.uleb128 .LVU520
	.uleb128 .LVU520
	.uleb128 0
.LLST70:
	.byte	0x6
	.quad	.LVL120
	.byte	0x4
	.uleb128 .LVL120-.LVL120
	.uleb128 .LVL126-.LVL120
	.uleb128 0x1
	.byte	0x54
	.byte	0x4
	.uleb128 .LVL126-.LVL120
	.uleb128 .LVL140-.LVL120
	.uleb128 0x1
	.byte	0x5c
	.byte	0x4
	.uleb128 .LVL140-.LVL120
	.uleb128 .LVL142-.LVL120
	.uleb128 0x4
	.byte	0xa3
	.uleb128 0x1
	.byte	0x54
	.byte	0x9f
	.byte	0x4
	.uleb128 .LVL142-.LVL120
	.uleb128 .LVL144-.LVL120
	.uleb128 0x1
	.byte	0x54
	.byte	0x4
	.uleb128 .LVL144-.LVL120
	.uleb128 .LVL145-.LVL120
	.uleb128 0x1
	.byte	0x5c
	.byte	0x4
	.uleb128 .LVL145-.LVL120
	.uleb128 .LVL157-.LVL120
	.uleb128 0x4
	.byte	0xa3
	.uleb128 0x1
	.byte	0x54
	.byte	0x9f
	.byte	0x4
	.uleb128 .LVL157-.LVL120
	.uleb128 .LVL162-.LVL120
	.uleb128 0x1
	.byte	0x5c
	.byte	0x4
	.uleb128 .LVL162-.LVL120
	.uleb128 .LFE5785-.LVL120
	.uleb128 0x4
	.byte	0xa3
	.uleb128 0x1
	.byte	0x54
	.byte	0x9f
	.byte	0
.LVUS71:
	.uleb128 0
	.uleb128 .LVU416
	.uleb128 .LVU416
	.uleb128 .LVU452
	.uleb128 .LVU452
	.uleb128 .LVU466
	.uleb128 .LVU466
	.uleb128 .LVU505
	.uleb128 .LVU505
	.uleb128 .LVU523
	.uleb128 .LVU523
	.uleb128 .LVU538
	.uleb128 .LVU538
	.uleb128 0
.LLST71:
	.byte	0x6
	.quad	.LVL120
	.byte	0x4
	.uleb128 .LVL120-.LVL120
	.uleb128 .LVL128-.LVL120
	.uleb128 0x1
	.byte	0x51
	.byte	0x4
	.uleb128 .LVL128-.LVL120
	.uleb128 .LVL142-.LVL120
	.uleb128 0x4
	.byte	0xa3
	.uleb128 0x1
	.byte	0x51
	.byte	0x9f
	.byte	0x4
	.uleb128 .LVL142-.LVL120
	.uleb128 .LVL147-.LVL120
	.uleb128 0x1
	.byte	0x51
	.byte	0x4
	.uleb128 .LVL147-.LVL120
	.uleb128 .LVL157-.LVL120
	.uleb128 0x1
	.byte	0x56
	.byte	0x4
	.uleb128 .LVL157-.LVL120
	.uleb128 .LVL163-.LVL120
	.uleb128 0x4
	.byte	0xa3
	.uleb128 0x1
	.byte	0x51
	.byte	0x9f
	.byte	0x4
	.uleb128 .LVL163-.LVL120
	.uleb128 .LVL168-.LVL120
	.uleb128 0x1
	.byte	0x56
	.byte	0x4
	.uleb128 .LVL168-.LVL120
	.uleb128 .LFE5785-.LVL120
	.uleb128 0x4
	.byte	0xa3
	.uleb128 0x1
	.byte	0x51
	.byte	0x9f
	.byte	0
.LVUS72:
	.uleb128 0
	.uleb128 .LVU397
	.uleb128 .LVU397
	.uleb128 .LVU403
	.uleb128 .LVU403
	.uleb128 .LVU404
	.uleb128 .LVU404
	.uleb128 .LVU450
	.uleb128 .LVU450
	.uleb128 .LVU452
	.uleb128 .LVU452
	.uleb128 .LVU471
	.uleb128 .LVU471
	.uleb128 .LVU505
	.uleb128 .LVU505
	.uleb128 .LVU520
	.uleb128 .LVU520
	.uleb128 0
.LLST72:
	.byte	0x6
	.quad	.LVL120
	.byte	0x4
	.uleb128 .LVL120-.LVL120
	.uleb128 .LVL122-.LVL120
	.uleb128 0x1
	.byte	0x52
	.byte	0x4
	.uleb128 .LVL122-.LVL120
	.uleb128 .LVL123-.LVL120
	.uleb128 0x1
	.byte	0x53
	.byte	0x4
	.uleb128 .LVL123-.LVL120
	.uleb128 .LVL124-.LVL120
	.uleb128 0x4
	.byte	0xa3
	.uleb128 0x1
	.byte	0x52
	.byte	0x9f
	.byte	0x4
	.uleb128 .LVL124-.LVL120
	.uleb128 .LVL140-.LVL120
	.uleb128 0x1
	.byte	0x53
	.byte	0x4
	.uleb128 .LVL140-.LVL120
	.uleb128 .LVL142-.LVL120
	.uleb128 0x4
	.byte	0xa3
	.uleb128 0x1
	.byte	0x52
	.byte	0x9f
	.byte	0x4
	.uleb128 .LVL142-.LVL120
	.uleb128 .LVL149-.LVL120
	.uleb128 0x1
	.byte	0x53
	.byte	0x4
	.uleb128 .LVL149-.LVL120
	.uleb128 .LVL157-.LVL120
	.uleb128 0x4
	.byte	0xa3
	.uleb128 0x1
	.byte	0x52
	.byte	0x9f
	.byte	0x4
	.uleb128 .LVL157-.LVL120
	.uleb128 .LVL162-.LVL120
	.uleb128 0x1
	.byte	0x53
	.byte	0x4
	.uleb128 .LVL162-.LVL120
	.uleb128 .LFE5785-.LVL120
	.uleb128 0x4
	.byte	0xa3
	.uleb128 0x1
	.byte	0x52
	.byte	0x9f
	.byte	0
.LVUS73:
	.uleb128 .LVU394
	.uleb128 .LVU403
	.uleb128 .LVU404
	.uleb128 .LVU502
	.uleb128 .LVU505
	.uleb128 .LVU520
	.uleb128 .LVU523
	.uleb128 .LVU524
.LLST73:
	.byte	0x6
	.quad	.LVL121
	.byte	0x4
	.uleb128 .LVL121-.LVL121
	.uleb128 .LVL123-.LVL121
	.uleb128 0x1
	.byte	0x5f
	.byte	0x4
	.uleb128 .LVL124-.LVL121
	.uleb128 .LVL155-.LVL121
	.uleb128 0x1
	.byte	0x5f
	.byte	0x4
	.uleb128 .LVL157-.LVL121
	.uleb128 .LVL162-.LVL121
	.uleb128 0x1
	.byte	0x5f
	.byte	0x4
	.uleb128 .LVL163-.LVL121
	.uleb128 .LVL164-.LVL121
	.uleb128 0x1
	.byte	0x5f
	.byte	0
.LVUS74:
	.uleb128 .LVU395
	.uleb128 .LVU403
	.uleb128 .LVU404
	.uleb128 .LVU447
	.uleb128 .LVU450
	.uleb128 .LVU506
	.uleb128 .LVU523
	.uleb128 .LVU538
.LLST74:
	.byte	0x6
	.quad	.LVL121
	.byte	0x4
	.uleb128 .LVL121-.LVL121
	.uleb128 .LVL123-.LVL121
	.uleb128 0x1
	.byte	0x5e
	.byte	0x4
	.uleb128 .LVL124-.LVL121
	.uleb128 .LVL138-.LVL121
	.uleb128 0x1
	.byte	0x5e
	.byte	0x4
	.uleb128 .LVL140-.LVL121
	.uleb128 .LVL158-.LVL121
	.uleb128 0x1
	.byte	0x5e
	.byte	0x4
	.uleb128 .LVL163-.LVL121
	.uleb128 .LVL168-.LVL121
	.uleb128 0x1
	.byte	0x5e
	.byte	0
.LVUS75:
	.uleb128 .LVU398
	.uleb128 .LVU403
	.uleb128 .LVU404
	.uleb128 .LVU417
	.uleb128 .LVU452
	.uleb128 .LVU469
	.uleb128 .LVU469
	.uleb128 .LVU502
	.uleb128 .LVU523
	.uleb128 .LVU524
	.uleb128 .LVU524
	.uleb128 .LVU538
.LLST75:
	.byte	0x6
	.quad	.LVL122
	.byte	0x4
	.uleb128 .LVL122-.LVL122
	.uleb128 .LVL123-.LVL122
	.uleb128 0x1
	.byte	0x58
	.byte	0x4
	.uleb128 .LVL124-.LVL122
	.uleb128 .LVL129-1-.LVL122
	.uleb128 0x1
	.byte	0x58
	.byte	0x4
	.uleb128 .LVL142-.LVL122
	.uleb128 .LVL148-1-.LVL122
	.uleb128 0x1
	.byte	0x58
	.byte	0x4
	.uleb128 .LVL148-1-.LVL122
	.uleb128 .LVL155-.LVL122
	.uleb128 0x3
	.byte	0x91
	.sleb128 -120
	.byte	0x4
	.uleb128 .LVL163-.LVL122
	.uleb128 .LVL164-.LVL122
	.uleb128 0x3
	.byte	0x91
	.sleb128 -120
	.byte	0x4
	.uleb128 .LVL164-.LVL122
	.uleb128 .LVL168-.LVL122
	.uleb128 0x1
	.byte	0x5f
	.byte	0
.LVUS76:
	.uleb128 .LVU399
	.uleb128 .LVU403
	.uleb128 .LVU404
	.uleb128 .LVU417
	.uleb128 .LVU417
	.uleb128 .LVU447
	.uleb128 .LVU452
	.uleb128 .LVU469
	.uleb128 .LVU505
	.uleb128 .LVU506
	.uleb128 .LVU506
	.uleb128 .LVU520
.LLST76:
	.byte	0x6
	.quad	.LVL122
	.byte	0x4
	.uleb128 .LVL122-.LVL122
	.uleb128 .LVL123-.LVL122
	.uleb128 0x1
	.byte	0x52
	.byte	0x4
	.uleb128 .LVL124-.LVL122
	.uleb128 .LVL129-1-.LVL122
	.uleb128 0x1
	.byte	0x52
	.byte	0x4
	.uleb128 .LVL129-1-.LVL122
	.uleb128 .LVL138-.LVL122
	.uleb128 0x3
	.byte	0x91
	.sleb128 -120
	.byte	0x4
	.uleb128 .LVL142-.LVL122
	.uleb128 .LVL148-1-.LVL122
	.uleb128 0x1
	.byte	0x52
	.byte	0x4
	.uleb128 .LVL157-.LVL122
	.uleb128 .LVL158-.LVL122
	.uleb128 0x3
	.byte	0x91
	.sleb128 -120
	.byte	0x4
	.uleb128 .LVL158-.LVL122
	.uleb128 .LVL162-.LVL122
	.uleb128 0x1
	.byte	0x5e
	.byte	0
.LVUS78:
	.uleb128 .LVU419
	.uleb128 .LVU450
	.uleb128 .LVU505
	.uleb128 .LVU520
.LLST78:
	.byte	0x6
	.quad	.LVL130
	.byte	0x4
	.uleb128 .LVL130-.LVL130
	.uleb128 .LVL140-.LVL130
	.uleb128 0x1
	.byte	0x56
	.byte	0x4
	.uleb128 .LVL157-.LVL130
	.uleb128 .LVL162-.LVL130
	.uleb128 0x1
	.byte	0x56
	.byte	0
.LVUS82:
	.uleb128 .LVU426
	.uleb128 .LVU427
	.uleb128 .LVU427
	.uleb128 .LVU430
	.uleb128 .LVU430
	.uleb128 .LVU432
	.uleb128 .LVU432
	.uleb128 .LVU433
	.uleb128 .LVU433
	.uleb128 .LVU433
.LLST82:
	.byte	0x6
	.quad	.LVL131
	.byte	0x4
	.uleb128 .LVL131-.LVL131
	.uleb128 .LVL132-.LVL131
	.uleb128 0x3
	.byte	0x7e
	.sleb128 -1
	.byte	0x9f
	.byte	0x4
	.uleb128 .LVL132-.LVL131
	.uleb128 .LVL133-.LVL131
	.uleb128 0x1
	.byte	0x50
	.byte	0x4
	.uleb128 .LVL133-.LVL131
	.uleb128 .LVL134-.LVL131
	.uleb128 0x1
	.byte	0x54
	.byte	0x4
	.uleb128 .LVL134-.LVL131
	.uleb128 .LVL135-1-.LVL131
	.uleb128 0x1
	.byte	0x59
	.byte	0x4
	.uleb128 .LVL135-1-.LVL131
	.uleb128 .LVL135-.LVL131
	.uleb128 0x3
	.byte	0x7e
	.sleb128 -1
	.byte	0x9f
	.byte	0
.LVUS83:
	.uleb128 .LVU433
	.uleb128 .LVU439
.LLST83:
	.byte	0x8
	.quad	.LVL135
	.uleb128 .LVL136-.LVL135
	.uleb128 0x2
	.byte	0x30
	.byte	0x9f
	.byte	0
.LVUS86:
	.uleb128 .LVU509
	.uleb128 .LVU511
.LLST86:
	.byte	0x8
	.quad	.LVL159
	.uleb128 .LVL160-.LVL159
	.uleb128 0x2
	.byte	0x30
	.byte	0x9f
	.byte	0
.LVUS80:
	.uleb128 .LVU411
	.uleb128 .LVU419
.LLST80:
	.byte	0x8
	.quad	.LVL127
	.uleb128 .LVL130-.LVL127
	.uleb128 0x3
	.byte	0x8
	.byte	0x40
	.byte	0x9f
	.byte	0
.LVUS81:
	.uleb128 .LVU410
	.uleb128 .LVU419
.LLST81:
	.byte	0x8
	.quad	.LVL127
	.uleb128 .LVL130-.LVL127
	.uleb128 0x1
	.byte	0x5d
	.byte	0
.LVUS84:
	.uleb128 .LVU442
	.uleb128 .LVU447
	.uleb128 .LVU505
	.uleb128 .LVU506
.LLST84:
	.byte	0x6
	.quad	.LVL136
	.byte	0x4
	.uleb128 .LVL136-.LVL136
	.uleb128 .LVL138-.LVL136
	.uleb128 0x3
	.byte	0x8
	.byte	0x40
	.byte	0x9f
	.byte	0x4
	.uleb128 .LVL157-.LVL136
	.uleb128 .LVL158-.LVL136
	.uleb128 0x3
	.byte	0x8
	.byte	0x40
	.byte	0x9f
	.byte	0
.LVUS85:
	.uleb128 .LVU441
	.uleb128 .LVU447
	.uleb128 .LVU505
	.uleb128 .LVU506
.LLST85:
	.byte	0x6
	.quad	.LVL136
	.byte	0x4
	.uleb128 .LVL136-.LVL136
	.uleb128 .LVL138-.LVL136
	.uleb128 0x1
	.byte	0x5d
	.byte	0x4
	.uleb128 .LVL157-.LVL136
	.uleb128 .LVL158-.LVL136
	.uleb128 0x1
	.byte	0x5d
	.byte	0
.LVUS87:
	.uleb128 .LVU517
	.uleb128 .LVU520
.LLST87:
	.byte	0x8
	.quad	.LVL161
	.uleb128 .LVL162-.LVL161
	.uleb128 0x1
	.byte	0x56
	.byte	0
.LVUS89:
	.uleb128 .LVU471
	.uleb128 .LVU505
	.uleb128 .LVU523
	.uleb128 .LVU538
.LLST89:
	.byte	0x6
	.quad	.LVL149
	.byte	0x4
	.uleb128 .LVL149-.LVL149
	.uleb128 .LVL157-.LVL149
	.uleb128 0x1
	.byte	0x53
	.byte	0x4
	.uleb128 .LVL163-.LVL149
	.uleb128 .LVL168-.LVL149
	.uleb128 0x1
	.byte	0x53
	.byte	0
.LVUS93:
	.uleb128 .LVU478
	.uleb128 .LVU479
	.uleb128 .LVU479
	.uleb128 .LVU488
	.uleb128 .LVU488
	.uleb128 .LVU488
.LLST93:
	.byte	0x6
	.quad	.LVL150
	.byte	0x4
	.uleb128 .LVL150-.LVL150
	.uleb128 .LVL151-.LVL150
	.uleb128 0x3
	.byte	0x7f
	.sleb128 -1
	.byte	0x9f
	.byte	0x4
	.uleb128 .LVL151-.LVL150
	.uleb128 .LVL152-1-.LVL150
	.uleb128 0x1
	.byte	0x50
	.byte	0x4
	.uleb128 .LVL152-1-.LVL150
	.uleb128 .LVL152-.LVL150
	.uleb128 0x3
	.byte	0x7f
	.sleb128 -1
	.byte	0x9f
	.byte	0
.LVUS94:
	.uleb128 .LVU488
	.uleb128 .LVU494
.LLST94:
	.byte	0x8
	.quad	.LVL152
	.uleb128 .LVL153-.LVL152
	.uleb128 0x2
	.byte	0x30
	.byte	0x9f
	.byte	0
.LVUS99:
	.uleb128 .LVU527
	.uleb128 .LVU529
.LLST99:
	.byte	0x8
	.quad	.LVL165
	.uleb128 .LVL166-.LVL165
	.uleb128 0x2
	.byte	0x30
	.byte	0x9f
	.byte	0
.LVUS91:
	.uleb128 .LVU461
	.uleb128 .LVU471
.LLST91:
	.byte	0x8
	.quad	.LVL146
	.uleb128 .LVL149-.LVL146
	.uleb128 0x3
	.byte	0x8
	.byte	0x40
	.byte	0x9f
	.byte	0
.LVUS92:
	.uleb128 .LVU460
	.uleb128 .LVU471
.LLST92:
	.byte	0x8
	.quad	.LVL146
	.uleb128 .LVL149-.LVL146
	.uleb128 0x1
	.byte	0x5c
	.byte	0
.LVUS95:
	.uleb128 .LVU497
	.uleb128 .LVU502
	.uleb128 .LVU523
	.uleb128 .LVU524
.LLST95:
	.byte	0x6
	.quad	.LVL153
	.byte	0x4
	.uleb128 .LVL153-.LVL153
	.uleb128 .LVL155-.LVL153
	.uleb128 0x3
	.byte	0x8
	.byte	0x40
	.byte	0x9f
	.byte	0x4
	.uleb128 .LVL163-.LVL153
	.uleb128 .LVL164-.LVL153
	.uleb128 0x3
	.byte	0x8
	.byte	0x40
	.byte	0x9f
	.byte	0
.LVUS96:
	.uleb128 .LVU496
	.uleb128 .LVU502
	.uleb128 .LVU523
	.uleb128 .LVU524
.LLST96:
	.byte	0x6
	.quad	.LVL153
	.byte	0x4
	.uleb128 .LVL153-.LVL153
	.uleb128 .LVL155-.LVL153
	.uleb128 0x1
	.byte	0x5c
	.byte	0x4
	.uleb128 .LVL163-.LVL153
	.uleb128 .LVL164-.LVL153
	.uleb128 0x1
	.byte	0x5c
	.byte	0
.LVUS98:
	.uleb128 .LVU535
	.uleb128 .LVU538
.LLST98:
	.byte	0x8
	.quad	.LVL167
	.uleb128 .LVL168-.LVL167
	.uleb128 0x1
	.byte	0x53
	.byte	0
.LVUS49:
	.uleb128 0
	.uleb128 .LVU177
	.uleb128 .LVU177
	.uleb128 .LVU255
	.uleb128 .LVU255
	.uleb128 .LVU380
	.uleb128 .LVU380
	.uleb128 .LVU383
	.uleb128 .LVU383
	.uleb128 0
.LLST49:
	.byte	0x6
	.quad	.LVL64
	.byte	0x4
	.uleb128 .LVL64-.LVL64
	.uleb128 .LVL66-.LVL64
	.uleb128 0x1
	.byte	0x55
	.byte	0x4
	.uleb128 .LVL66-.LVL64
	.uleb128 .LVL83-.LVL64
	.uleb128 0x1
	.byte	0x5e
	.byte	0x4
	.uleb128 .LVL83-.LVL64
	.uleb128 .LVL114-.LVL64
	.uleb128 0x4
	.byte	0xa3
	.uleb128 0x1
	.byte	0x55
	.byte	0x9f
	.byte	0x4
	.uleb128 .LVL114-.LVL64
	.uleb128 .LVL116-.LVL64
	.uleb128 0x1
	.byte	0x5e
	.byte	0x4
	.uleb128 .LVL116-.LVL64
	.uleb128 .LFE5784-.LVL64
	.uleb128 0x4
	.byte	0xa3
	.uleb128 0x1
	.byte	0x55
	.byte	0x9f
	.byte	0
.LVUS50:
	.uleb128 0
	.uleb128 .LVU175
	.uleb128 .LVU175
	.uleb128 .LVU368
	.uleb128 .LVU368
	.uleb128 .LVU370
	.uleb128 .LVU370
	.uleb128 .LVU373
	.uleb128 .LVU373
	.uleb128 .LVU380
	.uleb128 .LVU380
	.uleb128 .LVU383
	.uleb128 .LVU383
	.uleb128 .LVU384
	.uleb128 .LVU384
	.uleb128 0
.LLST50:
	.byte	0x6
	.quad	.LVL64
	.byte	0x4
	.uleb128 .LVL64-.LVL64
	.uleb128 .LVL65-.LVL64
	.uleb128 0x1
	.byte	0x54
	.byte	0x4
	.uleb128 .LVL65-.LVL64
	.uleb128 .LVL108-.LVL64
	.uleb128 0x1
	.byte	0x5d
	.byte	0x4
	.uleb128 .LVL108-.LVL64
	.uleb128 .LVL110-.LVL64
	.uleb128 0x4
	.byte	0xa3
	.uleb128 0x1
	.byte	0x54
	.byte	0x9f
	.byte	0x4
	.uleb128 .LVL110-.LVL64
	.uleb128 .LVL111-.LVL64
	.uleb128 0x1
	.byte	0x5d
	.byte	0x4
	.uleb128 .LVL111-.LVL64
	.uleb128 .LVL114-.LVL64
	.uleb128 0x4
	.byte	0xa3
	.uleb128 0x1
	.byte	0x54
	.byte	0x9f
	.byte	0x4
	.uleb128 .LVL114-.LVL64
	.uleb128 .LVL116-.LVL64
	.uleb128 0x1
	.byte	0x5d
	.byte	0x4
	.uleb128 .LVL116-.LVL64
	.uleb128 .LVL117-.LVL64
	.uleb128 0x4
	.byte	0xa3
	.uleb128 0x1
	.byte	0x54
	.byte	0x9f
	.byte	0x4
	.uleb128 .LVL117-.LVL64
	.uleb128 .LFE5784-.LVL64
	.uleb128 0x1
	.byte	0x5d
	.byte	0
.LVUS51:
	.uleb128 .LVU178
	.uleb128 .LVU186
	.uleb128 .LVU186
	.uleb128 .LVU191
	.uleb128 .LVU191
	.uleb128 .LVU369
	.uleb128 .LVU370
	.uleb128 .LVU380
	.uleb128 .LVU380
	.uleb128 .LVU382
	.uleb128 .LVU383
	.uleb128 0
.LLST51:
	.byte	0x6
	.quad	.LVL67
	.byte	0x4
	.uleb128 .LVL67-.LVL67
	.uleb128 .LVL69-.LVL67
	.uleb128 0x1
	.byte	0x50
	.byte	0x4
	.uleb128 .LVL69-.LVL67
	.uleb128 .LVL70-1-.LVL67
	.uleb128 0x1
	.byte	0x55
	.byte	0x4
	.uleb128 .LVL70-1-.LVL67
	.uleb128 .LVL109-.LVL67
	.uleb128 0x1
	.byte	0x56
	.byte	0x4
	.uleb128 .LVL110-.LVL67
	.uleb128 .LVL114-.LVL67
	.uleb128 0x1
	.byte	0x56
	.byte	0x4
	.uleb128 .LVL114-.LVL67
	.uleb128 .LVL115-1-.LVL67
	.uleb128 0x1
	.byte	0x50
	.byte	0x4
	.uleb128 .LVL116-.LVL67
	.uleb128 .LFE5784-.LVL67
	.uleb128 0x1
	.byte	0x56
	.byte	0
.LVUS52:
	.uleb128 .LVU182
	.uleb128 .LVU256
.LLST52:
	.byte	0x8
	.quad	.LVL68
	.uleb128 .LVL84-.LVL68
	.uleb128 0x2
	.byte	0x30
	.byte	0x9f
	.byte	0
.LVUS53:
	.uleb128 .LVU293
	.uleb128 .LVU300
	.uleb128 .LVU300
	.uleb128 .LVU368
	.uleb128 .LVU384
	.uleb128 .LVU385
	.uleb128 .LVU385
	.uleb128 0
.LLST53:
	.byte	0x6
	.quad	.LVL87
	.byte	0x4
	.uleb128 .LVL87-.LVL87
	.uleb128 .LVL89-.LVL87
	.uleb128 0x1
	.byte	0x50
	.byte	0x4
	.uleb128 .LVL89-.LVL87
	.uleb128 .LVL108-.LVL87
	.uleb128 0x1
	.byte	0x5f
	.byte	0x4
	.uleb128 .LVL117-.LVL87
	.uleb128 .LVL118-1-.LVL87
	.uleb128 0x1
	.byte	0x50
	.byte	0x4
	.uleb128 .LVL118-1-.LVL87
	.uleb128 .LFE5784-.LVL87
	.uleb128 0x1
	.byte	0x5f
	.byte	0
.LVUS54:
	.uleb128 .LVU295
	.uleb128 .LVU300
	.uleb128 .LVU306
	.uleb128 .LVU309
	.uleb128 .LVU315
	.uleb128 .LVU316
	.uleb128 .LVU322
	.uleb128 .LVU323
	.uleb128 .LVU329
	.uleb128 .LVU330
	.uleb128 .LVU336
	.uleb128 .LVU337
	.uleb128 .LVU343
	.uleb128 .LVU344
	.uleb128 .LVU350
	.uleb128 .LVU351
	.uleb128 .LVU357
	.uleb128 .LVU361
.LLST54:
	.byte	0x6
	.quad	.LVL88
	.byte	0x4
	.uleb128 .LVL88-.LVL88
	.uleb128 .LVL89-.LVL88
	.uleb128 0x2
	.byte	0x30
	.byte	0x9f
	.byte	0x4
	.uleb128 .LVL90-.LVL88
	.uleb128 .LVL91-.LVL88
	.uleb128 0x1
	.byte	0x51
	.byte	0x4
	.uleb128 .LVL92-.LVL88
	.uleb128 .LVL93-.LVL88
	.uleb128 0x1
	.byte	0x51
	.byte	0x4
	.uleb128 .LVL94-.LVL88
	.uleb128 .LVL95-.LVL88
	.uleb128 0x1
	.byte	0x51
	.byte	0x4
	.uleb128 .LVL96-.LVL88
	.uleb128 .LVL97-.LVL88
	.uleb128 0x1
	.byte	0x51
	.byte	0x4
	.uleb128 .LVL98-.LVL88
	.uleb128 .LVL99-.LVL88
	.uleb128 0x1
	.byte	0x51
	.byte	0x4
	.uleb128 .LVL100-.LVL88
	.uleb128 .LVL101-.LVL88
	.uleb128 0x1
	.byte	0x51
	.byte	0x4
	.uleb128 .LVL102-.LVL88
	.uleb128 .LVL103-.LVL88
	.uleb128 0x1
	.byte	0x51
	.byte	0x4
	.uleb128 .LVL104-.LVL88
	.uleb128 .LVL105-.LVL88
	.uleb128 0x1
	.byte	0x51
	.byte	0
.LVUS59:
	.uleb128 .LVU195
	.uleb128 .LVU196
.LLST59:
	.byte	0x8
	.quad	.LVL70
	.uleb128 .LVL71-.LVL70
	.uleb128 0x2
	.byte	0x31
	.byte	0x9f
	.byte	0
.LVUS62:
	.uleb128 .LVU198
	.uleb128 .LVU201
	.uleb128 .LVU211
	.uleb128 .LVU214
	.uleb128 .LVU224
	.uleb128 .LVU227
	.uleb128 .LVU237
	.uleb128 .LVU242
.LLST62:
	.byte	0x6
	.quad	.LVL71
	.byte	0x4
	.uleb128 .LVL71-.LVL71
	.uleb128 .LVL72-.LVL71
	.uleb128 0xa
	.byte	0x3
	.quad	.LC7
	.byte	0x9f
	.byte	0x4
	.uleb128 .LVL74-.LVL71
	.uleb128 .LVL75-.LVL71
	.uleb128 0xa
	.byte	0x3
	.quad	.LC7
	.byte	0x9f
	.byte	0x4
	.uleb128 .LVL77-.LVL71
	.uleb128 .LVL78-.LVL71
	.uleb128 0xa
	.byte	0x3
	.quad	.LC7
	.byte	0x9f
	.byte	0x4
	.uleb128 .LVL80-.LVL71
	.uleb128 .LVL81-.LVL71
	.uleb128 0xa
	.byte	0x3
	.quad	.LC7
	.byte	0x9f
	.byte	0
.LVUS63:
	.uleb128 .LVU198
	.uleb128 .LVU201
	.uleb128 .LVU211
	.uleb128 .LVU214
	.uleb128 .LVU224
	.uleb128 .LVU227
	.uleb128 .LVU237
	.uleb128 .LVU242
.LLST63:
	.byte	0x6
	.quad	.LVL71
	.byte	0x4
	.uleb128 .LVL71-.LVL71
	.uleb128 .LVL72-.LVL71
	.uleb128 0x2
	.byte	0x49
	.byte	0x9f
	.byte	0x4
	.uleb128 .LVL74-.LVL71
	.uleb128 .LVL75-.LVL71
	.uleb128 0x2
	.byte	0x49
	.byte	0x9f
	.byte	0x4
	.uleb128 .LVL77-.LVL71
	.uleb128 .LVL78-.LVL71
	.uleb128 0x2
	.byte	0x49
	.byte	0x9f
	.byte	0x4
	.uleb128 .LVL80-.LVL71
	.uleb128 .LVL81-.LVL71
	.uleb128 0x2
	.byte	0x49
	.byte	0x9f
	.byte	0
.LVUS64:
	.uleb128 .LVU198
	.uleb128 .LVU201
	.uleb128 .LVU211
	.uleb128 .LVU214
	.uleb128 .LVU224
	.uleb128 .LVU227
	.uleb128 .LVU237
	.uleb128 .LVU242
.LLST64:
	.byte	0x6
	.quad	.LVL71
	.byte	0x4
	.uleb128 .LVL71-.LVL71
	.uleb128 .LVL72-.LVL71
	.uleb128 0x1
	.byte	0x53
	.byte	0x4
	.uleb128 .LVL74-.LVL71
	.uleb128 .LVL75-.LVL71
	.uleb128 0x1
	.byte	0x53
	.byte	0x4
	.uleb128 .LVL77-.LVL71
	.uleb128 .LVL78-.LVL71
	.uleb128 0x1
	.byte	0x53
	.byte	0x4
	.uleb128 .LVL80-.LVL71
	.uleb128 .LVL81-.LVL71
	.uleb128 0x1
	.byte	0x53
	.byte	0
.LVUS66:
	.uleb128 .LVU203
	.uleb128 .LVU206
	.uleb128 .LVU216
	.uleb128 .LVU219
	.uleb128 .LVU229
	.uleb128 .LVU232
	.uleb128 .LVU244
	.uleb128 .LVU247
.LLST66:
	.byte	0x6
	.quad	.LVL72
	.byte	0x4
	.uleb128 .LVL72-.LVL72
	.uleb128 .LVL73-.LVL72
	.uleb128 0x1
	.byte	0x53
	.byte	0x4
	.uleb128 .LVL75-.LVL72
	.uleb128 .LVL76-.LVL72
	.uleb128 0x1
	.byte	0x53
	.byte	0x4
	.uleb128 .LVL78-.LVL72
	.uleb128 .LVL79-.LVL72
	.uleb128 0x1
	.byte	0x53
	.byte	0x4
	.uleb128 .LVL81-.LVL72
	.uleb128 .LVL82-.LVL72
	.uleb128 0x1
	.byte	0x53
	.byte	0
.LVUS67:
	.uleb128 .LVU203
	.uleb128 .LVU206
	.uleb128 .LVU216
	.uleb128 .LVU219
	.uleb128 .LVU229
	.uleb128 .LVU232
	.uleb128 .LVU244
	.uleb128 .LVU247
.LLST67:
	.byte	0x6
	.quad	.LVL72
	.byte	0x4
	.uleb128 .LVL72-.LVL72
	.uleb128 .LVL73-.LVL72
	.uleb128 0x1
	.byte	0x56
	.byte	0x4
	.uleb128 .LVL75-.LVL72
	.uleb128 .LVL76-.LVL72
	.uleb128 0x1
	.byte	0x56
	.byte	0x4
	.uleb128 .LVL78-.LVL72
	.uleb128 .LVL79-.LVL72
	.uleb128 0x1
	.byte	0x56
	.byte	0x4
	.uleb128 .LVL81-.LVL72
	.uleb128 .LVL82-.LVL72
	.uleb128 0x1
	.byte	0x56
	.byte	0
.LVUS68:
	.uleb128 .LVU376
	.uleb128 .LVU380
.LLST68:
	.byte	0x8
	.quad	.LVL113
	.uleb128 .LVL114-.LVL113
	.uleb128 0x1
	.byte	0x50
	.byte	0
.LVUS56:
	.uleb128 .LVU183
	.uleb128 .LVU191
.LLST56:
	.byte	0x8
	.quad	.LVL68
	.uleb128 .LVL70-.LVL68
	.uleb128 0xa
	.byte	0x3
	.quad	.LC6
	.byte	0x9f
	.byte	0
.LVUS57:
	.uleb128 .LVU183
	.uleb128 .LVU186
	.uleb128 .LVU186
	.uleb128 .LVU191
	.uleb128 .LVU191
	.uleb128 .LVU191
.LLST57:
	.byte	0x6
	.quad	.LVL68
	.byte	0x4
	.uleb128 .LVL68-.LVL68
	.uleb128 .LVL69-.LVL68
	.uleb128 0x1
	.byte	0x50
	.byte	0x4
	.uleb128 .LVL69-.LVL68
	.uleb128 .LVL70-1-.LVL68
	.uleb128 0x1
	.byte	0x55
	.byte	0x4
	.uleb128 .LVL70-1-.LVL68
	.uleb128 .LVL70-.LVL68
	.uleb128 0x1
	.byte	0x56
	.byte	0
.LVUS29:
	.uleb128 0
	.uleb128 .LVU102
	.uleb128 .LVU102
	.uleb128 .LVU169
	.uleb128 .LVU169
	.uleb128 .LVU170
	.uleb128 .LVU170
	.uleb128 0
.LLST29:
	.byte	0x6
	.quad	.LVL36
	.byte	0x4
	.uleb128 .LVL36-.LVL36
	.uleb128 .LVL39-.LVL36
	.uleb128 0x1
	.byte	0x55
	.byte	0x4
	.uleb128 .LVL39-.LVL36
	.uleb128 .LVL61-.LVL36
	.uleb128 0x1
	.byte	0x5e
	.byte	0x4
	.uleb128 .LVL61-.LVL36
	.uleb128 .LVL62-.LVL36
	.uleb128 0x4
	.byte	0xa3
	.uleb128 0x1
	.byte	0x55
	.byte	0x9f
	.byte	0x4
	.uleb128 .LVL62-.LVL36
	.uleb128 .LFE5783-.LVL36
	.uleb128 0x1
	.byte	0x5e
	.byte	0
.LVUS30:
	.uleb128 0
	.uleb128 .LVU96
	.uleb128 .LVU96
	.uleb128 .LVU168
	.uleb128 .LVU168
	.uleb128 .LVU170
	.uleb128 .LVU170
	.uleb128 0
.LLST30:
	.byte	0x6
	.quad	.LVL36
	.byte	0x4
	.uleb128 .LVL36-.LVL36
	.uleb128 .LVL37-.LVL36
	.uleb128 0x1
	.byte	0x54
	.byte	0x4
	.uleb128 .LVL37-.LVL36
	.uleb128 .LVL60-.LVL36
	.uleb128 0x1
	.byte	0x5c
	.byte	0x4
	.uleb128 .LVL60-.LVL36
	.uleb128 .LVL62-.LVL36
	.uleb128 0x4
	.byte	0xa3
	.uleb128 0x1
	.byte	0x54
	.byte	0x9f
	.byte	0x4
	.uleb128 .LVL62-.LVL36
	.uleb128 .LFE5783-.LVL36
	.uleb128 0x1
	.byte	0x5c
	.byte	0
.LVUS31:
	.uleb128 .LVU121
	.uleb128 .LVU127
.LLST31:
	.byte	0x8
	.quad	.LVL46
	.uleb128 .LVL48-1-.LVL46
	.uleb128 0x1
	.byte	0x58
	.byte	0
.LVUS32:
	.uleb128 .LVU100
	.uleb128 .LVU137
	.uleb128 .LVU137
	.uleb128 .LVU161
.LLST32:
	.byte	0x6
	.quad	.LVL38
	.byte	0x4
	.uleb128 .LVL38-.LVL38
	.uleb128 .LVL50-.LVL38
	.uleb128 0x1
	.byte	0x5d
	.byte	0x4
	.uleb128 .LVL50-.LVL38
	.uleb128 .LVL58-.LVL38
	.uleb128 0x3
	.byte	0x71
	.sleb128 2
	.byte	0x9f
	.byte	0
.LVUS33:
	.uleb128 .LVU105
	.uleb128 .LVU167
	.uleb128 .LVU167
	.uleb128 .LVU168
	.uleb128 .LVU168
	.uleb128 .LVU170
	.uleb128 .LVU170
	.uleb128 0
.LLST33:
	.byte	0x6
	.quad	.LVL40
	.byte	0x4
	.uleb128 .LVL40-.LVL40
	.uleb128 .LVL59-.LVL40
	.uleb128 0x1
	.byte	0x53
	.byte	0x4
	.uleb128 .LVL59-.LVL40
	.uleb128 .LVL60-.LVL40
	.uleb128 0x2
	.byte	0x7c
	.sleb128 0
	.byte	0x4
	.uleb128 .LVL60-.LVL40
	.uleb128 .LVL62-.LVL40
	.uleb128 0x3
	.byte	0xa3
	.uleb128 0x1
	.byte	0x54
	.byte	0x4
	.uleb128 .LVL62-.LVL40
	.uleb128 .LFE5783-.LVL40
	.uleb128 0x1
	.byte	0x53
	.byte	0
.LVUS34:
	.uleb128 .LVU132
	.uleb128 .LVU137
	.uleb128 .LVU137
	.uleb128 .LVU138
	.uleb128 .LVU138
	.uleb128 .LVU139
	.uleb128 .LVU139
	.uleb128 .LVU149
	.uleb128 .LVU149
	.uleb128 .LVU161
.LLST34:
	.byte	0x6
	.quad	.LVL49
	.byte	0x4
	.uleb128 .LVL49-.LVL49
	.uleb128 .LVL50-.LVL49
	.uleb128 0x3
	.byte	0x7d
	.sleb128 -1
	.byte	0x9f
	.byte	0x4
	.uleb128 .LVL50-.LVL49
	.uleb128 .LVL51-.LVL49
	.uleb128 0x3
	.byte	0x71
	.sleb128 1
	.byte	0x9f
	.byte	0x4
	.uleb128 .LVL51-.LVL49
	.uleb128 .LVL52-.LVL49
	.uleb128 0x1
	.byte	0x50
	.byte	0x4
	.uleb128 .LVL52-.LVL49
	.uleb128 .LVL55-.LVL49
	.uleb128 0x3
	.byte	0x70
	.sleb128 1
	.byte	0x9f
	.byte	0x4
	.uleb128 .LVL55-.LVL49
	.uleb128 .LVL58-.LVL49
	.uleb128 0x1
	.byte	0x50
	.byte	0
.LVUS35:
	.uleb128 .LVU133
	.uleb128 .LVU138
	.uleb128 .LVU154
	.uleb128 .LVU157
	.uleb128 .LVU157
	.uleb128 .LVU161
.LLST35:
	.byte	0x6
	.quad	.LVL49
	.byte	0x4
	.uleb128 .LVL49-.LVL49
	.uleb128 .LVL51-.LVL49
	.uleb128 0x1
	.byte	0x59
	.byte	0x4
	.uleb128 .LVL56-.LVL49
	.uleb128 .LVL57-.LVL49
	.uleb128 0x3
	.byte	0x79
	.sleb128 -1
	.byte	0x9f
	.byte	0x4
	.uleb128 .LVL57-.LVL49
	.uleb128 .LVL58-.LVL49
	.uleb128 0x1
	.byte	0x59
	.byte	0
.LVUS45:
	.uleb128 .LVU139
	.uleb128 .LVU157
	.uleb128 .LVU157
	.uleb128 .LVU161
.LLST45:
	.byte	0x6
	.quad	.LVL52
	.byte	0x4
	.uleb128 .LVL52-.LVL52
	.uleb128 .LVL57-.LVL52
	.uleb128 0x1
	.byte	0x54
	.byte	0x4
	.uleb128 .LVL57-.LVL52
	.uleb128 .LVL58-.LVL52
	.uleb128 0x2
	.byte	0x30
	.byte	0x9f
	.byte	0
.LVUS46:
	.uleb128 .LVU139
	.uleb128 .LVU145
	.uleb128 .LVU157
	.uleb128 .LVU161
.LLST46:
	.byte	0x6
	.quad	.LVL52
	.byte	0x4
	.uleb128 .LVL52-.LVL52
	.uleb128 .LVL54-.LVL52
	.uleb128 0x1
	.byte	0x5d
	.byte	0x4
	.uleb128 .LVL57-.LVL52
	.uleb128 .LVL58-.LVL52
	.uleb128 0x2
	.byte	0x31
	.byte	0x9f
	.byte	0
.LVUS48:
	.uleb128 .LVU139
	.uleb128 .LVU142
	.uleb128 .LVU142
	.uleb128 .LVU149
	.uleb128 .LVU149
	.uleb128 .LVU157
	.uleb128 .LVU157
	.uleb128 .LVU161
.LLST48:
	.byte	0x6
	.quad	.LVL52
	.byte	0x4
	.uleb128 .LVL52-.LVL52
	.uleb128 .LVL53-.LVL52
	.uleb128 0x1
	.byte	0x5b
	.byte	0x4
	.uleb128 .LVL53-.LVL52
	.uleb128 .LVL55-.LVL52
	.uleb128 0x3
	.byte	0x7b
	.sleb128 -1
	.byte	0x9f
	.byte	0x4
	.uleb128 .LVL55-.LVL52
	.uleb128 .LVL57-.LVL52
	.uleb128 0x1
	.byte	0x5b
	.byte	0x4
	.uleb128 .LVL57-.LVL52
	.uleb128 .LVL58-.LVL52
	.uleb128 0x2
	.byte	0x30
	.byte	0x9f
	.byte	0
.LVUS37:
	.uleb128 .LVU108
	.uleb128 .LVU113
	.uleb128 .LVU120
	.uleb128 .LVU121
.LLST37:
	.byte	0x6
	.quad	.LVL41
	.byte	0x4
	.uleb128 .LVL41-.LVL41
	.uleb128 .LVL43-.LVL41
	.uleb128 0x3
	.byte	0x8
	.byte	0x40
	.byte	0x9f
	.byte	0x4
	.uleb128 .LVL45-.LVL41
	.uleb128 .LVL46-.LVL41
	.uleb128 0x3
	.byte	0x8
	.byte	0x40
	.byte	0x9f
	.byte	0
.LVUS38:
	.uleb128 .LVU107
	.uleb128 .LVU113
	.uleb128 .LVU120
	.uleb128 .LVU121
.LLST38:
	.byte	0x6
	.quad	.LVL41
	.byte	0x4
	.uleb128 .LVL41-.LVL41
	.uleb128 .LVL43-.LVL41
	.uleb128 0x1
	.byte	0x5f
	.byte	0x4
	.uleb128 .LVL45-.LVL41
	.uleb128 .LVL46-.LVL41
	.uleb128 0x1
	.byte	0x5f
	.byte	0
.LVUS39:
	.uleb128 .LVU115
	.uleb128 .LVU118
.LLST39:
	.byte	0x8
	.quad	.LVL43
	.uleb128 .LVL44-.LVL43
	.uleb128 0x6
	.byte	0xa0
	.long	.Ldebug_info0+20401
	.sleb128 0
	.byte	0
.LVUS41:
	.uleb128 .LVU124
	.uleb128 .LVU130
.LLST41:
	.byte	0x8
	.quad	.LVL47
	.uleb128 .LVL49-.LVL47
	.uleb128 0x1
	.byte	0x5f
	.byte	0
.LVUS42:
	.uleb128 .LVU124
	.uleb128 .LVU130
.LLST42:
	.byte	0x8
	.quad	.LVL47
	.uleb128 .LVL49-.LVL47
	.uleb128 0x2
	.byte	0x30
	.byte	0x9f
	.byte	0
.LVUS43:
	.uleb128 .LVU124
	.uleb128 .LVU127
.LLST43:
	.byte	0x8
	.quad	.LVL47
	.uleb128 .LVL48-1-.LVL47
	.uleb128 0x1
	.byte	0x58
	.byte	0
.LVUS347:
	.uleb128 0
	.uleb128 .LVU3006
	.uleb128 .LVU3006
	.uleb128 .LVU3014
	.uleb128 .LVU3014
	.uleb128 .LVU3018
	.uleb128 .LVU3018
	.uleb128 0
.LLST347:
	.byte	0x6
	.quad	.LVL718
	.byte	0x4
	.uleb128 .LVL718-.LVL718
	.uleb128 .LVL720-.LVL718
	.uleb128 0x1
	.byte	0x55
	.byte	0x4
	.uleb128 .LVL720-.LVL718
	.uleb128 .LVL724-.LVL718
	.uleb128 0x4
	.byte	0xa3
	.uleb128 0x1
	.byte	0x55
	.byte	0x9f
	.byte	0x4
	.uleb128 .LVL724-.LVL718
	.uleb128 .LVL725-.LVL718
	.uleb128 0x1
	.byte	0x55
	.byte	0x4
	.uleb128 .LVL725-.LVL718
	.uleb128 .LFE5782-.LVL718
	.uleb128 0x4
	.byte	0xa3
	.uleb128 0x1
	.byte	0x55
	.byte	0x9f
	.byte	0
.LVUS348:
	.uleb128 0
	.uleb128 .LVU3007
	.uleb128 .LVU3007
	.uleb128 .LVU3013
	.uleb128 .LVU3013
	.uleb128 .LVU3014
	.uleb128 .LVU3014
	.uleb128 0
.LLST348:
	.byte	0x6
	.quad	.LVL718
	.byte	0x4
	.uleb128 .LVL718-.LVL718
	.uleb128 .LVL721-.LVL718
	.uleb128 0x1
	.byte	0x54
	.byte	0x4
	.uleb128 .LVL721-.LVL718
	.uleb128 .LVL723-.LVL718
	.uleb128 0x1
	.byte	0x53
	.byte	0x4
	.uleb128 .LVL723-.LVL718
	.uleb128 .LVL724-.LVL718
	.uleb128 0x4
	.byte	0xa3
	.uleb128 0x1
	.byte	0x54
	.byte	0x9f
	.byte	0x4
	.uleb128 .LVL724-.LVL718
	.uleb128 .LFE5782-.LVL718
	.uleb128 0x1
	.byte	0x53
	.byte	0
.LVUS350:
	.uleb128 .LVU3003
	.uleb128 .LVU3010
.LLST350:
	.byte	0x8
	.quad	.LVL719
	.uleb128 .LVL722-.LVL719
	.uleb128 0xa
	.byte	0x3
	.quad	.LC41
	.byte	0x9f
	.byte	0
.LVUS351:
	.uleb128 .LVU3015
	.uleb128 .LVU3019
.LLST351:
	.byte	0x8
	.quad	.LVL724
	.uleb128 .LVL726-1-.LVL724
	.uleb128 0x2
	.byte	0x73
	.sleb128 8
	.byte	0
.LVUS353:
	.uleb128 .LVU3022
	.uleb128 .LVU3025
.LLST353:
	.byte	0x8
	.quad	.LVL727
	.uleb128 .LVL728-1-.LVL727
	.uleb128 0x2
	.byte	0x73
	.sleb128 8
	.byte	0
.LVUS355:
	.uleb128 .LVU3028
	.uleb128 .LVU3031
.LLST355:
	.byte	0x8
	.quad	.LVL729
	.uleb128 .LVL730-1-.LVL729
	.uleb128 0x1
	.byte	0x55
	.byte	0
.LVUS357:
	.uleb128 .LVU3036
	.uleb128 .LVU3041
.LLST357:
	.byte	0x8
	.quad	.LVL731
	.uleb128 .LVL733-.LVL731
	.uleb128 0x3
	.byte	0x8
	.byte	0x40
	.byte	0x9f
	.byte	0
.LVUS358:
	.uleb128 .LVU3035
	.uleb128 .LVU3041
.LLST358:
	.byte	0x8
	.quad	.LVL731
	.uleb128 .LVL733-.LVL731
	.uleb128 0x4
	.byte	0x40
	.byte	0x4a
	.byte	0x24
	.byte	0x9f
	.byte	0
.LVUS360:
	.uleb128 .LVU3045
	.uleb128 .LVU3050
	.uleb128 .LVU3076
	.uleb128 .LVU3082
.LLST360:
	.byte	0x6
	.quad	.LVL734
	.byte	0x4
	.uleb128 .LVL734-.LVL734
	.uleb128 .LVL736-.LVL734
	.uleb128 0x3
	.byte	0x8
	.byte	0x40
	.byte	0x9f
	.byte	0x4
	.uleb128 .LVL742-.LVL734
	.uleb128 .LVL744-.LVL734
	.uleb128 0x3
	.byte	0x8
	.byte	0x40
	.byte	0x9f
	.byte	0
.LVUS361:
	.uleb128 .LVU3044
	.uleb128 .LVU3050
	.uleb128 .LVU3075
	.uleb128 .LVU3082
.LLST361:
	.byte	0x6
	.quad	.LVL734
	.byte	0x4
	.uleb128 .LVL734-.LVL734
	.uleb128 .LVL736-.LVL734
	.uleb128 0x4
	.byte	0x40
	.byte	0x4a
	.byte	0x24
	.byte	0x9f
	.byte	0x4
	.uleb128 .LVL742-.LVL734
	.uleb128 .LVL744-.LVL734
	.uleb128 0x4
	.byte	0x40
	.byte	0x4a
	.byte	0x24
	.byte	0x9f
	.byte	0
.LVUS363:
	.uleb128 .LVU3060
	.uleb128 .LVU3063
.LLST363:
	.byte	0x8
	.quad	.LVL737
	.uleb128 .LVL738-.LVL737
	.uleb128 0x4
	.byte	0x40
	.byte	0x4a
	.byte	0x24
	.byte	0x9f
	.byte	0
.LVUS364:
	.uleb128 .LVU3060
	.uleb128 .LVU3063
.LLST364:
	.byte	0x8
	.quad	.LVL737
	.uleb128 .LVL738-.LVL737
	.uleb128 0x2
	.byte	0x30
	.byte	0x9f
	.byte	0
.LVUS365:
	.uleb128 .LVU3060
	.uleb128 .LVU3063
	.uleb128 .LVU3063
	.uleb128 .LVU3063
.LLST365:
	.byte	0x6
	.quad	.LVL737
	.byte	0x4
	.uleb128 .LVL737-.LVL737
	.uleb128 .LVL738-1-.LVL737
	.uleb128 0x1
	.byte	0x55
	.byte	0x4
	.uleb128 .LVL738-1-.LVL737
	.uleb128 .LVL738-.LVL737
	.uleb128 0x1
	.byte	0x5d
	.byte	0
.LVUS366:
	.uleb128 .LVU3065
	.uleb128 .LVU3068
.LLST366:
	.byte	0x8
	.quad	.LVL738
	.uleb128 .LVL739-.LVL738
	.uleb128 0x4
	.byte	0x40
	.byte	0x4a
	.byte	0x24
	.byte	0x9f
	.byte	0
.LVUS367:
	.uleb128 .LVU3065
	.uleb128 .LVU3068
.LLST367:
	.byte	0x8
	.quad	.LVL738
	.uleb128 .LVL739-.LVL738
	.uleb128 0x2
	.byte	0x30
	.byte	0x9f
	.byte	0
.LVUS368:
	.uleb128 .LVU3065
	.uleb128 .LVU3068
.LLST368:
	.byte	0x8
	.quad	.LVL738
	.uleb128 .LVL739-.LVL738
	.uleb128 0x1
	.byte	0x56
	.byte	0
.LVUS7:
	.uleb128 .LVU34
	.uleb128 .LVU43
	.uleb128 .LVU43
	.uleb128 .LVU51
	.uleb128 .LVU61
	.uleb128 .LVU62
	.uleb128 .LVU64
	.uleb128 0
.LLST7:
	.byte	0x6
	.quad	.LVL12
	.byte	0x4
	.uleb128 .LVL12-.LVL12
	.uleb128 .LVL14-1-.LVL12
	.uleb128 0x1
	.byte	0x50
	.byte	0x4
	.uleb128 .LVL14-1-.LVL12
	.uleb128 .LVL17-.LVL12
	.uleb128 0x1
	.byte	0x56
	.byte	0x4
	.uleb128 .LVL21-.LVL12
	.uleb128 .LVL22-1-.LVL12
	.uleb128 0x1
	.byte	0x50
	.byte	0x4
	.uleb128 .LVL24-.LVL12
	.uleb128 .LFE5778-.LVL12
	.uleb128 0x1
	.byte	0x56
	.byte	0
.LVUS8:
	.uleb128 .LVU43
	.uleb128 .LVU47
	.uleb128 .LVU64
	.uleb128 .LVU65
.LLST8:
	.byte	0x6
	.quad	.LVL14
	.byte	0x4
	.uleb128 .LVL14-.LVL14
	.uleb128 .LVL15-1-.LVL14
	.uleb128 0x1
	.byte	0x50
	.byte	0x4
	.uleb128 .LVL24-.LVL14
	.uleb128 .LVL25-1-.LVL14
	.uleb128 0x1
	.byte	0x50
	.byte	0
.LVUS9:
	.uleb128 .LVU51
	.uleb128 .LVU60
	.uleb128 .LVU63
	.uleb128 .LVU64
.LLST9:
	.byte	0x6
	.quad	.LVL17
	.byte	0x4
	.uleb128 .LVL17-.LVL17
	.uleb128 .LVL20-.LVL17
	.uleb128 0x1
	.byte	0x56
	.byte	0x4
	.uleb128 .LVL23-.LVL17
	.uleb128 .LVL24-.LVL17
	.uleb128 0x1
	.byte	0x56
	.byte	0
.LVUS10:
	.uleb128 .LVU53
	.uleb128 .LVU61
	.uleb128 .LVU63
	.uleb128 .LVU64
.LLST10:
	.byte	0x6
	.quad	.LVL19
	.byte	0x4
	.uleb128 .LVL19-.LVL19
	.uleb128 .LVL21-.LVL19
	.uleb128 0x1
	.byte	0x58
	.byte	0x4
	.uleb128 .LVL23-.LVL19
	.uleb128 .LVL24-1-.LVL19
	.uleb128 0x1
	.byte	0x58
	.byte	0
.LVUS11:
	.uleb128 .LVU28
	.uleb128 .LVU34
.LLST11:
	.byte	0x8
	.quad	.LVL11
	.uleb128 .LVL12-.LVL11
	.uleb128 0x2
	.byte	0x30
	.byte	0x9f
	.byte	0
.LVUS12:
	.uleb128 .LVU28
	.uleb128 .LVU34
.LLST12:
	.byte	0x8
	.quad	.LVL11
	.uleb128 .LVL12-.LVL11
	.uleb128 0xa
	.byte	0x3
	.quad	.LC1
	.byte	0x9f
	.byte	0
.LVUS14:
	.uleb128 .LVU40
	.uleb128 .LVU43
.LLST14:
	.byte	0x8
	.quad	.LVL13
	.uleb128 .LVL14-.LVL13
	.uleb128 0x2
	.byte	0x38
	.byte	0x9f
	.byte	0
.LVUS15:
	.uleb128 .LVU40
	.uleb128 .LVU43
	.uleb128 .LVU43
	.uleb128 .LVU43
.LLST15:
	.byte	0x6
	.quad	.LVL13
	.byte	0x4
	.uleb128 .LVL13-.LVL13
	.uleb128 .LVL14-1-.LVL13
	.uleb128 0x1
	.byte	0x54
	.byte	0x4
	.uleb128 .LVL14-1-.LVL13
	.uleb128 .LVL14-.LVL13
	.uleb128 0x4
	.byte	0x91
	.sleb128 -72
	.byte	0x9f
	.byte	0
.LVUS16:
	.uleb128 .LVU40
	.uleb128 .LVU43
	.uleb128 .LVU43
	.uleb128 .LVU43
.LLST16:
	.byte	0x6
	.quad	.LVL13
	.byte	0x4
	.uleb128 .LVL13-.LVL13
	.uleb128 .LVL14-1-.LVL13
	.uleb128 0x1
	.byte	0x50
	.byte	0x4
	.uleb128 .LVL14-1-.LVL13
	.uleb128 .LVL14-.LVL13
	.uleb128 0x1
	.byte	0x56
	.byte	0
.LVUS0:
	.uleb128 .LVU1
	.uleb128 0
.LLST0:
	.byte	0x8
	.quad	.LVL0
	.uleb128 .LFE5802-.LVL0
	.uleb128 0x6
	.byte	0xfa
	.long	0x2f19
	.byte	0x9f
	.byte	0
.LVUS1:
	.uleb128 0
	.uleb128 .LVU15
	.uleb128 .LVU15
	.uleb128 .LVU16
	.uleb128 .LVU16
	.uleb128 0
.LLST1:
	.byte	0x6
	.quad	.LVL3
	.byte	0x4
	.uleb128 .LVL3-.LVL3
	.uleb128 .LVL8-.LVL3
	.uleb128 0x1
	.byte	0x55
	.byte	0x4
	.uleb128 .LVL8-.LVL3
	.uleb128 .LVL9-1-.LVL3
	.uleb128 0x1
	.byte	0x54
	.byte	0x4
	.uleb128 .LVL9-1-.LVL3
	.uleb128 .LFE5777-.LVL3
	.uleb128 0x4
	.byte	0xa3
	.uleb128 0x1
	.byte	0x55
	.byte	0x9f
	.byte	0
.LVUS2:
	.uleb128 0
	.uleb128 .LVU14
	.uleb128 .LVU14
	.uleb128 .LVU16
	.uleb128 .LVU16
	.uleb128 0
.LLST2:
	.byte	0x6
	.quad	.LVL3
	.byte	0x4
	.uleb128 .LVL3-.LVL3
	.uleb128 .LVL7-.LVL3
	.uleb128 0x1
	.byte	0x54
	.byte	0x4
	.uleb128 .LVL7-.LVL3
	.uleb128 .LVL9-1-.LVL3
	.uleb128 0x1
	.byte	0x51
	.byte	0x4
	.uleb128 .LVL9-1-.LVL3
	.uleb128 .LFE5777-.LVL3
	.uleb128 0x4
	.byte	0xa3
	.uleb128 0x1
	.byte	0x54
	.byte	0x9f
	.byte	0
.LVUS3:
	.uleb128 0
	.uleb128 .LVU13
	.uleb128 .LVU13
	.uleb128 .LVU16
	.uleb128 .LVU16
	.uleb128 0
.LLST3:
	.byte	0x6
	.quad	.LVL3
	.byte	0x4
	.uleb128 .LVL3-.LVL3
	.uleb128 .LVL6-.LVL3
	.uleb128 0x1
	.byte	0x51
	.byte	0x4
	.uleb128 .LVL6-.LVL3
	.uleb128 .LVL9-1-.LVL3
	.uleb128 0x1
	.byte	0x52
	.byte	0x4
	.uleb128 .LVL9-1-.LVL3
	.uleb128 .LFE5777-.LVL3
	.uleb128 0x4
	.byte	0xa3
	.uleb128 0x1
	.byte	0x51
	.byte	0x9f
	.byte	0
.LVUS4:
	.uleb128 0
	.uleb128 .LVU12
	.uleb128 .LVU12
	.uleb128 .LVU16
	.uleb128 .LVU16
	.uleb128 0
.LLST4:
	.byte	0x6
	.quad	.LVL3
	.byte	0x4
	.uleb128 .LVL3-.LVL3
	.uleb128 .LVL5-.LVL3
	.uleb128 0x1
	.byte	0x52
	.byte	0x4
	.uleb128 .LVL5-.LVL3
	.uleb128 .LVL9-1-.LVL3
	.uleb128 0x1
	.byte	0x58
	.byte	0x4
	.uleb128 .LVL9-1-.LVL3
	.uleb128 .LFE5777-.LVL3
	.uleb128 0x4
	.byte	0xa3
	.uleb128 0x1
	.byte	0x52
	.byte	0x9f
	.byte	0
.LVUS5:
	.uleb128 0
	.uleb128 .LVU11
	.uleb128 .LVU11
	.uleb128 .LVU16
	.uleb128 .LVU16
	.uleb128 0
.LLST5:
	.byte	0x6
	.quad	.LVL3
	.byte	0x4
	.uleb128 .LVL3-.LVL3
	.uleb128 .LVL4-.LVL3
	.uleb128 0x1
	.byte	0x58
	.byte	0x4
	.uleb128 .LVL4-.LVL3
	.uleb128 .LVL9-1-.LVL3
	.uleb128 0x1
	.byte	0x59
	.byte	0x4
	.uleb128 .LVL9-1-.LVL3
	.uleb128 .LFE5777-.LVL3
	.uleb128 0x4
	.byte	0xa3
	.uleb128 0x1
	.byte	0x58
	.byte	0x9f
	.byte	0
.LVUS6:
	.uleb128 .LVU16
	.uleb128 0
.LLST6:
	.byte	0x8
	.quad	.LVL9
	.uleb128 .LFE5777-.LVL9
	.uleb128 0x1
	.byte	0x50
	.byte	0
.LVUS17:
	.uleb128 0
	.uleb128 .LVU79
	.uleb128 .LVU79
	.uleb128 .LVU83
	.uleb128 .LVU83
	.uleb128 .LVU91
	.uleb128 .LVU91
	.uleb128 0
.LLST17:
	.byte	0x6
	.quad	.LVL28
	.byte	0x4
	.uleb128 .LVL28-.LVL28
	.uleb128 .LVL32-1-.LVL28
	.uleb128 0x1
	.byte	0x55
	.byte	0x4
	.uleb128 .LVL32-1-.LVL28
	.uleb128 .LVL33-.LVL28
	.uleb128 0x4
	.byte	0xa3
	.uleb128 0x1
	.byte	0x55
	.byte	0x9f
	.byte	0x4
	.uleb128 .LVL33-.LVL28
	.uleb128 .LVL35-1-.LVL28
	.uleb128 0x1
	.byte	0x55
	.byte	0x4
	.uleb128 .LVL35-1-.LVL28
	.uleb128 .LFE5780-.LVL28
	.uleb128 0x4
	.byte	0xa3
	.uleb128 0x1
	.byte	0x55
	.byte	0x9f
	.byte	0
.LVUS18:
	.uleb128 0
	.uleb128 .LVU78
	.uleb128 .LVU78
	.uleb128 .LVU83
	.uleb128 .LVU83
	.uleb128 .LVU88
	.uleb128 .LVU88
	.uleb128 0
.LLST18:
	.byte	0x6
	.quad	.LVL28
	.byte	0x4
	.uleb128 .LVL28-.LVL28
	.uleb128 .LVL31-.LVL28
	.uleb128 0x1
	.byte	0x54
	.byte	0x4
	.uleb128 .LVL31-.LVL28
	.uleb128 .LVL33-.LVL28
	.uleb128 0x4
	.byte	0xa3
	.uleb128 0x1
	.byte	0x54
	.byte	0x9f
	.byte	0x4
	.uleb128 .LVL33-.LVL28
	.uleb128 .LVL34-.LVL28
	.uleb128 0x1
	.byte	0x54
	.byte	0x4
	.uleb128 .LVL34-.LVL28
	.uleb128 .LFE5780-.LVL28
	.uleb128 0x4
	.byte	0xa3
	.uleb128 0x1
	.byte	0x54
	.byte	0x9f
	.byte	0
.LVUS20:
	.uleb128 .LVU83
	.uleb128 .LVU88
	.uleb128 .LVU88
	.uleb128 0
.LLST20:
	.byte	0x6
	.quad	.LVL33
	.byte	0x4
	.uleb128 .LVL33-.LVL33
	.uleb128 .LVL34-.LVL33
	.uleb128 0x1
	.byte	0x54
	.byte	0x4
	.uleb128 .LVL34-.LVL33
	.uleb128 .LFE5780-.LVL33
	.uleb128 0x4
	.byte	0xa3
	.uleb128 0x1
	.byte	0x54
	.byte	0x9f
	.byte	0
.LVUS21:
	.uleb128 .LVU83
	.uleb128 .LVU91
	.uleb128 .LVU91
	.uleb128 0
.LLST21:
	.byte	0x6
	.quad	.LVL33
	.byte	0x4
	.uleb128 .LVL33-.LVL33
	.uleb128 .LVL35-1-.LVL33
	.uleb128 0x1
	.byte	0x55
	.byte	0x4
	.uleb128 .LVL35-1-.LVL33
	.uleb128 .LFE5780-.LVL33
	.uleb128 0x4
	.byte	0xa3
	.uleb128 0x1
	.byte	0x55
	.byte	0x9f
	.byte	0
.LVUS23:
	.uleb128 .LVU85
	.uleb128 .LVU88
	.uleb128 .LVU88
	.uleb128 0
.LLST23:
	.byte	0x6
	.quad	.LVL33
	.byte	0x4
	.uleb128 .LVL33-.LVL33
	.uleb128 .LVL34-.LVL33
	.uleb128 0xb
	.byte	0x74
	.sleb128 0
	.byte	0x8
	.byte	0x20
	.byte	0x24
	.byte	0x8
	.byte	0x20
	.byte	0x26
	.byte	0x33
	.byte	0x24
	.byte	0x9f
	.byte	0x4
	.uleb128 .LVL34-.LVL33
	.uleb128 .LFE5780-.LVL33
	.uleb128 0xc
	.byte	0xa3
	.uleb128 0x1
	.byte	0x54
	.byte	0x8
	.byte	0x20
	.byte	0x24
	.byte	0x8
	.byte	0x20
	.byte	0x26
	.byte	0x33
	.byte	0x24
	.byte	0x9f
	.byte	0
.LVUS24:
	.uleb128 .LVU85
	.uleb128 .LVU91
	.uleb128 .LVU91
	.uleb128 0
.LLST24:
	.byte	0x6
	.quad	.LVL33
	.byte	0x4
	.uleb128 .LVL33-.LVL33
	.uleb128 .LVL35-1-.LVL33
	.uleb128 0x1
	.byte	0x55
	.byte	0x4
	.uleb128 .LVL35-1-.LVL33
	.uleb128 .LFE5780-.LVL33
	.uleb128 0x4
	.byte	0xa3
	.uleb128 0x1
	.byte	0x55
	.byte	0x9f
	.byte	0
.LVUS26:
	.uleb128 .LVU74
	.uleb128 .LVU77
	.uleb128 .LVU77
	.uleb128 .LVU79
	.uleb128 .LVU79
	.uleb128 .LVU79
.LLST26:
	.byte	0x6
	.quad	.LVL29
	.byte	0x4
	.uleb128 .LVL29-.LVL29
	.uleb128 .LVL30-.LVL29
	.uleb128 0x3
	.byte	0x7c
	.sleb128 -8
	.byte	0x9f
	.byte	0x4
	.uleb128 .LVL30-.LVL29
	.uleb128 .LVL32-1-.LVL29
	.uleb128 0x1
	.byte	0x51
	.byte	0x4
	.uleb128 .LVL32-1-.LVL29
	.uleb128 .LVL32-.LVL29
	.uleb128 0x3
	.byte	0x7c
	.sleb128 -8
	.byte	0x9f
	.byte	0
.LVUS27:
	.uleb128 .LVU74
	.uleb128 .LVU78
	.uleb128 .LVU78
	.uleb128 .LVU79
	.uleb128 .LVU79
	.uleb128 .LVU79
.LLST27:
	.byte	0x6
	.quad	.LVL29
	.byte	0x4
	.uleb128 .LVL29-.LVL29
	.uleb128 .LVL31-.LVL29
	.uleb128 0x3
	.byte	0x75
	.sleb128 8
	.byte	0x9f
	.byte	0x4
	.uleb128 .LVL31-.LVL29
	.uleb128 .LVL32-1-.LVL29
	.uleb128 0x1
	.byte	0x54
	.byte	0x4
	.uleb128 .LVL32-1-.LVL29
	.uleb128 .LVL32-.LVL29
	.uleb128 0x6
	.byte	0xa3
	.uleb128 0x1
	.byte	0x55
	.byte	0x23
	.uleb128 0x8
	.byte	0x9f
	.byte	0
.LVUS28:
	.uleb128 .LVU74
	.uleb128 .LVU79
	.uleb128 .LVU79
	.uleb128 .LVU79
.LLST28:
	.byte	0x6
	.quad	.LVL29
	.byte	0x4
	.uleb128 .LVL29-.LVL29
	.uleb128 .LVL32-1-.LVL29
	.uleb128 0x1
	.byte	0x55
	.byte	0x4
	.uleb128 .LVL32-1-.LVL29
	.uleb128 .LVL32-.LVL29
	.uleb128 0x4
	.byte	0xa3
	.uleb128 0x1
	.byte	0x55
	.byte	0x9f
	.byte	0
.LVUS116:
	.uleb128 0
	.uleb128 .LVU679
	.uleb128 .LVU679
	.uleb128 0
.LLST116:
	.byte	0x6
	.quad	.LVL187
	.byte	0x4
	.uleb128 .LVL187-.LVL187
	.uleb128 .LVL188-1-.LVL187
	.uleb128 0x1
	.byte	0x55
	.byte	0x4
	.uleb128 .LVL188-1-.LVL187
	.uleb128 .LFE5787-.LVL187
	.uleb128 0x4
	.byte	0xa3
	.uleb128 0x1
	.byte	0x55
	.byte	0x9f
	.byte	0
.LVUS117:
	.uleb128 .LVU679
	.uleb128 .LVU681
	.uleb128 .LVU681
	.uleb128 .LVU697
	.uleb128 .LVU697
	.uleb128 .LVU699
.LLST117:
	.byte	0x6
	.quad	.LVL188
	.byte	0x4
	.uleb128 .LVL188-.LVL188
	.uleb128 .LVL189-.LVL188
	.uleb128 0x1
	.byte	0x50
	.byte	0x4
	.uleb128 .LVL189-.LVL188
	.uleb128 .LVL194-.LVL188
	.uleb128 0x1
	.byte	0x5c
	.byte	0x4
	.uleb128 .LVL194-.LVL188
	.uleb128 .LVL195-1-.LVL188
	.uleb128 0x1
	.byte	0x50
	.byte	0
.LVUS118:
	.uleb128 .LVU681
	.uleb128 .LVU686
	.uleb128 .LVU686
	.uleb128 .LVU689
.LLST118:
	.byte	0x6
	.quad	.LVL189
	.byte	0x4
	.uleb128 .LVL189-.LVL189
	.uleb128 .LVL190-.LVL189
	.uleb128 0xf
	.byte	0x73
	.sleb128 0
	.byte	0x3
	.quad	event_names
	.byte	0x1c
	.byte	0x33
	.byte	0x25
	.byte	0x9f
	.byte	0x4
	.uleb128 .LVL190-.LVL189
	.uleb128 .LVL191-.LVL189
	.uleb128 0xf
	.byte	0x73
	.sleb128 0
	.byte	0x3
	.quad	event_names+8
	.byte	0x1c
	.byte	0x33
	.byte	0x25
	.byte	0x9f
	.byte	0
.LVUS120:
	.uleb128 .LVU682
	.uleb128 .LVU687
.LLST120:
	.byte	0x8
	.quad	.LVL189
	.uleb128 .LVL191-.LVL189
	.uleb128 0xa
	.byte	0x3
	.quad	.LC14
	.byte	0x9f
	.byte	0
.LVUS121:
	.uleb128 .LVU682
	.uleb128 .LVU687
.LLST121:
	.byte	0x8
	.quad	.LVL189
	.uleb128 .LVL191-.LVL189
	.uleb128 0x1
	.byte	0x5c
	.byte	0
.LVUS122:
	.uleb128 .LVU691
	.uleb128 .LVU694
.LLST122:
	.byte	0x8
	.quad	.LVL192
	.uleb128 .LVL193-.LVL192
	.uleb128 0x6
	.byte	0xa0
	.long	.Ldebug_info0+20247
	.sleb128 0
	.byte	0
.LVUS123:
	.uleb128 .LVU691
	.uleb128 .LVU694
.LLST123:
	.byte	0x8
	.quad	.LVL192
	.uleb128 .LVL193-.LVL192
	.uleb128 0x1
	.byte	0x5c
	.byte	0
.LVUS124:
	.uleb128 0
	.uleb128 .LVU706
	.uleb128 .LVU706
	.uleb128 0
.LLST124:
	.byte	0x6
	.quad	.LVL196
	.byte	0x4
	.uleb128 .LVL196-.LVL196
	.uleb128 .LVL198-.LVL196
	.uleb128 0x1
	.byte	0x55
	.byte	0x4
	.uleb128 .LVL198-.LVL196
	.uleb128 .LFE5788-.LVL196
	.uleb128 0x4
	.byte	0xa3
	.uleb128 0x1
	.byte	0x55
	.byte	0x9f
	.byte	0
.LVUS126:
	.uleb128 .LVU704
	.uleb128 .LVU706
	.uleb128 .LVU706
	.uleb128 .LVU713
	.uleb128 .LVU713
	.uleb128 .LVU714
	.uleb128 .LVU714
	.uleb128 .LVU716
	.uleb128 .LVU717
	.uleb128 0
.LLST126:
	.byte	0x6
	.quad	.LVL197
	.byte	0x4
	.uleb128 .LVL197-.LVL197
	.uleb128 .LVL198-.LVL197
	.uleb128 0x2
	.byte	0x30
	.byte	0x9f
	.byte	0x4
	.uleb128 .LVL198-.LVL197
	.uleb128 .LVL200-.LVL197
	.uleb128 0xf
	.byte	0x73
	.sleb128 0
	.byte	0x3
	.quad	fd
	.byte	0x1c
	.byte	0x32
	.byte	0x25
	.byte	0x9f
	.byte	0x4
	.uleb128 .LVL200-.LVL197
	.uleb128 .LVL201-.LVL197
	.uleb128 0x11
	.byte	0x73
	.sleb128 0
	.byte	0x3
	.quad	fd
	.byte	0x1c
	.byte	0x32
	.byte	0x25
	.byte	0x23
	.uleb128 0x1
	.byte	0x9f
	.byte	0x4
	.uleb128 .LVL201-.LVL197
	.uleb128 .LVL202-.LVL197
	.uleb128 0x11
	.byte	0x73
	.sleb128 0
	.byte	0x3
	.quad	fd+4
	.byte	0x1c
	.byte	0x32
	.byte	0x25
	.byte	0x23
	.uleb128 0x1
	.byte	0x9f
	.byte	0x4
	.uleb128 .LVL203-.LVL197
	.uleb128 .LFE5788-.LVL197
	.uleb128 0xf
	.byte	0x73
	.sleb128 0
	.byte	0x3
	.quad	fd
	.byte	0x1c
	.byte	0x32
	.byte	0x25
	.byte	0x9f
	.byte	0
.LVUS127:
	.uleb128 .LVU707
	.uleb128 .LVU710
.LLST127:
	.byte	0x8
	.quad	.LVL198
	.uleb128 .LVL199-.LVL198
	.uleb128 0x2
	.byte	0x38
	.byte	0x9f
	.byte	0
.LVUS128:
	.uleb128 .LVU707
	.uleb128 .LVU710
.LLST128:
	.byte	0x8
	.quad	.LVL198
	.uleb128 .LVL199-.LVL198
	.uleb128 0x1
	.byte	0x56
	.byte	0
.LVUS129:
	.uleb128 .LVU707
	.uleb128 .LVU710
.LLST129:
	.byte	0x8
	.quad	.LVL198
	.uleb128 .LVL199-1-.LVL198
	.uleb128 0x2
	.byte	0x73
	.sleb128 0
	.byte	0
.LVUS130:
	.uleb128 .LVU717
	.uleb128 0
.LLST130:
	.byte	0x8
	.quad	.LVL203
	.uleb128 .LFE5788-.LVL203
	.uleb128 0x4
	.byte	0xa3
	.uleb128 0x1
	.byte	0x55
	.byte	0x9f
	.byte	0
.LVUS131:
	.uleb128 0
	.uleb128 .LVU726
	.uleb128 .LVU726
	.uleb128 .LVU741
	.uleb128 .LVU741
	.uleb128 .LVU743
	.uleb128 .LVU743
	.uleb128 0
.LLST131:
	.byte	0x6
	.quad	.LVL206
	.byte	0x4
	.uleb128 .LVL206-.LVL206
	.uleb128 .LVL208-.LVL206
	.uleb128 0x1
	.byte	0x55
	.byte	0x4
	.uleb128 .LVL208-.LVL206
	.uleb128 .LVL212-.LVL206
	.uleb128 0x1
	.byte	0x56
	.byte	0x4
	.uleb128 .LVL212-.LVL206
	.uleb128 .LVL214-1-.LVL206
	.uleb128 0x1
	.byte	0x54
	.byte	0x4
	.uleb128 .LVL214-1-.LVL206
	.uleb128 .LFE5789-.LVL206
	.uleb128 0x4
	.byte	0xa3
	.uleb128 0x1
	.byte	0x55
	.byte	0x9f
	.byte	0
.LVUS132:
	.uleb128 0
	.uleb128 .LVU726
	.uleb128 .LVU726
	.uleb128 .LVU742
	.uleb128 .LVU742
	.uleb128 0
.LLST132:
	.byte	0x6
	.quad	.LVL206
	.byte	0x4
	.uleb128 .LVL206-.LVL206
	.uleb128 .LVL208-.LVL206
	.uleb128 0x1
	.byte	0x54
	.byte	0x4
	.uleb128 .LVL208-.LVL206
	.uleb128 .LVL213-.LVL206
	.uleb128 0x3
	.byte	0x7d
	.sleb128 -48
	.byte	0x9f
	.byte	0x4
	.uleb128 .LVL213-.LVL206
	.uleb128 .LFE5789-.LVL206
	.uleb128 0x4
	.byte	0xa3
	.uleb128 0x1
	.byte	0x54
	.byte	0x9f
	.byte	0
.LVUS134:
	.uleb128 .LVU724
	.uleb128 .LVU726
	.uleb128 .LVU726
	.uleb128 .LVU731
	.uleb128 .LVU731
	.uleb128 .LVU734
.LLST134:
	.byte	0x6
	.quad	.LVL207
	.byte	0x4
	.uleb128 .LVL207-.LVL207
	.uleb128 .LVL208-.LVL207
	.uleb128 0x2
	.byte	0x30
	.byte	0x9f
	.byte	0x4
	.uleb128 .LVL208-.LVL207
	.uleb128 .LVL209-.LVL207
	.uleb128 0xa
	.byte	0x73
	.sleb128 0
	.byte	0x7d
	.sleb128 0
	.byte	0x1c
	.byte	0x23
	.uleb128 0x30
	.byte	0x33
	.byte	0x25
	.byte	0x9f
	.byte	0x4
	.uleb128 .LVL209-.LVL207
	.uleb128 .LVL210-.LVL207
	.uleb128 0xa
	.byte	0x73
	.sleb128 0
	.byte	0x7d
	.sleb128 0
	.byte	0x1c
	.byte	0x23
	.uleb128 0x28
	.byte	0x33
	.byte	0x25
	.byte	0x9f
	.byte	0
.LVUS136:
	.uleb128 .LVU727
	.uleb128 .LVU732
.LLST136:
	.byte	0x8
	.quad	.LVL208
	.uleb128 .LVL210-.LVL208
	.uleb128 0xa
	.byte	0x3
	.quad	.LC16
	.byte	0x9f
	.byte	0
.LVUS137:
	.uleb128 .LVU727
	.uleb128 .LVU732
.LLST137:
	.byte	0x8
	.quad	.LVL208
	.uleb128 .LVL210-.LVL208
	.uleb128 0x1
	.byte	0x56
	.byte	0
.LVUS139:
	.uleb128 .LVU736
	.uleb128 .LVU741
	.uleb128 .LVU741
	.uleb128 .LVU743
	.uleb128 .LVU743
	.uleb128 0
.LLST139:
	.byte	0x6
	.quad	.LVL211
	.byte	0x4
	.uleb128 .LVL211-.LVL211
	.uleb128 .LVL212-.LVL211
	.uleb128 0x1
	.byte	0x56
	.byte	0x4
	.uleb128 .LVL212-.LVL211
	.uleb128 .LVL214-1-.LVL211
	.uleb128 0x1
	.byte	0x54
	.byte	0x4
	.uleb128 .LVL214-1-.LVL211
	.uleb128 .LFE5789-.LVL211
	.uleb128 0x4
	.byte	0xa3
	.uleb128 0x1
	.byte	0x55
	.byte	0x9f
	.byte	0
.LVUS141:
	.uleb128 .LVU747
	.uleb128 .LVU749
	.uleb128 .LVU749
	.uleb128 .LVU751
	.uleb128 .LVU751
	.uleb128 .LVU754
.LLST141:
	.byte	0x6
	.quad	.LVL215
	.byte	0x4
	.uleb128 .LVL215-.LVL215
	.uleb128 .LVL216-.LVL215
	.uleb128 0x2
	.byte	0x30
	.byte	0x9f
	.byte	0x4
	.uleb128 .LVL216-.LVL215
	.uleb128 .LVL217-.LVL215
	.uleb128 0xf
	.byte	0x73
	.sleb128 0
	.byte	0x3
	.quad	fd
	.byte	0x1c
	.byte	0x32
	.byte	0x25
	.byte	0x9f
	.byte	0x4
	.uleb128 .LVL217-.LVL215
	.uleb128 .LVL219-.LVL215
	.uleb128 0xf
	.byte	0x73
	.sleb128 0
	.byte	0x3
	.quad	fd+4
	.byte	0x1c
	.byte	0x32
	.byte	0x25
	.byte	0x9f
	.byte	0
.LVUS143:
	.uleb128 .LVU759
	.uleb128 .LVU761
	.uleb128 .LVU761
	.uleb128 .LVU765
	.uleb128 .LVU765
	.uleb128 .LVU766
	.uleb128 .LVU766
	.uleb128 .LVU768
	.uleb128 .LVU769
	.uleb128 0
.LLST143:
	.byte	0x6
	.quad	.LVL220
	.byte	0x4
	.uleb128 .LVL220-.LVL220
	.uleb128 .LVL221-.LVL220
	.uleb128 0x2
	.byte	0x30
	.byte	0x9f
	.byte	0x4
	.uleb128 .LVL221-.LVL220
	.uleb128 .LVL223-.LVL220
	.uleb128 0xf
	.byte	0x73
	.sleb128 0
	.byte	0x3
	.quad	fd
	.byte	0x1c
	.byte	0x32
	.byte	0x25
	.byte	0x9f
	.byte	0x4
	.uleb128 .LVL223-.LVL220
	.uleb128 .LVL224-.LVL220
	.uleb128 0x11
	.byte	0x73
	.sleb128 0
	.byte	0x3
	.quad	fd
	.byte	0x1c
	.byte	0x32
	.byte	0x25
	.byte	0x23
	.uleb128 0x1
	.byte	0x9f
	.byte	0x4
	.uleb128 .LVL224-.LVL220
	.uleb128 .LVL225-.LVL220
	.uleb128 0x11
	.byte	0x73
	.sleb128 0
	.byte	0x3
	.quad	fd+4
	.byte	0x1c
	.byte	0x32
	.byte	0x25
	.byte	0x23
	.uleb128 0x1
	.byte	0x9f
	.byte	0x4
	.uleb128 .LVL226-.LVL220
	.uleb128 .LFE5791-.LVL220
	.uleb128 0xf
	.byte	0x73
	.sleb128 0
	.byte	0x3
	.quad	fd
	.byte	0x1c
	.byte	0x32
	.byte	0x25
	.byte	0x9f
	.byte	0
.LVUS150:
	.uleb128 0
	.uleb128 .LVU823
	.uleb128 .LVU823
	.uleb128 .LVU901
	.uleb128 .LVU901
	.uleb128 .LVU903
	.uleb128 .LVU903
	.uleb128 .LVU906
	.uleb128 .LVU906
	.uleb128 0
.LLST150:
	.byte	0x6
	.quad	.LVL245
	.byte	0x4
	.uleb128 .LVL245-.LVL245
	.uleb128 .LVL246-1-.LVL245
	.uleb128 0x1
	.byte	0x55
	.byte	0x4
	.uleb128 .LVL246-1-.LVL245
	.uleb128 .LVL265-.LVL245
	.uleb128 0x1
	.byte	0x53
	.byte	0x4
	.uleb128 .LVL265-.LVL245
	.uleb128 .LVL267-.LVL245
	.uleb128 0x4
	.byte	0xa3
	.uleb128 0x1
	.byte	0x55
	.byte	0x9f
	.byte	0x4
	.uleb128 .LVL267-.LVL245
	.uleb128 .LVL268-.LVL245
	.uleb128 0x1
	.byte	0x53
	.byte	0x4
	.uleb128 .LVL268-.LVL245
	.uleb128 .LFE5795-.LVL245
	.uleb128 0x4
	.byte	0xa3
	.uleb128 0x1
	.byte	0x55
	.byte	0x9f
	.byte	0
.LVUS151:
	.uleb128 0
	.uleb128 .LVU823
	.uleb128 .LVU823
	.uleb128 .LVU902
	.uleb128 .LVU902
	.uleb128 .LVU903
	.uleb128 .LVU903
	.uleb128 .LVU907
	.uleb128 .LVU907
	.uleb128 0
.LLST151:
	.byte	0x6
	.quad	.LVL245
	.byte	0x4
	.uleb128 .LVL245-.LVL245
	.uleb128 .LVL246-1-.LVL245
	.uleb128 0x1
	.byte	0x54
	.byte	0x4
	.uleb128 .LVL246-1-.LVL245
	.uleb128 .LVL266-.LVL245
	.uleb128 0x1
	.byte	0x56
	.byte	0x4
	.uleb128 .LVL266-.LVL245
	.uleb128 .LVL267-.LVL245
	.uleb128 0x4
	.byte	0xa3
	.uleb128 0x1
	.byte	0x54
	.byte	0x9f
	.byte	0x4
	.uleb128 .LVL267-.LVL245
	.uleb128 .LVL269-.LVL245
	.uleb128 0x1
	.byte	0x56
	.byte	0x4
	.uleb128 .LVL269-.LVL245
	.uleb128 .LFE5795-.LVL245
	.uleb128 0x4
	.byte	0xa3
	.uleb128 0x1
	.byte	0x54
	.byte	0x9f
	.byte	0
.LVUS152:
	.uleb128 0
	.uleb128 .LVU823
	.uleb128 .LVU823
	.uleb128 .LVU829
	.uleb128 .LVU829
	.uleb128 .LVU898
	.uleb128 .LVU898
	.uleb128 0
.LLST152:
	.byte	0x6
	.quad	.LVL245
	.byte	0x4
	.uleb128 .LVL245-.LVL245
	.uleb128 .LVL246-1-.LVL245
	.uleb128 0x1
	.byte	0x51
	.byte	0x4
	.uleb128 .LVL246-1-.LVL245
	.uleb128 .LVL249-.LVL245
	.uleb128 0x1
	.byte	0x5c
	.byte	0x4
	.uleb128 .LVL249-.LVL245
	.uleb128 .LVL264-.LVL245
	.uleb128 0x1
	.byte	0x51
	.byte	0x4
	.uleb128 .LVL264-.LVL245
	.uleb128 .LFE5795-.LVL245
	.uleb128 0x4
	.byte	0xa3
	.uleb128 0x1
	.byte	0x51
	.byte	0x9f
	.byte	0
.LVUS153:
	.uleb128 .LVU828
	.uleb128 .LVU833
	.uleb128 .LVU833
	.uleb128 .LVU834
	.uleb128 .LVU839
	.uleb128 .LVU840
	.uleb128 .LVU844
	.uleb128 .LVU845
	.uleb128 .LVU849
	.uleb128 .LVU850
	.uleb128 .LVU854
	.uleb128 .LVU855
	.uleb128 .LVU859
	.uleb128 .LVU860
	.uleb128 .LVU864
	.uleb128 .LVU865
	.uleb128 .LVU865
	.uleb128 .LVU866
.LLST153:
	.byte	0x6
	.quad	.LVL248
	.byte	0x4
	.uleb128 .LVL248-.LVL248
	.uleb128 .LVL250-.LVL248
	.uleb128 0x2
	.byte	0x30
	.byte	0x9f
	.byte	0x4
	.uleb128 .LVL250-.LVL248
	.uleb128 .LVL250-.LVL248
	.uleb128 0x2
	.byte	0x31
	.byte	0x9f
	.byte	0x4
	.uleb128 .LVL251-.LVL248
	.uleb128 .LVL252-.LVL248
	.uleb128 0x3
	.byte	0x79
	.sleb128 2
	.byte	0x9f
	.byte	0x4
	.uleb128 .LVL253-.LVL248
	.uleb128 .LVL254-.LVL248
	.uleb128 0x3
	.byte	0x79
	.sleb128 2
	.byte	0x9f
	.byte	0x4
	.uleb128 .LVL255-.LVL248
	.uleb128 .LVL256-.LVL248
	.uleb128 0x3
	.byte	0x79
	.sleb128 2
	.byte	0x9f
	.byte	0x4
	.uleb128 .LVL257-.LVL248
	.uleb128 .LVL258-.LVL248
	.uleb128 0x3
	.byte	0x79
	.sleb128 2
	.byte	0x9f
	.byte	0x4
	.uleb128 .LVL259-.LVL248
	.uleb128 .LVL260-.LVL248
	.uleb128 0x3
	.byte	0x79
	.sleb128 2
	.byte	0x9f
	.byte	0x4
	.uleb128 .LVL261-.LVL248
	.uleb128 .LVL262-.LVL248
	.uleb128 0x3
	.byte	0x79
	.sleb128 2
	.byte	0x9f
	.byte	0x4
	.uleb128 .LVL262-.LVL248
	.uleb128 .LVL263-.LVL248
	.uleb128 0x3
	.byte	0x79
	.sleb128 1
	.byte	0x9f
	.byte	0
.LVUS183:
	.uleb128 0
	.uleb128 .LVU1108
	.uleb128 .LVU1108
	.uleb128 .LVU1235
	.uleb128 .LVU1235
	.uleb128 .LVU1245
	.uleb128 .LVU1245
	.uleb128 0
.LLST183:
	.byte	0x6
	.quad	.LVL327
	.byte	0x4
	.uleb128 .LVL327-.LVL327
	.uleb128 .LVL329-.LVL327
	.uleb128 0x1
	.byte	0x55
	.byte	0x4
	.uleb128 .LVL329-.LVL327
	.uleb128 .LVL349-.LVL327
	.uleb128 0x1
	.byte	0x56
	.byte	0x4
	.uleb128 .LVL349-.LVL327
	.uleb128 .LVL351-.LVL327
	.uleb128 0x4
	.byte	0xa3
	.uleb128 0x1
	.byte	0x55
	.byte	0x9f
	.byte	0x4
	.uleb128 .LVL351-.LVL327
	.uleb128 .LFE5799-.LVL327
	.uleb128 0x1
	.byte	0x56
	.byte	0
.LVUS184:
	.uleb128 0
	.uleb128 .LVU1107
	.uleb128 .LVU1107
	.uleb128 .LVU1244
	.uleb128 .LVU1244
	.uleb128 0
.LLST184:
	.byte	0x6
	.quad	.LVL327
	.byte	0x4
	.uleb128 .LVL327-.LVL327
	.uleb128 .LVL328-.LVL327
	.uleb128 0x1
	.byte	0x54
	.byte	0x4
	.uleb128 .LVL328-.LVL327
	.uleb128 .LVL350-.LVL327
	.uleb128 0x1
	.byte	0x53
	.byte	0x4
	.uleb128 .LVL350-.LVL327
	.uleb128 .LFE5799-.LVL327
	.uleb128 0x4
	.byte	0xa3
	.uleb128 0x1
	.byte	0x54
	.byte	0x9f
	.byte	0
.LVUS185:
	.uleb128 .LVU1111
	.uleb128 .LVU1114
	.uleb128 .LVU1114
	.uleb128 .LVU1246
	.uleb128 .LVU1246
	.uleb128 .LVU1249
.LLST185:
	.byte	0x6
	.quad	.LVL330
	.byte	0x4
	.uleb128 .LVL330-.LVL330
	.uleb128 .LVL332-.LVL330
	.uleb128 0x1
	.byte	0x50
	.byte	0x4
	.uleb128 .LVL332-.LVL330
	.uleb128 .LVL352-.LVL330
	.uleb128 0x1
	.byte	0x58
	.byte	0x4
	.uleb128 .LVL352-.LVL330
	.uleb128 .LVL353-1-.LVL330
	.uleb128 0x1
	.byte	0x50
	.byte	0
.LVUS187:
	.uleb128 .LVU1113
	.uleb128 .LVU1115
	.uleb128 .LVU1134
	.uleb128 .LVU1141
	.uleb128 .LVU1141
	.uleb128 .LVU1148
	.uleb128 .LVU1148
	.uleb128 .LVU1155
	.uleb128 .LVU1155
	.uleb128 .LVU1162
	.uleb128 .LVU1162
	.uleb128 .LVU1169
	.uleb128 .LVU1169
	.uleb128 .LVU1176
	.uleb128 .LVU1176
	.uleb128 .LVU1183
	.uleb128 .LVU1183
	.uleb128 .LVU1190
	.uleb128 .LVU1190
	.uleb128 .LVU1197
	.uleb128 .LVU1197
	.uleb128 .LVU1204
	.uleb128 .LVU1204
	.uleb128 .LVU1211
	.uleb128 .LVU1211
	.uleb128 .LVU1218
	.uleb128 .LVU1218
	.uleb128 .LVU1225
	.uleb128 .LVU1225
	.uleb128 .LVU1232
	.uleb128 .LVU1245
	.uleb128 .LVU1246
.LLST187:
	.byte	0x6
	.quad	.LVL331
	.byte	0x4
	.uleb128 .LVL331-.LVL331
	.uleb128 .LVL333-.LVL331
	.uleb128 0x2
	.byte	0x30
	.byte	0x9f
	.byte	0x4
	.uleb128 .LVL334-.LVL331
	.uleb128 .LVL335-.LVL331
	.uleb128 0x1
	.byte	0x50
	.byte	0x4
	.uleb128 .LVL335-.LVL331
	.uleb128 .LVL336-.LVL331
	.uleb128 0x1
	.byte	0x5a
	.byte	0x4
	.uleb128 .LVL336-.LVL331
	.uleb128 .LVL337-.LVL331
	.uleb128 0x1
	.byte	0x55
	.byte	0x4
	.uleb128 .LVL337-.LVL331
	.uleb128 .LVL338-.LVL331
	.uleb128 0x1
	.byte	0x52
	.byte	0x4
	.uleb128 .LVL338-.LVL331
	.uleb128 .LVL339-.LVL331
	.uleb128 0x1
	.byte	0x54
	.byte	0x4
	.uleb128 .LVL339-.LVL331
	.uleb128 .LVL340-.LVL331
	.uleb128 0x1
	.byte	0x55
	.byte	0x4
	.uleb128 .LVL340-.LVL331
	.uleb128 .LVL341-.LVL331
	.uleb128 0x1
	.byte	0x52
	.byte	0x4
	.uleb128 .LVL341-.LVL331
	.uleb128 .LVL342-.LVL331
	.uleb128 0x1
	.byte	0x54
	.byte	0x4
	.uleb128 .LVL342-.LVL331
	.uleb128 .LVL343-.LVL331
	.uleb128 0x1
	.byte	0x55
	.byte	0x4
	.uleb128 .LVL343-.LVL331
	.uleb128 .LVL344-.LVL331
	.uleb128 0x1
	.byte	0x52
	.byte	0x4
	.uleb128 .LVL344-.LVL331
	.uleb128 .LVL345-.LVL331
	.uleb128 0x1
	.byte	0x54
	.byte	0x4
	.uleb128 .LVL345-.LVL331
	.uleb128 .LVL346-.LVL331
	.uleb128 0x1
	.byte	0x55
	.byte	0x4
	.uleb128 .LVL346-.LVL331
	.uleb128 .LVL347-.LVL331
	.uleb128 0x1
	.byte	0x52
	.byte	0x4
	.uleb128 .LVL347-.LVL331
	.uleb128 .LVL348-.LVL331
	.uleb128 0x1
	.byte	0x5a
	.byte	0x4
	.uleb128 .LVL351-.LVL331
	.uleb128 .LVL352-.LVL331
	.uleb128 0x2
	.byte	0x30
	.byte	0x9f
	.byte	0
.LVUS188:
	.uleb128 .LVU1248
	.uleb128 0
.LLST188:
	.byte	0x8
	.quad	.LVL352
	.uleb128 .LFE5799-.LVL352
	.uleb128 0x1
	.byte	0x56
	.byte	0
.LVUS189:
	.uleb128 .LVU1248
	.uleb128 0
.LLST189:
	.byte	0x8
	.quad	.LVL352
	.uleb128 .LFE5799-.LVL352
	.uleb128 0x4
	.byte	0xa3
	.uleb128 0x1
	.byte	0x54
	.byte	0x9f
	.byte	0
.Ldebug_loc3:
	.section	.debug_aranges,"",@progbits
	.long	0x3c
	.value	0x2
	.long	.Ldebug_info0
	.byte	0x8
	.byte	0
	.value	0
	.value	0
	.quad	.Ltext0
	.quad	.Letext0-.Ltext0
	.quad	.LFB5782
	.quad	.LFE5782-.LFB5782
	.quad	0
	.quad	0
	.section	.debug_rnglists,"",@progbits
.Ldebug_ranges0:
	.long	.Ldebug_ranges3-.Ldebug_ranges2
.Ldebug_ranges2:
	.value	0x5
	.byte	0x8
	.byte	0
	.long	0
.LLRL13:
	.byte	0x5
	.quad	.LBB155
	.byte	0x4
	.uleb128 .LBB155-.LBB155
	.uleb128 .LBE155-.LBB155
	.byte	0x4
	.uleb128 .LBB158-.LBB155
	.uleb128 .LBE158-.LBB155
	.byte	0
.LLRL19:
	.byte	0x5
	.quad	.LBB169
	.byte	0x4
	.uleb128 .LBB169-.LBB169
	.uleb128 .LBE169-.LBB169
	.byte	0x4
	.uleb128 .LBB181-.LBB169
	.uleb128 .LBE181-.LBB169
	.byte	0x4
	.uleb128 .LBB182-.LBB169
	.uleb128 .LBE182-.LBB169
	.byte	0
.LLRL22:
	.byte	0x5
	.quad	.LBB171
	.byte	0x4
	.uleb128 .LBB171-.LBB171
	.uleb128 .LBE171-.LBB171
	.byte	0x4
	.uleb128 .LBB174-.LBB171
	.uleb128 .LBE174-.LBB171
	.byte	0
.LLRL25:
	.byte	0x5
	.quad	.LBB177
	.byte	0x4
	.uleb128 .LBB177-.LBB177
	.uleb128 .LBE177-.LBB177
	.byte	0x4
	.uleb128 .LBB180-.LBB177
	.uleb128 .LBE180-.LBB177
	.byte	0
.LLRL36:
	.byte	0x5
	.quad	.LBB191
	.byte	0x4
	.uleb128 .LBB191-.LBB191
	.uleb128 .LBE191-.LBB191
	.byte	0x4
	.uleb128 .LBB195-.LBB191
	.uleb128 .LBE195-.LBB191
	.byte	0x4
	.uleb128 .LBB196-.LBB191
	.uleb128 .LBE196-.LBB191
	.byte	0
.LLRL40:
	.byte	0x5
	.quad	.LBB199
	.byte	0x4
	.uleb128 .LBB199-.LBB199
	.uleb128 .LBE199-.LBB199
	.byte	0x4
	.uleb128 .LBB202-.LBB199
	.uleb128 .LBE202-.LBB199
	.byte	0
.LLRL44:
	.byte	0x5
	.quad	.LBB203
	.byte	0x4
	.uleb128 .LBB203-.LBB203
	.uleb128 .LBE203-.LBB203
	.byte	0x4
	.uleb128 .LBB207-.LBB203
	.uleb128 .LBE207-.LBB203
	.byte	0
.LLRL47:
	.byte	0x5
	.quad	.LBB204
	.byte	0x4
	.uleb128 .LBB204-.LBB204
	.uleb128 .LBE204-.LBB204
	.byte	0x4
	.uleb128 .LBB205-.LBB204
	.uleb128 .LBE205-.LBB204
	.byte	0x4
	.uleb128 .LBB206-.LBB204
	.uleb128 .LBE206-.LBB204
	.byte	0
.LLRL55:
	.byte	0x5
	.quad	.LBB208
	.byte	0x4
	.uleb128 .LBB208-.LBB208
	.uleb128 .LBE208-.LBB208
	.byte	0x4
	.uleb128 .LBB213-.LBB208
	.uleb128 .LBE213-.LBB208
	.byte	0x4
	.uleb128 .LBB241-.LBB208
	.uleb128 .LBE241-.LBB208
	.byte	0x4
	.uleb128 .LBB243-.LBB208
	.uleb128 .LBE243-.LBB208
	.byte	0
.LLRL58:
	.byte	0x5
	.quad	.LBB214
	.byte	0x4
	.uleb128 .LBB214-.LBB214
	.uleb128 .LBE214-.LBB214
	.byte	0x4
	.uleb128 .LBB242-.LBB214
	.uleb128 .LBE242-.LBB214
	.byte	0x4
	.uleb128 .LBB244-.LBB214
	.uleb128 .LBE244-.LBB214
	.byte	0
.LLRL60:
	.byte	0x5
	.quad	.LBB215
	.byte	0x4
	.uleb128 .LBB215-.LBB215
	.uleb128 .LBE215-.LBB215
	.byte	0x4
	.uleb128 .LBB236-.LBB215
	.uleb128 .LBE236-.LBB215
	.byte	0x4
	.uleb128 .LBB237-.LBB215
	.uleb128 .LBE237-.LBB215
	.byte	0x4
	.uleb128 .LBB238-.LBB215
	.uleb128 .LBE238-.LBB215
	.byte	0x4
	.uleb128 .LBB239-.LBB215
	.uleb128 .LBE239-.LBB215
	.byte	0x4
	.uleb128 .LBB240-.LBB215
	.uleb128 .LBE240-.LBB215
	.byte	0
.LLRL61:
	.byte	0x5
	.quad	.LBB216
	.byte	0x4
	.uleb128 .LBB216-.LBB216
	.uleb128 .LBE216-.LBB216
	.byte	0x4
	.uleb128 .LBB223-.LBB216
	.uleb128 .LBE223-.LBB216
	.byte	0x4
	.uleb128 .LBB229-.LBB216
	.uleb128 .LBE229-.LBB216
	.byte	0x4
	.uleb128 .LBB231-.LBB216
	.uleb128 .LBE231-.LBB216
	.byte	0x4
	.uleb128 .LBB233-.LBB216
	.uleb128 .LBE233-.LBB216
	.byte	0x4
	.uleb128 .LBB234-.LBB216
	.uleb128 .LBE234-.LBB216
	.byte	0
.LLRL65:
	.byte	0x5
	.quad	.LBB224
	.byte	0x4
	.uleb128 .LBB224-.LBB224
	.uleb128 .LBE224-.LBB224
	.byte	0x4
	.uleb128 .LBB230-.LBB224
	.uleb128 .LBE230-.LBB224
	.byte	0x4
	.uleb128 .LBB232-.LBB224
	.uleb128 .LBE232-.LBB224
	.byte	0x4
	.uleb128 .LBB235-.LBB224
	.uleb128 .LBE235-.LBB224
	.byte	0
.LLRL77:
	.byte	0x5
	.quad	.LBB266
	.byte	0x4
	.uleb128 .LBB266-.LBB266
	.uleb128 .LBE266-.LBB266
	.byte	0x4
	.uleb128 .LBB294-.LBB266
	.uleb128 .LBE294-.LBB266
	.byte	0
.LLRL79:
	.byte	0x5
	.quad	.LBB267
	.byte	0x4
	.uleb128 .LBB267-.LBB267
	.uleb128 .LBE267-.LBB267
	.byte	0x4
	.uleb128 .LBB270-.LBB267
	.uleb128 .LBE270-.LBB267
	.byte	0
.LLRL88:
	.byte	0x5
	.quad	.LBB278
	.byte	0x4
	.uleb128 .LBB278-.LBB278
	.uleb128 .LBE278-.LBB278
	.byte	0x4
	.uleb128 .LBB295-.LBB278
	.uleb128 .LBE295-.LBB278
	.byte	0
.LLRL90:
	.byte	0x5
	.quad	.LBB279
	.byte	0x4
	.uleb128 .LBB279-.LBB279
	.uleb128 .LBE279-.LBB279
	.byte	0x4
	.uleb128 .LBB283-.LBB279
	.uleb128 .LBE283-.LBB279
	.byte	0x4
	.uleb128 .LBB284-.LBB279
	.uleb128 .LBE284-.LBB279
	.byte	0
.LLRL97:
	.byte	0x5
	.quad	.LBB289
	.byte	0x4
	.uleb128 .LBB289-.LBB289
	.uleb128 .LBE289-.LBB289
	.byte	0x4
	.uleb128 .LBB293-.LBB289
	.uleb128 .LBE293-.LBB289
	.byte	0
.LLRL100:
	.byte	0x5
	.quad	.LBB296
	.byte	0x4
	.uleb128 .LBB296-.LBB296
	.uleb128 .LBE296-.LBB296
	.byte	0x4
	.uleb128 .LBB302-.LBB296
	.uleb128 .LBE302-.LBB296
	.byte	0x4
	.uleb128 .LBB303-.LBB296
	.uleb128 .LBE303-.LBB296
	.byte	0x4
	.uleb128 .LBB304-.LBB296
	.uleb128 .LBE304-.LBB296
	.byte	0x4
	.uleb128 .LBB305-.LBB296
	.uleb128 .LBE305-.LBB296
	.byte	0
.LLRL104:
	.byte	0x5
	.quad	.LBB306
	.byte	0x4
	.uleb128 .LBB306-.LBB306
	.uleb128 .LBE306-.LBB306
	.byte	0x4
	.uleb128 .LBB307-.LBB306
	.uleb128 .LBE307-.LBB306
	.byte	0x4
	.uleb128 .LBB308-.LBB306
	.uleb128 .LBE308-.LBB306
	.byte	0x4
	.uleb128 .LBB309-.LBB306
	.uleb128 .LBE309-.LBB306
	.byte	0
.LLRL106:
	.byte	0x5
	.quad	.LBB310
	.byte	0x4
	.uleb128 .LBB310-.LBB310
	.uleb128 .LBE310-.LBB310
	.byte	0x4
	.uleb128 .LBB317-.LBB310
	.uleb128 .LBE317-.LBB310
	.byte	0
.LLRL114:
	.byte	0x5
	.quad	.LBB313
	.byte	0x4
	.uleb128 .LBB313-.LBB313
	.uleb128 .LBE313-.LBB313
	.byte	0x4
	.uleb128 .LBB316-.LBB313
	.uleb128 .LBE316-.LBB313
	.byte	0
.LLRL119:
	.byte	0x5
	.quad	.LBB324
	.byte	0x4
	.uleb128 .LBB324-.LBB324
	.uleb128 .LBE324-.LBB324
	.byte	0x4
	.uleb128 .LBB327-.LBB324
	.uleb128 .LBE327-.LBB324
	.byte	0
.LLRL125:
	.byte	0x5
	.quad	.LBB338
	.byte	0x4
	.uleb128 .LBB338-.LBB338
	.uleb128 .LBE338-.LBB338
	.byte	0x4
	.uleb128 .LBB341-.LBB338
	.uleb128 .LBE341-.LBB338
	.byte	0
.LLRL133:
	.byte	0x5
	.quad	.LBB349
	.byte	0x4
	.uleb128 .LBB349-.LBB349
	.uleb128 .LBE349-.LBB349
	.byte	0x4
	.uleb128 .LBB354-.LBB349
	.uleb128 .LBE354-.LBB349
	.byte	0
.LLRL135:
	.byte	0x5
	.quad	.LBB350
	.byte	0x4
	.uleb128 .LBB350-.LBB350
	.uleb128 .LBE350-.LBB350
	.byte	0x4
	.uleb128 .LBB353-.LBB350
	.uleb128 .LBE353-.LBB350
	.byte	0
.LLRL138:
	.byte	0x5
	.quad	.LBB355
	.byte	0x4
	.uleb128 .LBB355-.LBB355
	.uleb128 .LBE355-.LBB355
	.byte	0x4
	.uleb128 .LBB359-.LBB355
	.uleb128 .LBE359-.LBB355
	.byte	0x4
	.uleb128 .LBB360-.LBB355
	.uleb128 .LBE360-.LBB355
	.byte	0
.LLRL140:
	.byte	0x5
	.quad	.LBB362
	.byte	0x4
	.uleb128 .LBB362-.LBB362
	.uleb128 .LBE362-.LBB362
	.byte	0x4
	.uleb128 .LBB363-.LBB362
	.uleb128 .LBE363-.LBB362
	.byte	0
.LLRL142:
	.byte	0x5
	.quad	.LBB369
	.byte	0x4
	.uleb128 .LBB369-.LBB369
	.uleb128 .LBE369-.LBB369
	.byte	0x4
	.uleb128 .LBB370-.LBB369
	.uleb128 .LBE370-.LBB369
	.byte	0
.LLRL158:
	.byte	0x5
	.quad	.LBB382
	.byte	0x4
	.uleb128 .LBB382-.LBB382
	.uleb128 .LBE382-.LBB382
	.byte	0x4
	.uleb128 .LBB386-.LBB382
	.uleb128 .LBE386-.LBB382
	.byte	0x4
	.uleb128 .LBB387-.LBB382
	.uleb128 .LBE387-.LBB382
	.byte	0
.LLRL161:
	.byte	0x5
	.quad	.LBB388
	.byte	0x4
	.uleb128 .LBB388-.LBB388
	.uleb128 .LBE388-.LBB388
	.byte	0x4
	.uleb128 .LBB391-.LBB388
	.uleb128 .LBE391-.LBB388
	.byte	0
.LLRL164:
	.byte	0x5
	.quad	.LBB392
	.byte	0x4
	.uleb128 .LBB392-.LBB392
	.uleb128 .LBE392-.LBB392
	.byte	0x4
	.uleb128 .LBB398-.LBB392
	.uleb128 .LBE398-.LBB392
	.byte	0
.LLRL166:
	.byte	0x5
	.quad	.LBB393
	.byte	0x4
	.uleb128 .LBB393-.LBB393
	.uleb128 .LBE393-.LBB393
	.byte	0x4
	.uleb128 .LBB397-.LBB393
	.uleb128 .LBE397-.LBB393
	.byte	0
.LLRL171:
	.byte	0x5
	.quad	.LBB395
	.byte	0x4
	.uleb128 .LBB395-.LBB395
	.uleb128 .LBE395-.LBB395
	.byte	0x4
	.uleb128 .LBB396-.LBB395
	.uleb128 .LBE396-.LBB395
	.byte	0
.LLRL175:
	.byte	0x5
	.quad	.LBB399
	.byte	0x4
	.uleb128 .LBB399-.LBB399
	.uleb128 .LBE399-.LBB399
	.byte	0x4
	.uleb128 .LBB402-.LBB399
	.uleb128 .LBE402-.LBB399
	.byte	0
.LLRL181:
	.byte	0x5
	.quad	.LBB403
	.byte	0x4
	.uleb128 .LBB403-.LBB403
	.uleb128 .LBE403-.LBB403
	.byte	0x4
	.uleb128 .LBB406-.LBB403
	.uleb128 .LBE406-.LBB403
	.byte	0
.LLRL186:
	.byte	0x5
	.quad	.LBB412
	.byte	0x4
	.uleb128 .LBB412-.LBB412
	.uleb128 .LBE412-.LBB412
	.byte	0x4
	.uleb128 .LBB413-.LBB412
	.uleb128 .LBE413-.LBB412
	.byte	0
.LLRL202:
	.byte	0x5
	.quad	.LBB540
	.byte	0x4
	.uleb128 .LBB540-.LBB540
	.uleb128 .LBE540-.LBB540
	.byte	0x4
	.uleb128 .LBB563-.LBB540
	.uleb128 .LBE563-.LBB540
	.byte	0x4
	.uleb128 .LBB751-.LBB540
	.uleb128 .LBE751-.LBB540
	.byte	0
.LLRL206:
	.byte	0x5
	.quad	.LBB543
	.byte	0x4
	.uleb128 .LBB543-.LBB543
	.uleb128 .LBE543-.LBB543
	.byte	0x4
	.uleb128 .LBB546-.LBB543
	.uleb128 .LBE546-.LBB543
	.byte	0
.LLRL209:
	.byte	0x5
	.quad	.LBB547
	.byte	0x4
	.uleb128 .LBB547-.LBB547
	.uleb128 .LBE547-.LBB547
	.byte	0x4
	.uleb128 .LBB550-.LBB547
	.uleb128 .LBE550-.LBB547
	.byte	0
.LLRL212:
	.byte	0x5
	.quad	.LBB553
	.byte	0x4
	.uleb128 .LBB553-.LBB553
	.uleb128 .LBE553-.LBB553
	.byte	0x4
	.uleb128 .LBB556-.LBB553
	.uleb128 .LBE556-.LBB553
	.byte	0
.LLRL225:
	.byte	0x5
	.quad	.LBB564
	.byte	0x4
	.uleb128 .LBB564-.LBB564
	.uleb128 .LBE564-.LBB564
	.byte	0x4
	.uleb128 .LBB576-.LBB564
	.uleb128 .LBE576-.LBB564
	.byte	0
.LLRL229:
	.byte	0x5
	.quad	.LBB567
	.byte	0x4
	.uleb128 .LBB567-.LBB567
	.uleb128 .LBE567-.LBB567
	.byte	0x4
	.uleb128 .LBB570-.LBB567
	.uleb128 .LBE570-.LBB567
	.byte	0
.LLRL232:
	.byte	0x5
	.quad	.LBB571
	.byte	0x4
	.uleb128 .LBB571-.LBB571
	.uleb128 .LBE571-.LBB571
	.byte	0x4
	.uleb128 .LBB574-.LBB571
	.uleb128 .LBE574-.LBB571
	.byte	0
.LLRL235:
	.byte	0x5
	.quad	.LBB577
	.byte	0x4
	.uleb128 .LBB577-.LBB577
	.uleb128 .LBE577-.LBB577
	.byte	0x4
	.uleb128 .LBB580-.LBB577
	.uleb128 .LBE580-.LBB577
	.byte	0
.LLRL242:
	.byte	0x5
	.quad	.LBB587
	.byte	0x4
	.uleb128 .LBB587-.LBB587
	.uleb128 .LBE587-.LBB587
	.byte	0x4
	.uleb128 .LBB590-.LBB587
	.uleb128 .LBE590-.LBB587
	.byte	0
.LLRL246:
	.byte	0x5
	.quad	.LBB591
	.byte	0x4
	.uleb128 .LBB591-.LBB591
	.uleb128 .LBE591-.LBB591
	.byte	0x4
	.uleb128 .LBB594-.LBB591
	.uleb128 .LBE594-.LBB591
	.byte	0
.LLRL249:
	.byte	0x5
	.quad	.LBB597
	.byte	0x4
	.uleb128 .LBB597-.LBB597
	.uleb128 .LBE597-.LBB597
	.byte	0x4
	.uleb128 .LBB740-.LBB597
	.uleb128 .LBE740-.LBB597
	.byte	0x4
	.uleb128 .LBB749-.LBB597
	.uleb128 .LBE749-.LBB597
	.byte	0x4
	.uleb128 .LBB750-.LBB597
	.uleb128 .LBE750-.LBB597
	.byte	0
.LLRL251:
	.byte	0x5
	.quad	.LBB598
	.byte	0x4
	.uleb128 .LBB598-.LBB598
	.uleb128 .LBE598-.LBB598
	.byte	0x4
	.uleb128 .LBB736-.LBB598
	.uleb128 .LBE736-.LBB598
	.byte	0x4
	.uleb128 .LBB737-.LBB598
	.uleb128 .LBE737-.LBB598
	.byte	0x4
	.uleb128 .LBB738-.LBB598
	.uleb128 .LBE738-.LBB598
	.byte	0x4
	.uleb128 .LBB739-.LBB598
	.uleb128 .LBE739-.LBB598
	.byte	0
.LLRL259:
	.byte	0x5
	.quad	.LBB599
	.byte	0x4
	.uleb128 .LBB599-.LBB599
	.uleb128 .LBE599-.LBB599
	.byte	0x4
	.uleb128 .LBB609-.LBB599
	.uleb128 .LBE609-.LBB599
	.byte	0x4
	.uleb128 .LBB731-.LBB599
	.uleb128 .LBE731-.LBB599
	.byte	0x4
	.uleb128 .LBB733-.LBB599
	.uleb128 .LBE733-.LBB599
	.byte	0
.LLRL262:
	.byte	0x5
	.quad	.LBB601
	.byte	0x4
	.uleb128 .LBB601-.LBB601
	.uleb128 .LBE601-.LBB601
	.byte	0x4
	.uleb128 .LBB602-.LBB601
	.uleb128 .LBE602-.LBB601
	.byte	0x4
	.uleb128 .LBB603-.LBB601
	.uleb128 .LBE603-.LBB601
	.byte	0
.LLRL264:
	.byte	0x5
	.quad	.LBB610
	.byte	0x4
	.uleb128 .LBB610-.LBB610
	.uleb128 .LBE610-.LBB610
	.byte	0x4
	.uleb128 .LBB618-.LBB610
	.uleb128 .LBE618-.LBB610
	.byte	0x4
	.uleb128 .LBB619-.LBB610
	.uleb128 .LBE619-.LBB610
	.byte	0x4
	.uleb128 .LBB730-.LBB610
	.uleb128 .LBE730-.LBB610
	.byte	0x4
	.uleb128 .LBB732-.LBB610
	.uleb128 .LBE732-.LBB610
	.byte	0
.LLRL267:
	.byte	0x5
	.quad	.LBB612
	.byte	0x4
	.uleb128 .LBB612-.LBB612
	.uleb128 .LBE612-.LBB612
	.byte	0x4
	.uleb128 .LBB613-.LBB612
	.uleb128 .LBE613-.LBB612
	.byte	0
.LLRL269:
	.byte	0x5
	.quad	.LBB620
	.byte	0x4
	.uleb128 .LBB620-.LBB620
	.uleb128 .LBE620-.LBB620
	.byte	0x4
	.uleb128 .LBB626-.LBB620
	.uleb128 .LBE626-.LBB620
	.byte	0
.LLRL270:
	.byte	0x5
	.quad	.LBB623
	.byte	0x4
	.uleb128 .LBB623-.LBB623
	.uleb128 .LBE623-.LBB623
	.byte	0x4
	.uleb128 .LBB627-.LBB623
	.uleb128 .LBE627-.LBB623
	.byte	0
.LLRL272:
	.byte	0x5
	.quad	.LBB628
	.byte	0x4
	.uleb128 .LBB628-.LBB628
	.uleb128 .LBE628-.LBB628
	.byte	0x4
	.uleb128 .LBB665-.LBB628
	.uleb128 .LBE665-.LBB628
	.byte	0x4
	.uleb128 .LBB667-.LBB628
	.uleb128 .LBE667-.LBB628
	.byte	0x4
	.uleb128 .LBB669-.LBB628
	.uleb128 .LBE669-.LBB628
	.byte	0
.LLRL276:
	.byte	0x5
	.quad	.LBB633
	.byte	0x4
	.uleb128 .LBB633-.LBB633
	.uleb128 .LBE633-.LBB633
	.byte	0x4
	.uleb128 .LBB666-.LBB633
	.uleb128 .LBE666-.LBB633
	.byte	0x4
	.uleb128 .LBB668-.LBB633
	.uleb128 .LBE668-.LBB633
	.byte	0x4
	.uleb128 .LBB670-.LBB633
	.uleb128 .LBE670-.LBB633
	.byte	0x4
	.uleb128 .LBB729-.LBB633
	.uleb128 .LBE729-.LBB633
	.byte	0x4
	.uleb128 .LBB734-.LBB633
	.uleb128 .LBE734-.LBB633
	.byte	0
.LLRL286:
	.byte	0x5
	.quad	.LBB635
	.byte	0x4
	.uleb128 .LBB635-.LBB635
	.uleb128 .LBE635-.LBB635
	.byte	0x4
	.uleb128 .LBB639-.LBB635
	.uleb128 .LBE639-.LBB635
	.byte	0x4
	.uleb128 .LBB659-.LBB635
	.uleb128 .LBE659-.LBB635
	.byte	0
.LLRL291:
	.byte	0x5
	.quad	.LBB640
	.byte	0x4
	.uleb128 .LBB640-.LBB640
	.uleb128 .LBE640-.LBB640
	.byte	0x4
	.uleb128 .LBB657-.LBB640
	.uleb128 .LBE657-.LBB640
	.byte	0x4
	.uleb128 .LBB658-.LBB640
	.uleb128 .LBE658-.LBB640
	.byte	0
.LLRL294:
	.byte	0x5
	.quad	.LBB642
	.byte	0x4
	.uleb128 .LBB642-.LBB642
	.uleb128 .LBE642-.LBB642
	.byte	0x4
	.uleb128 .LBB654-.LBB642
	.uleb128 .LBE654-.LBB642
	.byte	0
.LLRL300:
	.byte	0x5
	.quad	.LBB648
	.byte	0x4
	.uleb128 .LBB648-.LBB648
	.uleb128 .LBE648-.LBB648
	.byte	0x4
	.uleb128 .LBB652-.LBB648
	.uleb128 .LBE652-.LBB648
	.byte	0x4
	.uleb128 .LBB653-.LBB648
	.uleb128 .LBE653-.LBB648
	.byte	0
.LLRL307:
	.byte	0x5
	.quad	.LBB673
	.byte	0x4
	.uleb128 .LBB673-.LBB673
	.uleb128 .LBE673-.LBB673
	.byte	0x4
	.uleb128 .LBB735-.LBB673
	.uleb128 .LBE735-.LBB673
	.byte	0
.LLRL309:
	.byte	0x5
	.quad	.LBB677
	.byte	0x4
	.uleb128 .LBB677-.LBB677
	.uleb128 .LBE677-.LBB677
	.byte	0x4
	.uleb128 .LBB689-.LBB677
	.uleb128 .LBE689-.LBB677
	.byte	0
.LLRL311:
	.byte	0x5
	.quad	.LBB679
	.byte	0x4
	.uleb128 .LBB679-.LBB679
	.uleb128 .LBE679-.LBB679
	.byte	0x4
	.uleb128 .LBB682-.LBB679
	.uleb128 .LBE682-.LBB679
	.byte	0
.LLRL314:
	.byte	0x5
	.quad	.LBB683
	.byte	0x4
	.uleb128 .LBB683-.LBB683
	.uleb128 .LBE683-.LBB683
	.byte	0x4
	.uleb128 .LBB687-.LBB683
	.uleb128 .LBE687-.LBB683
	.byte	0x4
	.uleb128 .LBB688-.LBB683
	.uleb128 .LBE688-.LBB683
	.byte	0
.LLRL317:
	.byte	0x5
	.quad	.LBB690
	.byte	0x4
	.uleb128 .LBB690-.LBB690
	.uleb128 .LBE690-.LBB690
	.byte	0x4
	.uleb128 .LBB696-.LBB690
	.uleb128 .LBE696-.LBB690
	.byte	0
.LLRL318:
	.byte	0x5
	.quad	.LBB693
	.byte	0x4
	.uleb128 .LBB693-.LBB693
	.uleb128 .LBE693-.LBB693
	.byte	0x4
	.uleb128 .LBB697-.LBB693
	.uleb128 .LBE697-.LBB693
	.byte	0
.LLRL320:
	.byte	0x5
	.quad	.LBB698
	.byte	0x4
	.uleb128 .LBB698-.LBB698
	.uleb128 .LBE698-.LBB698
	.byte	0x4
	.uleb128 .LBB702-.LBB698
	.uleb128 .LBE702-.LBB698
	.byte	0x4
	.uleb128 .LBB703-.LBB698
	.uleb128 .LBE703-.LBB698
	.byte	0
.LLRL329:
	.byte	0x5
	.quad	.LBB710
	.byte	0x4
	.uleb128 .LBB710-.LBB710
	.uleb128 .LBE710-.LBB710
	.byte	0x4
	.uleb128 .LBB713-.LBB710
	.uleb128 .LBE713-.LBB710
	.byte	0
.LLRL334:
	.byte	0x5
	.quad	.LBB716
	.byte	0x4
	.uleb128 .LBB716-.LBB716
	.uleb128 .LBE716-.LBB716
	.byte	0x4
	.uleb128 .LBB720-.LBB716
	.uleb128 .LBE720-.LBB716
	.byte	0
.LLRL340:
	.byte	0x5
	.quad	.LBB723
	.byte	0x4
	.uleb128 .LBB723-.LBB723
	.uleb128 .LBE723-.LBB723
	.byte	0x4
	.uleb128 .LBB726-.LBB723
	.uleb128 .LBE726-.LBB723
	.byte	0
.LLRL345:
	.byte	0x5
	.quad	.LBB745
	.byte	0x4
	.uleb128 .LBB745-.LBB745
	.uleb128 .LBE745-.LBB745
	.byte	0x4
	.uleb128 .LBB748-.LBB745
	.uleb128 .LBE748-.LBB745
	.byte	0
.LLRL349:
	.byte	0x5
	.quad	.LBB768
	.byte	0x4
	.uleb128 .LBB768-.LBB768
	.uleb128 .LBE768-.LBB768
	.byte	0x4
	.uleb128 .LBB771-.LBB768
	.uleb128 .LBE771-.LBB768
	.byte	0
.LLRL352:
	.byte	0x5
	.quad	.LBB774
	.byte	0x4
	.uleb128 .LBB774-.LBB774
	.uleb128 .LBE774-.LBB774
	.byte	0x4
	.uleb128 .LBB781-.LBB774
	.uleb128 .LBE781-.LBB774
	.byte	0
.LLRL354:
	.byte	0x5
	.quad	.LBB777
	.byte	0x4
	.uleb128 .LBB777-.LBB777
	.uleb128 .LBE777-.LBB777
	.byte	0x4
	.uleb128 .LBB782-.LBB777
	.uleb128 .LBE782-.LBB777
	.byte	0x4
	.uleb128 .LBB786-.LBB777
	.uleb128 .LBE786-.LBB777
	.byte	0
.LLRL356:
	.byte	0x5
	.quad	.LBB783
	.byte	0x4
	.uleb128 .LBB783-.LBB783
	.uleb128 .LBE783-.LBB783
	.byte	0x4
	.uleb128 .LBB787-.LBB783
	.uleb128 .LBE787-.LBB783
	.byte	0
.LLRL359:
	.byte	0x5
	.quad	.LBB788
	.byte	0x4
	.uleb128 .LBB788-.LBB788
	.uleb128 .LBE788-.LBB788
	.byte	0x4
	.uleb128 .LBB793-.LBB788
	.uleb128 .LBE793-.LBB788
	.byte	0x4
	.uleb128 .LBB800-.LBB788
	.uleb128 .LBE800-.LBB788
	.byte	0x4
	.uleb128 .LBB801-.LBB788
	.uleb128 .LBE801-.LBB788
	.byte	0
.LLRL362:
	.byte	0x5
	.quad	.LBB794
	.byte	0x4
	.uleb128 .LBB794-.LBB794
	.uleb128 .LBE794-.LBB794
	.byte	0x4
	.uleb128 .LBB797-.LBB794
	.uleb128 .LBE797-.LBB794
	.byte	0
.LLRL369:
	.byte	0x7
	.quad	.Ltext0
	.uleb128 .Letext0-.Ltext0
	.byte	0x7
	.quad	.LFB5782
	.uleb128 .LFE5782-.LFB5782
	.byte	0
.Ldebug_ranges3:
	.section	.debug_line,"",@progbits
.Ldebug_line0:
	.section	.debug_str,"MS",@progbits,1
.LASF307:
	.string	"b1_test1"
.LASF269:
	.string	"__open_missing_mode"
.LASF243:
	.string	"__gmpz_urandomb"
.LASF115:
	.string	"PERF_COUNT_HW_CACHE_OP_READ"
.LASF183:
	.string	"exclude_idle"
.LASF271:
	.string	"getpid"
.LASF39:
	.string	"_shortbuf"
.LASF252:
	.string	"rand"
.LASF347:
	.string	"num1_base"
.LASF111:
	.string	"PERF_COUNT_HW_CACHE_BPU"
.LASF423:
	.string	"_IO_lock_t"
.LASF264:
	.string	"__read_alias"
.LASF340:
	.string	"stop_perf"
.LASF255:
	.string	"strlen"
.LASF229:
	.string	"stderr"
.LASF84:
	.string	"__u64"
.LASF28:
	.string	"_IO_buf_end"
.LASF38:
	.string	"_vtable_offset"
.LASF125:
	.string	"PERF_COUNT_SW_TASK_CLOCK"
.LASF302:
	.string	"flags"
.LASF313:
	.string	"b1_limbs"
.LASF419:
	.string	"__builtin_strcat"
.LASF322:
	.string	"digits"
.LASF26:
	.string	"_IO_write_end"
.LASF293:
	.string	"test1_gmp_time"
.LASF163:
	.string	"kprobe_func"
.LASF96:
	.string	"PERF_COUNT_HW_CACHE_REFERENCES"
.LASF319:
	.string	"sub_str_test1"
.LASF337:
	.string	"nanoseconds"
.LASF44:
	.string	"_freeres_list"
.LASF217:
	.string	"sample_stack_user"
.LASF20:
	.string	"_flags"
.LASF90:
	.string	"PERF_TYPE_BREAKPOINT"
.LASF113:
	.string	"PERF_COUNT_HW_CACHE_MAX"
.LASF251:
	.string	"strerror"
.LASF279:
	.string	"filename_gmp"
.LASF36:
	.string	"_old_offset"
.LASF244:
	.string	"__gmp_randseed_ui"
.LASF32:
	.string	"_markers"
.LASF416:
	.string	"__builtin_fwrite"
.LASF207:
	.string	"cgroup"
.LASF72:
	.string	"gmp_randalg_t"
.LASF71:
	.string	"GMP_RAND_ALG_LC"
.LASF114:
	.string	"perf_hw_cache_op_id"
.LASF91:
	.string	"PERF_TYPE_MAX"
.LASF143:
	.string	"PERF_SAMPLE_BRANCH_ANY_RETURN_SHIFT"
.LASF396:
	.string	"__ch"
.LASF133:
	.string	"PERF_COUNT_SW_DUMMY"
.LASF409:
	.string	"fputc"
.LASF329:
	.string	"start_index"
.LASF166:
	.string	"bp_len"
.LASF376:
	.string	"urandom_value"
.LASF418:
	.string	"__builtin_memcpy"
.LASF162:
	.string	"bp_addr"
.LASF333:
	.string	"result_gmp"
.LASF256:
	.string	"calloc"
.LASF304:
	.string	"test1_rdtsc"
.LASF420:
	.string	"__sprintf_chk"
.LASF283:
	.string	"file_gmp"
.LASF141:
	.string	"PERF_SAMPLE_BRANCH_ANY_SHIFT"
.LASF253:
	.string	"__errno_location"
.LASF223:
	.string	"aux_sample_size"
.LASF68:
	.string	"__mpz_struct"
.LASF15:
	.string	"__time_t"
.LASF368:
	.string	"result_ptr"
.LASF232:
	.string	"sub_space_ptr"
.LASF146:
	.string	"PERF_SAMPLE_BRANCH_IN_TX_SHIFT"
.LASF343:
	.string	"read_perf"
.LASF169:
	.string	"config2"
.LASF330:
	.string	"start_value"
.LASF179:
	.string	"exclusive"
.LASF138:
	.string	"PERF_SAMPLE_BRANCH_USER_SHIFT"
.LASF31:
	.string	"_IO_save_end"
.LASF185:
	.string	"comm"
.LASF214:
	.string	"bp_type"
.LASF80:
	.string	"float"
.LASF241:
	.string	"__gmpz_get_str"
.LASF37:
	.string	"_cur_column"
.LASF216:
	.string	"sample_regs_user"
.LASF300:
	.string	"cycles_low1"
.LASF208:
	.string	"text_poke"
.LASF258:
	.string	"malloc"
.LASF397:
	.string	"__len"
.LASF354:
	.string	"result_length"
.LASF237:
	.string	"count"
.LASF268:
	.string	"__open_2"
.LASF49:
	.string	"FILE"
.LASF148:
	.string	"PERF_SAMPLE_BRANCH_COND_SHIFT"
.LASF310:
	.string	"n_limb"
.LASF332:
	.string	"result"
.LASF176:
	.string	"disabled"
.LASF61:
	.string	"long long unsigned int"
.LASF129:
	.string	"PERF_COUNT_SW_PAGE_FAULTS_MIN"
.LASF282:
	.string	"file"
.LASF57:
	.string	"_IO_FILE"
.LASF75:
	.string	"_mp_algdata"
.LASF421:
	.string	"__builtin___sprintf_chk"
.LASF137:
	.string	"perf_branch_sample_type_shift"
.LASF161:
	.string	"wakeup_watermark"
.LASF86:
	.string	"PERF_TYPE_SOFTWARE"
.LASF150:
	.string	"PERF_SAMPLE_BRANCH_IND_JUMP_SHIFT"
.LASF23:
	.string	"_IO_read_base"
.LASF213:
	.string	"__reserved_1"
.LASF222:
	.string	"__reserved_2"
.LASF194:
	.string	"exclude_host"
.LASF116:
	.string	"PERF_COUNT_HW_CACHE_OP_WRITE"
.LASF30:
	.string	"_IO_backup_base"
.LASF136:
	.string	"PERF_COUNT_SW_MAX"
.LASF41:
	.string	"_offset"
.LASF323:
	.string	"time"
.LASF422:
	.string	"GNU C17 11.4.0 -mtune=generic -march=x86-64 -g -O3 -funroll-all-loops -fopt-info-vec-optimized=vec_report.txt -fasynchronous-unwind-tables -fstack-protector-strong -fstack-clash-protection -fcf-protection"
.LASF393:
	.string	"__dest"
.LASF353:
	.string	"formatResult"
.LASF403:
	.string	"fprintf"
.LASF34:
	.string	"_fileno"
.LASF219:
	.string	"sample_regs_intr"
.LASF390:
	.string	"__buf"
.LASF144:
	.string	"PERF_SAMPLE_BRANCH_IND_CALL_SHIFT"
.LASF76:
	.string	"__gmp_randstate_struct"
.LASF230:
	.string	"sub_space"
.LASF342:
	.string	"write_perf"
.LASF277:
	.string	"run_tests"
.LASF228:
	.string	"aligned_uint64_ptr"
.LASF413:
	.string	"puts"
.LASF69:
	.string	"mpz_t"
.LASF60:
	.string	"tv_nsec"
.LASF10:
	.string	"size_t"
.LASF315:
	.string	"sub_size_test1"
.LASF247:
	.string	"srand"
.LASF312:
	.string	"a1_limbs"
.LASF411:
	.string	"__snprintf_chk"
.LASF81:
	.string	"__u16"
.LASF55:
	.string	"pid_t"
.LASF426:
	.string	"_mm_malloc"
.LASF259:
	.string	"strtol"
.LASF382:
	.string	"measure_rdtsc_start"
.LASF335:
	.string	"_Bool"
.LASF398:
	.string	"memmove"
.LASF112:
	.string	"PERF_COUNT_HW_CACHE_NODE"
.LASF338:
	.string	"stop_timespec"
.LASF173:
	.string	"config"
.LASF236:
	.string	"NUM_BITS"
.LASF103:
	.string	"PERF_COUNT_HW_REF_CPU_CYCLES"
.LASF254:
	.string	"free"
.LASF11:
	.string	"__uint64_t"
.LASF210:
	.string	"inherit_thread"
.LASF131:
	.string	"PERF_COUNT_SW_ALIGNMENT_FAULTS"
.LASF234:
	.string	"LIMB_DIGITS"
.LASF186:
	.string	"freq"
.LASF355:
	.string	"result_str"
.LASF374:
	.string	"generate_seed"
.LASF85:
	.string	"PERF_TYPE_HARDWARE"
.LASF402:
	.string	"__fmt"
.LASF296:
	.string	"start_rdtsc_gmp"
.LASF3:
	.string	"long unsigned int"
.LASF377:
	.string	"perf_event_open"
.LASF248:
	.string	"ioctl"
.LASF95:
	.string	"PERF_COUNT_HW_INSTRUCTIONS"
.LASF425:
	.string	"_mm_free"
.LASF381:
	.string	"ticks"
.LASF385:
	.string	"__oflag"
.LASF87:
	.string	"PERF_TYPE_TRACEPOINT"
.LASF380:
	.string	"measure_rdtscp_end"
.LASF404:
	.string	"__stream"
.LASF123:
	.string	"perf_sw_ids"
.LASF58:
	.string	"timespec"
.LASF19:
	.string	"char"
.LASF250:
	.string	"__fprintf_chk"
.LASF47:
	.string	"_mode"
.LASF175:
	.string	"read_format"
.LASF100:
	.string	"PERF_COUNT_HW_BUS_CYCLES"
.LASF278:
	.string	"filename"
.LASF97:
	.string	"PERF_COUNT_HW_CACHE_MISSES"
.LASF119:
	.string	"perf_hw_cache_op_result_id"
.LASF64:
	.string	"mp_bitcnt_t"
.LASF50:
	.string	"_IO_marker"
.LASF272:
	.string	"close"
.LASF281:
	.string	"time_filename_gmp"
.LASF21:
	.string	"_IO_read_ptr"
.LASF180:
	.string	"exclude_user"
.LASF160:
	.string	"wakeup_events"
.LASF273:
	.string	"exit"
.LASF118:
	.string	"PERF_COUNT_HW_CACHE_OP_MAX"
.LASF190:
	.string	"watermark"
.LASF99:
	.string	"PERF_COUNT_HW_BRANCH_MISSES"
.LASF284:
	.string	"time_file"
.LASF53:
	.string	"ssize_t"
.LASF372:
	.string	"left_shift"
.LASF233:
	.string	"borrow_space_ptr"
.LASF414:
	.string	"__builtin_puts"
.LASF375:
	.string	"urandom_fd"
.LASF324:
	.string	"rdtsc"
.LASF215:
	.string	"branch_sample_type"
.LASF316:
	.string	"a1_test1_gmp"
.LASF98:
	.string	"PERF_COUNT_HW_BRANCH_INSTRUCTIONS"
.LASF285:
	.string	"time_file_gmp"
.LASF205:
	.string	"bpf_event"
.LASF157:
	.string	"_mp_lc"
.LASF52:
	.string	"_IO_wide_data"
.LASF383:
	.string	"warmup_rdtsc"
.LASF67:
	.string	"_mp_d"
.LASF24:
	.string	"_IO_write_base"
.LASF400:
	.string	"__nptr"
.LASF149:
	.string	"PERF_SAMPLE_BRANCH_CALL_STACK_SHIFT"
.LASF14:
	.string	"__pid_t"
.LASF54:
	.string	"long long int"
.LASF274:
	.string	"perror"
.LASF174:
	.string	"sample_type"
.LASF326:
	.string	"open_time_file"
.LASF401:
	.string	"printf"
.LASF29:
	.string	"_IO_save_base"
.LASF66:
	.string	"_mp_size"
.LASF327:
	.string	"generate_no_borrow_propagation"
.LASF192:
	.string	"mmap_data"
.LASF101:
	.string	"PERF_COUNT_HW_STALLED_CYCLES_FRONTEND"
.LASF110:
	.string	"PERF_COUNT_HW_CACHE_ITLB"
.LASF389:
	.string	"__fd"
.LASF260:
	.string	"__printf_chk"
.LASF220:
	.string	"aux_watermark"
.LASF154:
	.string	"PERF_SAMPLE_BRANCH_TYPE_SAVE_SHIFT"
.LASF369:
	.string	"is_less"
.LASF373:
	.string	"is_less_than"
.LASF18:
	.string	"__syscall_slong_t"
.LASF178:
	.string	"pinned"
.LASF73:
	.string	"_mp_seed"
.LASF395:
	.string	"memset"
.LASF290:
	.string	"sample_num_str"
.LASF361:
	.string	"num_limbs"
.LASF187:
	.string	"inherit_stat"
.LASF121:
	.string	"PERF_COUNT_HW_CACHE_RESULT_MISS"
.LASF202:
	.string	"write_backward"
.LASF408:
	.string	"__builtin_memmove"
.LASF135:
	.string	"PERF_COUNT_SW_CGROUP_SWITCHES"
.LASF92:
	.string	"perf_type_id"
.LASF172:
	.string	"size"
.LASF45:
	.string	"_freeres_buf"
.LASF320:
	.string	"sub_gmp_str_test1"
.LASF346:
	.string	"make_equidistant"
.LASF239:
	.string	"sleep"
.LASF126:
	.string	"PERF_COUNT_SW_PAGE_FAULTS"
.LASF276:
	.string	"syscall"
.LASF8:
	.string	"short int"
.LASF336:
	.string	"seconds"
.LASF218:
	.string	"clockid"
.LASF46:
	.string	"__pad5"
.LASF65:
	.string	"_mp_alloc"
.LASF286:
	.string	"values"
.LASF164:
	.string	"uprobe_path"
.LASF292:
	.string	"test1_time"
.LASF289:
	.string	"seed"
.LASF197:
	.string	"exclude_callchain_user"
.LASF224:
	.string	"__reserved_3"
.LASF311:
	.string	"m_limb"
.LASF249:
	.string	"fopen"
.LASF196:
	.string	"exclude_callchain_kernel"
.LASF365:
	.string	"argc"
.LASF245:
	.string	"__gmp_randinit_default"
.LASF367:
	.string	"sub_n"
.LASF339:
	.string	"start_timespec"
.LASF209:
	.string	"build_id"
.LASF181:
	.string	"exclude_kernel"
.LASF77:
	.string	"gmp_randstate_t"
.LASF203:
	.string	"namespaces"
.LASF308:
	.string	"a1_str_test1"
.LASF366:
	.string	"argv"
.LASF62:
	.string	"long double"
.LASF306:
	.string	"a1_test1"
.LASF140:
	.string	"PERF_SAMPLE_BRANCH_HV_SHIFT"
.LASF406:
	.string	"sprintf"
.LASF107:
	.string	"PERF_COUNT_HW_CACHE_L1I"
.LASF349:
	.string	"num1"
.LASF350:
	.string	"num2"
.LASF43:
	.string	"_wide_data"
.LASF83:
	.string	"__u32"
.LASF321:
	.string	"convert_digits_to_string"
.LASF182:
	.string	"exclude_hv"
.LASF227:
	.string	"aligned_uint64"
.LASF168:
	.string	"probe_offset"
.LASF356:
	.string	"final_result"
.LASF105:
	.string	"perf_hw_cache_id"
.LASF155:
	.string	"PERF_SAMPLE_BRANCH_HW_INDEX_SHIFT"
.LASF405:
	.string	"snprintf"
.LASF262:
	.string	"__read_chk"
.LASF82:
	.string	"__s32"
.LASF348:
	.string	"num2_base"
.LASF360:
	.string	"limbs"
.LASF79:
	.string	"mpz_ptr"
.LASF104:
	.string	"PERF_COUNT_HW_MAX"
.LASF89:
	.string	"PERF_TYPE_RAW"
.LASF78:
	.string	"mpz_srcptr"
.LASF384:
	.string	"__path"
.LASF9:
	.string	"long int"
.LASF16:
	.string	"__clockid_t"
.LASF359:
	.string	"length"
.LASF345:
	.string	"initialize_perf"
.LASF427:
	.string	"__stack_chk_fail"
.LASF351:
	.string	"temp"
.LASF295:
	.string	"end_rdtsc"
.LASF74:
	.string	"_mp_alg"
.LASF177:
	.string	"inherit"
.LASF120:
	.string	"PERF_COUNT_HW_CACHE_RESULT_ACCESS"
.LASF201:
	.string	"context_switch"
.LASF139:
	.string	"PERF_SAMPLE_BRANCH_KERNEL_SHIFT"
.LASF266:
	.string	"__open_alias"
.LASF130:
	.string	"PERF_COUNT_SW_PAGE_FAULTS_MAJ"
.LASF193:
	.string	"sample_id_all"
.LASF88:
	.string	"PERF_TYPE_HW_CACHE"
.LASF226:
	.string	"uint64_t"
.LASF275:
	.string	"clock_gettime"
.LASF242:
	.string	"__gmpz_sub"
.LASF153:
	.string	"PERF_SAMPLE_BRANCH_NO_CYCLES_SHIFT"
.LASF200:
	.string	"use_clockid"
.LASF305:
	.string	"test1_rdtsc_gmp"
.LASF280:
	.string	"time_filename"
.LASF17:
	.string	"__ssize_t"
.LASF358:
	.string	"number"
.LASF265:
	.string	"read"
.LASF303:
	.string	"start"
.LASF4:
	.string	"unsigned int"
.LASF152:
	.string	"PERF_SAMPLE_BRANCH_NO_FLAGS_SHIFT"
.LASF27:
	.string	"_IO_buf_base"
.LASF267:
	.string	"open"
.LASF407:
	.string	"__builtin_memset"
.LASF362:
	.string	"limb"
.LASF127:
	.string	"PERF_COUNT_SW_CONTEXT_SWITCHES"
.LASF235:
	.string	"CORE_NO"
.LASF40:
	.string	"_lock"
.LASF59:
	.string	"tv_sec"
.LASF151:
	.string	"PERF_SAMPLE_BRANCH_CALL_SHIFT"
.LASF297:
	.string	"end_rdtsc_gmp"
.LASF51:
	.string	"_IO_codecvt"
.LASF301:
	.string	"cycles_high1"
.LASF287:
	.string	"sample_num"
.LASF291:
	.string	"sub_size"
.LASF191:
	.string	"precise_ip"
.LASF317:
	.string	"b1_test1_gmp"
.LASF386:
	.string	"__ptr"
.LASF63:
	.string	"mp_limb_t"
.LASF128:
	.string	"PERF_COUNT_SW_CPU_MIGRATIONS"
.LASF294:
	.string	"start_rdtsc"
.LASF134:
	.string	"PERF_COUNT_SW_BPF_OUTPUT"
.LASF167:
	.string	"kprobe_addr"
.LASF379:
	.string	"group_fd"
.LASF246:
	.string	"__gmpz_init"
.LASF56:
	.string	"clockid_t"
.LASF314:
	.string	"sub_test1"
.LASF388:
	.string	"__alignment"
.LASF171:
	.string	"type"
.LASF142:
	.string	"PERF_SAMPLE_BRANCH_ANY_CALL_SHIFT"
.LASF198:
	.string	"mmap2"
.LASF189:
	.string	"task"
.LASF5:
	.string	"unsigned char"
.LASF371:
	.string	"last_borrow_block"
.LASF394:
	.string	"__src"
.LASF165:
	.string	"config1"
.LASF25:
	.string	"_IO_write_ptr"
.LASF378:
	.string	"hw_event"
.LASF109:
	.string	"PERF_COUNT_HW_CACHE_DTLB"
.LASF331:
	.string	"check_result"
.LASF122:
	.string	"PERF_COUNT_HW_CACHE_RESULT_MAX"
.LASF357:
	.string	"returnLimbs"
.LASF263:
	.string	"__read_chk_warn"
.LASF195:
	.string	"exclude_guest"
.LASF132:
	.string	"PERF_COUNT_SW_EMULATION_FAULTS"
.LASF211:
	.string	"remove_on_exec"
.LASF270:
	.string	"__open_too_many_args"
.LASF288:
	.string	"state"
.LASF325:
	.string	"write_time"
.LASF70:
	.string	"GMP_RAND_ALG_DEFAULT"
.LASF170:
	.string	"perf_event_attr"
.LASF392:
	.string	"strcat"
.LASF240:
	.string	"__gmpz_set_str"
.LASF42:
	.string	"_codecvt"
.LASF225:
	.string	"sig_data"
.LASF299:
	.string	"cycles_high"
.LASF156:
	.string	"PERF_SAMPLE_BRANCH_MAX_SHIFT"
.LASF145:
	.string	"PERF_SAMPLE_BRANCH_ABORT_TX_SHIFT"
.LASF204:
	.string	"ksymbol"
.LASF363:
	.string	"power"
.LASF415:
	.string	"fwrite"
.LASF212:
	.string	"sigtrap"
.LASF12:
	.string	"__off_t"
.LASF221:
	.string	"sample_max_stack"
.LASF7:
	.string	"signed char"
.LASF206:
	.string	"aux_output"
.LASF6:
	.string	"short unsigned int"
.LASF261:
	.string	"__assert_fail"
.LASF417:
	.string	"memcpy"
.LASF364:
	.string	"main"
.LASF334:
	.string	"result_size"
.LASF399:
	.string	"atoi"
.LASF22:
	.string	"_IO_read_end"
.LASF424:
	.string	"__PRETTY_FUNCTION__"
.LASF108:
	.string	"PERF_COUNT_HW_CACHE_LL"
.LASF159:
	.string	"sample_freq"
.LASF370:
	.string	"borrow_array"
.LASF106:
	.string	"PERF_COUNT_HW_CACHE_L1D"
.LASF2:
	.string	"double"
.LASF328:
	.string	"group_size"
.LASF184:
	.string	"mmap"
.LASF309:
	.string	"b1_str_test1"
.LASF158:
	.string	"sample_period"
.LASF33:
	.string	"_chain"
.LASF391:
	.string	"__nbytes"
.LASF238:
	.string	"event_names"
.LASF199:
	.string	"comm_exec"
.LASF412:
	.string	"__builtin___snprintf_chk"
.LASF94:
	.string	"PERF_COUNT_HW_CPU_CYCLES"
.LASF35:
	.string	"_flags2"
.LASF257:
	.string	"posix_memalign"
.LASF102:
	.string	"PERF_COUNT_HW_STALLED_CYCLES_BACKEND"
.LASF410:
	.string	"__builtin_fputc"
.LASF352:
	.string	"calculate_time"
.LASF387:
	.string	"__size"
.LASF147:
	.string	"PERF_SAMPLE_BRANCH_NO_TX_SHIFT"
.LASF188:
	.string	"enable_on_exec"
.LASF93:
	.string	"perf_hw_id"
.LASF231:
	.string	"borrow_space"
.LASF124:
	.string	"PERF_COUNT_SW_CPU_CLOCK"
.LASF13:
	.string	"__off64_t"
.LASF318:
	.string	"sub_gmp_test1"
.LASF48:
	.string	"_unused2"
.LASF117:
	.string	"PERF_COUNT_HW_CACHE_OP_PREFETCH"
.LASF344:
	.string	"open_file"
.LASF298:
	.string	"cycles_low"
.LASF341:
	.string	"start_perf"
	.section	.debug_line_str,"MS",@progbits,1
.LASF1:
	.string	"/users/lattu/Large-Number-Arithmetic-Operations/subtraction"
.LASF0:
	.string	"sub_64_aligned.c"
	.ident	"GCC: (Ubuntu 11.4.0-1ubuntu1~22.04) 11.4.0"
	.section	.note.GNU-stack,"",@progbits
	.section	.note.gnu.property,"a"
	.align 8
	.long	1f - 0f
	.long	4f - 1f
	.long	5
0:
	.string	"GNU"
1:
	.align 8
	.long	0xc0000002
	.long	3f - 2f
2:
	.long	0x3
3:
	.align 8
4:
