
urdhva_indices_test:     file format elf64-x86-64


Disassembly of section .init:

0000000000001000 <_init>:
    1000:	f3 0f 1e fa          	endbr64 
    1004:	48 83 ec 08          	sub    $0x8,%rsp
    1008:	48 8b 05 d1 6f 00 00 	mov    0x6fd1(%rip),%rax        # 7fe0 <__gmon_start__@Base>
    100f:	48 85 c0             	test   %rax,%rax
    1012:	74 02                	je     1016 <_init+0x16>
    1014:	ff d0                	call   *%rax
    1016:	48 83 c4 08          	add    $0x8,%rsp
    101a:	c3                   	ret    

Disassembly of section .plt:

0000000000001020 <.plt>:
    1020:	ff 35 82 6e 00 00    	push   0x6e82(%rip)        # 7ea8 <_GLOBAL_OFFSET_TABLE_+0x8>
    1026:	f2 ff 25 83 6e 00 00 	bnd jmp *0x6e83(%rip)        # 7eb0 <_GLOBAL_OFFSET_TABLE_+0x10>
    102d:	0f 1f 00             	nopl   (%rax)
    1030:	f3 0f 1e fa          	endbr64 
    1034:	68 00 00 00 00       	push   $0x0
    1039:	f2 e9 e1 ff ff ff    	bnd jmp 1020 <_init+0x20>
    103f:	90                   	nop
    1040:	f3 0f 1e fa          	endbr64 
    1044:	68 01 00 00 00       	push   $0x1
    1049:	f2 e9 d1 ff ff ff    	bnd jmp 1020 <_init+0x20>
    104f:	90                   	nop
    1050:	f3 0f 1e fa          	endbr64 
    1054:	68 02 00 00 00       	push   $0x2
    1059:	f2 e9 c1 ff ff ff    	bnd jmp 1020 <_init+0x20>
    105f:	90                   	nop
    1060:	f3 0f 1e fa          	endbr64 
    1064:	68 03 00 00 00       	push   $0x3
    1069:	f2 e9 b1 ff ff ff    	bnd jmp 1020 <_init+0x20>
    106f:	90                   	nop
    1070:	f3 0f 1e fa          	endbr64 
    1074:	68 04 00 00 00       	push   $0x4
    1079:	f2 e9 a1 ff ff ff    	bnd jmp 1020 <_init+0x20>
    107f:	90                   	nop
    1080:	f3 0f 1e fa          	endbr64 
    1084:	68 05 00 00 00       	push   $0x5
    1089:	f2 e9 91 ff ff ff    	bnd jmp 1020 <_init+0x20>
    108f:	90                   	nop
    1090:	f3 0f 1e fa          	endbr64 
    1094:	68 06 00 00 00       	push   $0x6
    1099:	f2 e9 81 ff ff ff    	bnd jmp 1020 <_init+0x20>
    109f:	90                   	nop
    10a0:	f3 0f 1e fa          	endbr64 
    10a4:	68 07 00 00 00       	push   $0x7
    10a9:	f2 e9 71 ff ff ff    	bnd jmp 1020 <_init+0x20>
    10af:	90                   	nop
    10b0:	f3 0f 1e fa          	endbr64 
    10b4:	68 08 00 00 00       	push   $0x8
    10b9:	f2 e9 61 ff ff ff    	bnd jmp 1020 <_init+0x20>
    10bf:	90                   	nop
    10c0:	f3 0f 1e fa          	endbr64 
    10c4:	68 09 00 00 00       	push   $0x9
    10c9:	f2 e9 51 ff ff ff    	bnd jmp 1020 <_init+0x20>
    10cf:	90                   	nop
    10d0:	f3 0f 1e fa          	endbr64 
    10d4:	68 0a 00 00 00       	push   $0xa
    10d9:	f2 e9 41 ff ff ff    	bnd jmp 1020 <_init+0x20>
    10df:	90                   	nop
    10e0:	f3 0f 1e fa          	endbr64 
    10e4:	68 0b 00 00 00       	push   $0xb
    10e9:	f2 e9 31 ff ff ff    	bnd jmp 1020 <_init+0x20>
    10ef:	90                   	nop
    10f0:	f3 0f 1e fa          	endbr64 
    10f4:	68 0c 00 00 00       	push   $0xc
    10f9:	f2 e9 21 ff ff ff    	bnd jmp 1020 <_init+0x20>
    10ff:	90                   	nop
    1100:	f3 0f 1e fa          	endbr64 
    1104:	68 0d 00 00 00       	push   $0xd
    1109:	f2 e9 11 ff ff ff    	bnd jmp 1020 <_init+0x20>
    110f:	90                   	nop
    1110:	f3 0f 1e fa          	endbr64 
    1114:	68 0e 00 00 00       	push   $0xe
    1119:	f2 e9 01 ff ff ff    	bnd jmp 1020 <_init+0x20>
    111f:	90                   	nop
    1120:	f3 0f 1e fa          	endbr64 
    1124:	68 0f 00 00 00       	push   $0xf
    1129:	f2 e9 f1 fe ff ff    	bnd jmp 1020 <_init+0x20>
    112f:	90                   	nop
    1130:	f3 0f 1e fa          	endbr64 
    1134:	68 10 00 00 00       	push   $0x10
    1139:	f2 e9 e1 fe ff ff    	bnd jmp 1020 <_init+0x20>
    113f:	90                   	nop
    1140:	f3 0f 1e fa          	endbr64 
    1144:	68 11 00 00 00       	push   $0x11
    1149:	f2 e9 d1 fe ff ff    	bnd jmp 1020 <_init+0x20>
    114f:	90                   	nop
    1150:	f3 0f 1e fa          	endbr64 
    1154:	68 12 00 00 00       	push   $0x12
    1159:	f2 e9 c1 fe ff ff    	bnd jmp 1020 <_init+0x20>
    115f:	90                   	nop
    1160:	f3 0f 1e fa          	endbr64 
    1164:	68 13 00 00 00       	push   $0x13
    1169:	f2 e9 b1 fe ff ff    	bnd jmp 1020 <_init+0x20>
    116f:	90                   	nop
    1170:	f3 0f 1e fa          	endbr64 
    1174:	68 14 00 00 00       	push   $0x14
    1179:	f2 e9 a1 fe ff ff    	bnd jmp 1020 <_init+0x20>
    117f:	90                   	nop
    1180:	f3 0f 1e fa          	endbr64 
    1184:	68 15 00 00 00       	push   $0x15
    1189:	f2 e9 91 fe ff ff    	bnd jmp 1020 <_init+0x20>
    118f:	90                   	nop
    1190:	f3 0f 1e fa          	endbr64 
    1194:	68 16 00 00 00       	push   $0x16
    1199:	f2 e9 81 fe ff ff    	bnd jmp 1020 <_init+0x20>
    119f:	90                   	nop
    11a0:	f3 0f 1e fa          	endbr64 
    11a4:	68 17 00 00 00       	push   $0x17
    11a9:	f2 e9 71 fe ff ff    	bnd jmp 1020 <_init+0x20>
    11af:	90                   	nop
    11b0:	f3 0f 1e fa          	endbr64 
    11b4:	68 18 00 00 00       	push   $0x18
    11b9:	f2 e9 61 fe ff ff    	bnd jmp 1020 <_init+0x20>
    11bf:	90                   	nop
    11c0:	f3 0f 1e fa          	endbr64 
    11c4:	68 19 00 00 00       	push   $0x19
    11c9:	f2 e9 51 fe ff ff    	bnd jmp 1020 <_init+0x20>
    11cf:	90                   	nop
    11d0:	f3 0f 1e fa          	endbr64 
    11d4:	68 1a 00 00 00       	push   $0x1a
    11d9:	f2 e9 41 fe ff ff    	bnd jmp 1020 <_init+0x20>
    11df:	90                   	nop
    11e0:	f3 0f 1e fa          	endbr64 
    11e4:	68 1b 00 00 00       	push   $0x1b
    11e9:	f2 e9 31 fe ff ff    	bnd jmp 1020 <_init+0x20>
    11ef:	90                   	nop
    11f0:	f3 0f 1e fa          	endbr64 
    11f4:	68 1c 00 00 00       	push   $0x1c
    11f9:	f2 e9 21 fe ff ff    	bnd jmp 1020 <_init+0x20>
    11ff:	90                   	nop
    1200:	f3 0f 1e fa          	endbr64 
    1204:	68 1d 00 00 00       	push   $0x1d
    1209:	f2 e9 11 fe ff ff    	bnd jmp 1020 <_init+0x20>
    120f:	90                   	nop
    1210:	f3 0f 1e fa          	endbr64 
    1214:	68 1e 00 00 00       	push   $0x1e
    1219:	f2 e9 01 fe ff ff    	bnd jmp 1020 <_init+0x20>
    121f:	90                   	nop
    1220:	f3 0f 1e fa          	endbr64 
    1224:	68 1f 00 00 00       	push   $0x1f
    1229:	f2 e9 f1 fd ff ff    	bnd jmp 1020 <_init+0x20>
    122f:	90                   	nop
    1230:	f3 0f 1e fa          	endbr64 
    1234:	68 20 00 00 00       	push   $0x20
    1239:	f2 e9 e1 fd ff ff    	bnd jmp 1020 <_init+0x20>
    123f:	90                   	nop
    1240:	f3 0f 1e fa          	endbr64 
    1244:	68 21 00 00 00       	push   $0x21
    1249:	f2 e9 d1 fd ff ff    	bnd jmp 1020 <_init+0x20>
    124f:	90                   	nop
    1250:	f3 0f 1e fa          	endbr64 
    1254:	68 22 00 00 00       	push   $0x22
    1259:	f2 e9 c1 fd ff ff    	bnd jmp 1020 <_init+0x20>
    125f:	90                   	nop

Disassembly of section .plt.got:

0000000000001260 <__cxa_finalize@plt>:
    1260:	f3 0f 1e fa          	endbr64 
    1264:	f2 ff 25 85 6d 00 00 	bnd jmp *0x6d85(%rip)        # 7ff0 <__cxa_finalize@GLIBC_2.2.5>
    126b:	0f 1f 44 00 00       	nopl   0x0(%rax,%rax,1)

Disassembly of section .plt.sec:

0000000000001270 <__gmp_randseed_ui@plt>:
    1270:	f3 0f 1e fa          	endbr64 
    1274:	f2 ff 25 3d 6c 00 00 	bnd jmp *0x6c3d(%rip)        # 7eb8 <__gmp_randseed_ui@Base>
    127b:	0f 1f 44 00 00       	nopl   0x0(%rax,%rax,1)

0000000000001280 <__snprintf_chk@plt>:
    1280:	f3 0f 1e fa          	endbr64 
    1284:	f2 ff 25 35 6c 00 00 	bnd jmp *0x6c35(%rip)        # 7ec0 <__snprintf_chk@GLIBC_2.3.4>
    128b:	0f 1f 44 00 00       	nopl   0x0(%rax,%rax,1)

0000000000001290 <free@plt>:
    1290:	f3 0f 1e fa          	endbr64 
    1294:	f2 ff 25 2d 6c 00 00 	bnd jmp *0x6c2d(%rip)        # 7ec8 <free@GLIBC_2.2.5>
    129b:	0f 1f 44 00 00       	nopl   0x0(%rax,%rax,1)

00000000000012a0 <putchar@plt>:
    12a0:	f3 0f 1e fa          	endbr64 
    12a4:	f2 ff 25 25 6c 00 00 	bnd jmp *0x6c25(%rip)        # 7ed0 <putchar@GLIBC_2.2.5>
    12ab:	0f 1f 44 00 00       	nopl   0x0(%rax,%rax,1)

00000000000012b0 <__gmpz_set_str@plt>:
    12b0:	f3 0f 1e fa          	endbr64 
    12b4:	f2 ff 25 1d 6c 00 00 	bnd jmp *0x6c1d(%rip)        # 7ed8 <__gmpz_set_str@Base>
    12bb:	0f 1f 44 00 00       	nopl   0x0(%rax,%rax,1)

00000000000012c0 <puts@plt>:
    12c0:	f3 0f 1e fa          	endbr64 
    12c4:	f2 ff 25 15 6c 00 00 	bnd jmp *0x6c15(%rip)        # 7ee0 <puts@GLIBC_2.2.5>
    12cb:	0f 1f 44 00 00       	nopl   0x0(%rax,%rax,1)

00000000000012d0 <getpid@plt>:
    12d0:	f3 0f 1e fa          	endbr64 
    12d4:	f2 ff 25 0d 6c 00 00 	bnd jmp *0x6c0d(%rip)        # 7ee8 <getpid@GLIBC_2.2.5>
    12db:	0f 1f 44 00 00       	nopl   0x0(%rax,%rax,1)

00000000000012e0 <fclose@plt>:
    12e0:	f3 0f 1e fa          	endbr64 
    12e4:	f2 ff 25 05 6c 00 00 	bnd jmp *0x6c05(%rip)        # 7ef0 <fclose@GLIBC_2.2.5>
    12eb:	0f 1f 44 00 00       	nopl   0x0(%rax,%rax,1)

00000000000012f0 <strlen@plt>:
    12f0:	f3 0f 1e fa          	endbr64 
    12f4:	f2 ff 25 fd 6b 00 00 	bnd jmp *0x6bfd(%rip)        # 7ef8 <strlen@GLIBC_2.2.5>
    12fb:	0f 1f 44 00 00       	nopl   0x0(%rax,%rax,1)

0000000000001300 <__gmpz_get_str@plt>:
    1300:	f3 0f 1e fa          	endbr64 
    1304:	f2 ff 25 f5 6b 00 00 	bnd jmp *0x6bf5(%rip)        # 7f00 <__gmpz_get_str@Base>
    130b:	0f 1f 44 00 00       	nopl   0x0(%rax,%rax,1)

0000000000001310 <__stack_chk_fail@plt>:
    1310:	f3 0f 1e fa          	endbr64 
    1314:	f2 ff 25 ed 6b 00 00 	bnd jmp *0x6bed(%rip)        # 7f08 <__stack_chk_fail@GLIBC_2.4>
    131b:	0f 1f 44 00 00       	nopl   0x0(%rax,%rax,1)

0000000000001320 <__gmp_randclear@plt>:
    1320:	f3 0f 1e fa          	endbr64 
    1324:	f2 ff 25 e5 6b 00 00 	bnd jmp *0x6be5(%rip)        # 7f10 <__gmp_randclear@Base>
    132b:	0f 1f 44 00 00       	nopl   0x0(%rax,%rax,1)

0000000000001330 <__gmpz_mul@plt>:
    1330:	f3 0f 1e fa          	endbr64 
    1334:	f2 ff 25 dd 6b 00 00 	bnd jmp *0x6bdd(%rip)        # 7f18 <__gmpz_mul@Base>
    133b:	0f 1f 44 00 00       	nopl   0x0(%rax,%rax,1)

0000000000001340 <gettimeofday@plt>:
    1340:	f3 0f 1e fa          	endbr64 
    1344:	f2 ff 25 d5 6b 00 00 	bnd jmp *0x6bd5(%rip)        # 7f20 <gettimeofday@GLIBC_2.2.5>
    134b:	0f 1f 44 00 00       	nopl   0x0(%rax,%rax,1)

0000000000001350 <memset@plt>:
    1350:	f3 0f 1e fa          	endbr64 
    1354:	f2 ff 25 cd 6b 00 00 	bnd jmp *0x6bcd(%rip)        # 7f28 <memset@GLIBC_2.2.5>
    135b:	0f 1f 44 00 00       	nopl   0x0(%rax,%rax,1)

0000000000001360 <ioctl@plt>:
    1360:	f3 0f 1e fa          	endbr64 
    1364:	f2 ff 25 c5 6b 00 00 	bnd jmp *0x6bc5(%rip)        # 7f30 <ioctl@GLIBC_2.2.5>
    136b:	0f 1f 44 00 00       	nopl   0x0(%rax,%rax,1)

0000000000001370 <close@plt>:
    1370:	f3 0f 1e fa          	endbr64 
    1374:	f2 ff 25 bd 6b 00 00 	bnd jmp *0x6bbd(%rip)        # 7f38 <close@GLIBC_2.2.5>
    137b:	0f 1f 44 00 00       	nopl   0x0(%rax,%rax,1)

0000000000001380 <fputc@plt>:
    1380:	f3 0f 1e fa          	endbr64 
    1384:	f2 ff 25 b5 6b 00 00 	bnd jmp *0x6bb5(%rip)        # 7f40 <fputc@GLIBC_2.2.5>
    138b:	0f 1f 44 00 00       	nopl   0x0(%rax,%rax,1)

0000000000001390 <read@plt>:
    1390:	f3 0f 1e fa          	endbr64 
    1394:	f2 ff 25 ad 6b 00 00 	bnd jmp *0x6bad(%rip)        # 7f48 <read@GLIBC_2.2.5>
    139b:	0f 1f 44 00 00       	nopl   0x0(%rax,%rax,1)

00000000000013a0 <srand@plt>:
    13a0:	f3 0f 1e fa          	endbr64 
    13a4:	f2 ff 25 a5 6b 00 00 	bnd jmp *0x6ba5(%rip)        # 7f50 <srand@GLIBC_2.2.5>
    13ab:	0f 1f 44 00 00       	nopl   0x0(%rax,%rax,1)

00000000000013b0 <__gmp_randinit_default@plt>:
    13b0:	f3 0f 1e fa          	endbr64 
    13b4:	f2 ff 25 9d 6b 00 00 	bnd jmp *0x6b9d(%rip)        # 7f58 <__gmp_randinit_default@Base>
    13bb:	0f 1f 44 00 00       	nopl   0x0(%rax,%rax,1)

00000000000013c0 <calloc@plt>:
    13c0:	f3 0f 1e fa          	endbr64 
    13c4:	f2 ff 25 95 6b 00 00 	bnd jmp *0x6b95(%rip)        # 7f60 <calloc@GLIBC_2.2.5>
    13cb:	0f 1f 44 00 00       	nopl   0x0(%rax,%rax,1)

00000000000013d0 <syscall@plt>:
    13d0:	f3 0f 1e fa          	endbr64 
    13d4:	f2 ff 25 8d 6b 00 00 	bnd jmp *0x6b8d(%rip)        # 7f68 <syscall@GLIBC_2.2.5>
    13db:	0f 1f 44 00 00       	nopl   0x0(%rax,%rax,1)

00000000000013e0 <memcpy@plt>:
    13e0:	f3 0f 1e fa          	endbr64 
    13e4:	f2 ff 25 85 6b 00 00 	bnd jmp *0x6b85(%rip)        # 7f70 <memcpy@GLIBC_2.14>
    13eb:	0f 1f 44 00 00       	nopl   0x0(%rax,%rax,1)

00000000000013f0 <time@plt>:
    13f0:	f3 0f 1e fa          	endbr64 
    13f4:	f2 ff 25 7d 6b 00 00 	bnd jmp *0x6b7d(%rip)        # 7f78 <time@GLIBC_2.2.5>
    13fb:	0f 1f 44 00 00       	nopl   0x0(%rax,%rax,1)

0000000000001400 <__gmpz_clear@plt>:
    1400:	f3 0f 1e fa          	endbr64 
    1404:	f2 ff 25 75 6b 00 00 	bnd jmp *0x6b75(%rip)        # 7f80 <__gmpz_clear@Base>
    140b:	0f 1f 44 00 00       	nopl   0x0(%rax,%rax,1)

0000000000001410 <realloc@plt>:
    1410:	f3 0f 1e fa          	endbr64 
    1414:	f2 ff 25 6d 6b 00 00 	bnd jmp *0x6b6d(%rip)        # 7f88 <realloc@GLIBC_2.2.5>
    141b:	0f 1f 44 00 00       	nopl   0x0(%rax,%rax,1)

0000000000001420 <__printf_chk@plt>:
    1420:	f3 0f 1e fa          	endbr64 
    1424:	f2 ff 25 65 6b 00 00 	bnd jmp *0x6b65(%rip)        # 7f90 <__printf_chk@GLIBC_2.3.4>
    142b:	0f 1f 44 00 00       	nopl   0x0(%rax,%rax,1)

0000000000001430 <fopen@plt>:
    1430:	f3 0f 1e fa          	endbr64 
    1434:	f2 ff 25 5d 6b 00 00 	bnd jmp *0x6b5d(%rip)        # 7f98 <fopen@GLIBC_2.2.5>
    143b:	0f 1f 44 00 00       	nopl   0x0(%rax,%rax,1)

0000000000001440 <perror@plt>:
    1440:	f3 0f 1e fa          	endbr64 
    1444:	f2 ff 25 55 6b 00 00 	bnd jmp *0x6b55(%rip)        # 7fa0 <perror@GLIBC_2.2.5>
    144b:	0f 1f 44 00 00       	nopl   0x0(%rax,%rax,1)

0000000000001450 <exit@plt>:
    1450:	f3 0f 1e fa          	endbr64 
    1454:	f2 ff 25 4d 6b 00 00 	bnd jmp *0x6b4d(%rip)        # 7fa8 <exit@GLIBC_2.2.5>
    145b:	0f 1f 44 00 00       	nopl   0x0(%rax,%rax,1)

0000000000001460 <__fprintf_chk@plt>:
    1460:	f3 0f 1e fa          	endbr64 
    1464:	f2 ff 25 45 6b 00 00 	bnd jmp *0x6b45(%rip)        # 7fb0 <__fprintf_chk@GLIBC_2.3.4>
    146b:	0f 1f 44 00 00       	nopl   0x0(%rax,%rax,1)

0000000000001470 <__gmpz_init@plt>:
    1470:	f3 0f 1e fa          	endbr64 
    1474:	f2 ff 25 3d 6b 00 00 	bnd jmp *0x6b3d(%rip)        # 7fb8 <__gmpz_init@Base>
    147b:	0f 1f 44 00 00       	nopl   0x0(%rax,%rax,1)

0000000000001480 <__gmpz_urandomb@plt>:
    1480:	f3 0f 1e fa          	endbr64 
    1484:	f2 ff 25 35 6b 00 00 	bnd jmp *0x6b35(%rip)        # 7fc0 <__gmpz_urandomb@Base>
    148b:	0f 1f 44 00 00       	nopl   0x0(%rax,%rax,1)

0000000000001490 <rand@plt>:
    1490:	f3 0f 1e fa          	endbr64 
    1494:	f2 ff 25 2d 6b 00 00 	bnd jmp *0x6b2d(%rip)        # 7fc8 <rand@GLIBC_2.2.5>
    149b:	0f 1f 44 00 00       	nopl   0x0(%rax,%rax,1)

Disassembly of section .text:

00000000000014a0 <main>:
    14a0:	f3 0f 1e fa          	endbr64 
    14a4:	4c 8d 54 24 08       	lea    0x8(%rsp),%r10
    14a9:	48 83 e4 e0          	and    $0xffffffffffffffe0,%rsp
    14ad:	41 ff 72 f8          	push   -0x8(%r10)
    14b1:	55                   	push   %rbp
    14b2:	48 89 e5             	mov    %rsp,%rbp
    14b5:	41 57                	push   %r15
    14b7:	48 8d bd 20 fa ff ff 	lea    -0x5e0(%rbp),%rdi
    14be:	41 56                	push   %r14
    14c0:	4c 8d b5 50 fa ff ff 	lea    -0x5b0(%rbp),%r14
    14c7:	41 55                	push   %r13
    14c9:	4c 8d ad 40 fc ff ff 	lea    -0x3c0(%rbp),%r13
    14d0:	41 54                	push   %r12
    14d2:	41 52                	push   %r10
    14d4:	53                   	push   %rbx
    14d5:	31 db                	xor    %ebx,%ebx
    14d7:	48 81 ec c0 06 00 00 	sub    $0x6c0,%rsp
    14de:	64 48 8b 04 25 28 00 	mov    %fs:0x28,%rax
    14e5:	00 00 
    14e7:	48 89 45 c8          	mov    %rax,-0x38(%rbp)
    14eb:	31 c0                	xor    %eax,%eax
    14ed:	48 89 bd 48 f9 ff ff 	mov    %rdi,-0x6b8(%rbp)
    14f4:	e8 77 ff ff ff       	call   1470 <__gmpz_init@plt>
    14f9:	48 8d bd 10 fa ff ff 	lea    -0x5f0(%rbp),%rdi
    1500:	48 89 bd 50 f9 ff ff 	mov    %rdi,-0x6b0(%rbp)
    1507:	e8 64 ff ff ff       	call   1470 <__gmpz_init@plt>
    150c:	48 8d bd 00 fa ff ff 	lea    -0x600(%rbp),%rdi
    1513:	48 89 bd 58 f9 ff ff 	mov    %rdi,-0x6a8(%rbp)
    151a:	e8 51 ff ff ff       	call   1470 <__gmpz_init@plt>
    151f:	ba 80 03 00 00       	mov    $0x380,%edx
    1524:	31 f6                	xor    %esi,%esi
    1526:	4c 89 ef             	mov    %r13,%rdi
    1529:	e8 22 fe ff ff       	call   1350 <memset@plt>
    152e:	48 c7 85 c8 fc ff ff 	movq   $0x1,-0x338(%rbp)
    1535:	01 00 00 00 
    1539:	c6 85 e8 fc ff ff 20 	movb   $0x20,-0x318(%rbp)
    1540:	48 c7 85 48 fd ff ff 	movq   $0x1,-0x2b8(%rbp)
    1547:	01 00 00 00 
    154b:	c6 85 68 fd ff ff 10 	movb   $0x10,-0x298(%rbp)
    1552:	c7 85 c0 fd ff ff 01 	movl   $0x1,-0x240(%rbp)
    1559:	00 00 00 
    155c:	48 c7 85 c8 fd ff ff 	movq   $0x2,-0x238(%rbp)
    1563:	02 00 00 00 
    1567:	c7 85 40 fe ff ff 03 	movl   $0x3,-0x1c0(%rbp)
    156e:	00 00 00 
    1571:	48 c7 85 48 fe ff ff 	movq   $0x10003,-0x1b8(%rbp)
    1578:	03 00 01 00 
    157c:	c7 85 c0 fe ff ff 03 	movl   $0x3,-0x140(%rbp)
    1583:	00 00 00 
    1586:	48 c7 85 c8 fe ff ff 	movq   $0x10000,-0x138(%rbp)
    158d:	00 00 01 00 
    1591:	c7 85 40 ff ff ff 03 	movl   $0x3,-0xc0(%rbp)
    1598:	00 00 00 
    159b:	48 c7 85 48 ff ff ff 	movq   $0x10002,-0xb8(%rbp)
    15a2:	02 00 01 00 
    15a6:	4c 89 b5 a0 f9 ff ff 	mov    %r14,-0x660(%rbp)
    15ad:	0f 1f 00             	nopl   (%rax)
    15b0:	45 31 c9             	xor    %r9d,%r9d
    15b3:	41 b8 ff ff ff ff    	mov    $0xffffffff,%r8d
    15b9:	b9 ff ff ff ff       	mov    $0xffffffff,%ecx
    15be:	31 d2                	xor    %edx,%edx
    15c0:	4c 89 ee             	mov    %r13,%rsi
    15c3:	bf 2a 01 00 00       	mov    $0x12a,%edi
    15c8:	31 c0                	xor    %eax,%eax
    15ca:	e8 01 fe ff ff       	call   13d0 <syscall@plt>
    15cf:	41 89 04 9e          	mov    %eax,(%r14,%rbx,4)
    15d3:	83 f8 ff             	cmp    $0xffffffff,%eax
    15d6:	0f 84 74 38 00 00    	je     4e50 <urdhva_indices_test.c.4609593c+0x24df>
    15dc:	48 ff c3             	inc    %rbx
    15df:	49 83 ed 80          	sub    $0xffffffffffffff80,%r13
    15e3:	48 83 fb 07          	cmp    $0x7,%rbx
    15e7:	75 c7                	jne    15b0 <main+0x110>
    15e9:	48 83 ec 08          	sub    $0x8,%rsp
    15ed:	68 00 20 00 00       	push   $0x2000
    15f2:	4c 8d 0d 0b 4a 00 00 	lea    0x4a0b(%rip),%r9        # 6004 <_IO_stdin_used+0x4>
    15f9:	c4 c1 f9 6e c1       	vmovq  %r9,%xmm0
    15fe:	c5 f9 6f 15 ca 4d 00 	vmovdqa 0x4dca(%rip),%xmm2        # 63d0 <_IO_stdin_used+0x3d0>
    1605:	00 
    1606:	48 8d 05 4a 4a 00 00 	lea    0x4a4a(%rip),%rax        # 6057 <_IO_stdin_used+0x57>
    160d:	48 8d 15 5c 4b 00 00 	lea    0x4b5c(%rip),%rdx        # 6170 <_IO_stdin_used+0x170>
    1614:	48 8d 0d 75 4b 00 00 	lea    0x4b75(%rip),%rcx        # 6190 <_IO_stdin_used+0x190>
    161b:	48 8d 35 4e 4a 00 00 	lea    0x4a4e(%rip),%rsi        # 6070 <_IO_stdin_used+0x70>
    1622:	4c 8d 05 f9 49 00 00 	lea    0x49f9(%rip),%r8        # 6022 <_IO_stdin_used+0x22>
    1629:	4c 8d ad d0 fb ff ff 	lea    -0x430(%rbp),%r13
    1630:	c4 c3 f9 22 c8 01    	vpinsrq $0x1,%r8,%xmm0,%xmm1
    1636:	4c 8d 1d 4d 4a 00 00 	lea    0x4a4d(%rip),%r11        # 608a <_IO_stdin_used+0x8a>
    163d:	4c 8d 05 63 4a 00 00 	lea    0x4a63(%rip),%r8        # 60a7 <_IO_stdin_used+0xa7>
    1644:	48 89 85 70 fa ff ff 	mov    %rax,-0x590(%rbp)
    164b:	48 89 95 78 fa ff ff 	mov    %rdx,-0x588(%rbp)
    1652:	48 89 8d 80 fa ff ff 	mov    %rcx,-0x580(%rbp)
    1659:	48 89 b5 88 fa ff ff 	mov    %rsi,-0x578(%rbp)
    1660:	4c 8d 8d 30 fa ff ff 	lea    -0x5d0(%rbp),%r9
    1667:	b9 64 00 00 00       	mov    $0x64,%ecx
    166c:	ba 01 00 00 00       	mov    $0x1,%edx
    1671:	be 64 00 00 00       	mov    $0x64,%esi
    1676:	4c 89 ef             	mov    %r13,%rdi
    1679:	41 bf 6c 00 00 00    	mov    $0x6c,%r15d
    167f:	31 c0                	xor    %eax,%eax
    1681:	4c 8d 35 29 4a 00 00 	lea    0x4a29(%rip),%r14        # 60b1 <_IO_stdin_used+0xb1>
    1688:	4c 89 9d a0 fa ff ff 	mov    %r11,-0x560(%rbp)
    168f:	c5 f9 7f 8d 90 fa ff 	vmovdqa %xmm1,-0x570(%rbp)
    1696:	ff 
    1697:	c5 f9 7f 95 30 fa ff 	vmovdqa %xmm2,-0x5d0(%rbp)
    169e:	ff 
    169f:	c7 85 40 fa ff ff 63 	movl   $0x6f6f6863,-0x5c0(%rbp)
    16a6:	68 6f 6f 
    16a9:	66 44 89 bd 44 fa ff 	mov    %r15w,-0x5bc(%rbp)
    16b0:	ff 
    16b1:	e8 ca fb ff ff       	call   1280 <__snprintf_chk@plt>
    16b6:	4c 89 ef             	mov    %r13,%rdi
    16b9:	4c 89 f6             	mov    %r14,%rsi
    16bc:	e8 6f fd ff ff       	call   1430 <fopen@plt>
    16c1:	5f                   	pop    %rdi
    16c2:	48 89 85 70 f9 ff ff 	mov    %rax,-0x690(%rbp)
    16c9:	41 58                	pop    %r8
    16cb:	48 85 c0             	test   %rax,%rax
    16ce:	0f 84 55 37 00 00    	je     4e29 <urdhva_indices_test.c.4609593c+0x24b8>
    16d4:	48 8d 9d 70 fa ff ff 	lea    -0x590(%rbp),%rbx
    16db:	48 89 9d d8 f9 ff ff 	mov    %rbx,-0x628(%rbp)
    16e2:	4c 8b bd 70 f9 ff ff 	mov    -0x690(%rbp),%r15
    16e9:	4c 8d a5 a8 fa ff ff 	lea    -0x558(%rbp),%r12
    16f0:	4c 8d 2d bc 49 00 00 	lea    0x49bc(%rip),%r13        # 60b3 <_IO_stdin_used+0xb3>
    16f7:	66 0f 1f 84 00 00 00 	nopw   0x0(%rax,%rax,1)
    16fe:	00 00 
    1700:	48 8b 0b             	mov    (%rbx),%rcx
    1703:	4c 89 ea             	mov    %r13,%rdx
    1706:	be 01 00 00 00       	mov    $0x1,%esi
    170b:	4c 89 ff             	mov    %r15,%rdi
    170e:	31 c0                	xor    %eax,%eax
    1710:	48 83 c3 08          	add    $0x8,%rbx
    1714:	e8 47 fd ff ff       	call   1460 <__fprintf_chk@plt>
    1719:	49 39 dc             	cmp    %rbx,%r12
    171c:	75 e2                	jne    1700 <main+0x260>
    171e:	48 8b b5 70 f9 ff ff 	mov    -0x690(%rbp),%rsi
    1725:	bf 0a 00 00 00       	mov    $0xa,%edi
    172a:	48 8b 9d d8 f9 ff ff 	mov    -0x628(%rbp),%rbx
    1731:	e8 4a fc ff ff       	call   1380 <fputc@plt>
    1736:	48 83 ec 08          	sub    $0x8,%rsp
    173a:	68 00 20 00 00       	push   $0x2000
    173f:	c5 f9 6f 1d 99 4c 00 	vmovdqa 0x4c99(%rip),%xmm3        # 63e0 <_IO_stdin_used+0x3e0>
    1746:	00 
    1747:	4c 8d bd 60 fb ff ff 	lea    -0x4a0(%rbp),%r15
    174e:	b9 64 00 00 00       	mov    $0x64,%ecx
    1753:	ba 01 00 00 00       	mov    $0x1,%edx
    1758:	4c 8d 8d f0 f9 ff ff 	lea    -0x610(%rbp),%r9
    175f:	4c 8d 05 41 49 00 00 	lea    0x4941(%rip),%r8        # 60a7 <_IO_stdin_used+0xa7>
    1766:	be 64 00 00 00       	mov    $0x64,%esi
    176b:	4c 89 ff             	mov    %r15,%rdi
    176e:	31 c0                	xor    %eax,%eax
    1770:	c5 f9 7f 9d f0 f9 ff 	vmovdqa %xmm3,-0x610(%rbp)
    1777:	ff 
    1778:	e8 03 fb ff ff       	call   1280 <__snprintf_chk@plt>
    177d:	4c 89 f6             	mov    %r14,%rsi
    1780:	4c 89 ff             	mov    %r15,%rdi
    1783:	e8 a8 fc ff ff       	call   1430 <fopen@plt>
    1788:	5a                   	pop    %rdx
    1789:	48 89 85 80 f9 ff ff 	mov    %rax,-0x680(%rbp)
    1790:	59                   	pop    %rcx
    1791:	48 85 c0             	test   %rax,%rax
    1794:	0f 84 41 36 00 00    	je     4ddb <urdhva_indices_test.c.4609593c+0x246a>
    179a:	48 89 9d d8 f9 ff ff 	mov    %rbx,-0x628(%rbp)
    17a1:	4c 8b bd 80 f9 ff ff 	mov    -0x680(%rbp),%r15
    17a8:	0f 1f 84 00 00 00 00 	nopl   0x0(%rax,%rax,1)
    17af:	00 
    17b0:	48 8b 0b             	mov    (%rbx),%rcx
    17b3:	4c 89 ea             	mov    %r13,%rdx
    17b6:	be 01 00 00 00       	mov    $0x1,%esi
    17bb:	4c 89 ff             	mov    %r15,%rdi
    17be:	31 c0                	xor    %eax,%eax
    17c0:	48 83 c3 08          	add    $0x8,%rbx
    17c4:	e8 97 fc ff ff       	call   1460 <__fprintf_chk@plt>
    17c9:	49 39 dc             	cmp    %rbx,%r12
    17cc:	75 e2                	jne    17b0 <main+0x310>
    17ce:	48 8b b5 80 f9 ff ff 	mov    -0x680(%rbp),%rsi
    17d5:	bf 0a 00 00 00       	mov    $0xa,%edi
    17da:	48 8b 9d d8 f9 ff ff 	mov    -0x628(%rbp),%rbx
    17e1:	e8 9a fb ff ff       	call   1380 <fputc@plt>
    17e6:	48 83 ec 08          	sub    $0x8,%rsp
    17ea:	68 00 20 00 00       	push   $0x2000
    17ef:	4c 8d bd f0 fa ff ff 	lea    -0x510(%rbp),%r15
    17f6:	48 bf 70 65 72 66 5f 	movabs $0x6f65705f66726570,%rdi
    17fd:	70 65 6f 
    1800:	48 89 bd e3 f9 ff ff 	mov    %rdi,-0x61d(%rbp)
    1807:	4c 8d 8d e3 f9 ff ff 	lea    -0x61d(%rbp),%r9
    180e:	4c 89 ff             	mov    %r15,%rdi
    1811:	4c 8d 05 8f 48 00 00 	lea    0x488f(%rip),%r8        # 60a7 <_IO_stdin_used+0xa7>
    1818:	b9 64 00 00 00       	mov    $0x64,%ecx
    181d:	ba 01 00 00 00       	mov    $0x1,%edx
    1822:	be 64 00 00 00       	mov    $0x64,%esi
    1827:	31 c0                	xor    %eax,%eax
    1829:	c7 85 eb f9 ff ff 5f 	movl   $0x706d675f,-0x615(%rbp)
    1830:	67 6d 70 
    1833:	c6 85 ef f9 ff ff 00 	movb   $0x0,-0x611(%rbp)
    183a:	e8 41 fa ff ff       	call   1280 <__snprintf_chk@plt>
    183f:	4c 89 f6             	mov    %r14,%rsi
    1842:	4c 89 ff             	mov    %r15,%rdi
    1845:	e8 e6 fb ff ff       	call   1430 <fopen@plt>
    184a:	41 5e                	pop    %r14
    184c:	48 89 85 78 f9 ff ff 	mov    %rax,-0x688(%rbp)
    1853:	41 5f                	pop    %r15
    1855:	48 85 c0             	test   %rax,%rax
    1858:	0f 84 a4 35 00 00    	je     4e02 <urdhva_indices_test.c.4609593c+0x2491>
    185e:	49 89 c6             	mov    %rax,%r14
    1861:	0f 1f 80 00 00 00 00 	nopl   0x0(%rax)
    1868:	48 8b 0b             	mov    (%rbx),%rcx
    186b:	4c 89 ea             	mov    %r13,%rdx
    186e:	be 01 00 00 00       	mov    $0x1,%esi
    1873:	4c 89 f7             	mov    %r14,%rdi
    1876:	31 c0                	xor    %eax,%eax
    1878:	48 83 c3 08          	add    $0x8,%rbx
    187c:	e8 df fb ff ff       	call   1460 <__fprintf_chk@plt>
    1881:	49 39 dc             	cmp    %rbx,%r12
    1884:	75 e2                	jne    1868 <main+0x3c8>
    1886:	48 8b b5 78 f9 ff ff 	mov    -0x688(%rbp),%rsi
    188d:	bf 0a 00 00 00       	mov    $0xa,%edi
    1892:	e8 e9 fa ff ff       	call   1380 <fputc@plt>
    1897:	c7 85 2c f9 ff ff 00 	movl   $0x0,-0x6d4(%rbp)
    189e:	00 00 00 
    18a1:	31 c0                	xor    %eax,%eax
    18a3:	e8 88 37 00 00       	call   5030 <generate_seed>
    18a8:	e8 e3 fb ff ff       	call   1490 <rand@plt>
    18ad:	48 63 d0             	movslq %eax,%rdx
    18b0:	48 69 f2 1f 85 eb 51 	imul   $0x51eb851f,%rdx,%rsi
    18b7:	89 c1                	mov    %eax,%ecx
    18b9:	c1 f9 1f             	sar    $0x1f,%ecx
    18bc:	48 c1 fe 25          	sar    $0x25,%rsi
    18c0:	29 ce                	sub    %ecx,%esi
    18c2:	44 6b c6 64          	imul   $0x64,%esi,%r8d
    18c6:	44 29 c0             	sub    %r8d,%eax
    18c9:	8d 78 01             	lea    0x1(%rax),%edi
    18cc:	e8 bf 36 00 00       	call   4f90 <generateRandomNumber>
    18d1:	49 89 c4             	mov    %rax,%r12
    18d4:	48 89 85 90 f9 ff ff 	mov    %rax,-0x670(%rbp)
    18db:	31 c0                	xor    %eax,%eax
    18dd:	e8 4e 37 00 00       	call   5030 <generate_seed>
    18e2:	e8 a9 fb ff ff       	call   1490 <rand@plt>
    18e7:	4c 63 c8             	movslq %eax,%r9
    18ea:	4d 69 d9 1f 85 eb 51 	imul   $0x51eb851f,%r9,%r11
    18f1:	41 89 c5             	mov    %eax,%r13d
    18f4:	41 c1 fd 1f          	sar    $0x1f,%r13d
    18f8:	49 c1 fb 25          	sar    $0x25,%r11
    18fc:	45 29 eb             	sub    %r13d,%r11d
    18ff:	45 6b d3 64          	imul   $0x64,%r11d,%r10d
    1903:	44 29 d0             	sub    %r10d,%eax
    1906:	8d 78 01             	lea    0x1(%rax),%edi
    1909:	e8 82 36 00 00       	call   4f90 <generateRandomNumber>
    190e:	49 89 c7             	mov    %rax,%r15
    1911:	4c 89 e7             	mov    %r12,%rdi
    1914:	48 89 85 88 f9 ff ff 	mov    %rax,-0x678(%rbp)
    191b:	e8 d0 f9 ff ff       	call   12f0 <strlen@plt>
    1920:	4c 89 ff             	mov    %r15,%rdi
    1923:	48 89 c3             	mov    %rax,%rbx
    1926:	89 85 68 f9 ff ff    	mov    %eax,-0x698(%rbp)
    192c:	e8 bf f9 ff ff       	call   12f0 <strlen@plt>
    1931:	49 89 c6             	mov    %rax,%r14
    1934:	4c 63 e3             	movslq %ebx,%r12
    1937:	be 04 00 00 00       	mov    $0x4,%esi
    193c:	4c 89 e7             	mov    %r12,%rdi
    193f:	4d 63 ee             	movslq %r14d,%r13
    1942:	89 85 6c f9 ff ff    	mov    %eax,-0x694(%rbp)
    1948:	e8 73 fa ff ff       	call   13c0 <calloc@plt>
    194d:	be 04 00 00 00       	mov    $0x4,%esi
    1952:	4c 89 ef             	mov    %r13,%rdi
    1955:	49 89 c7             	mov    %rax,%r15
    1958:	e8 63 fa ff ff       	call   13c0 <calloc@plt>
    195d:	48 89 85 b0 f9 ff ff 	mov    %rax,-0x650(%rbp)
    1964:	85 db                	test   %ebx,%ebx
    1966:	0f 8e b4 03 00 00    	jle    1d20 <main+0x880>
    196c:	8d 43 ff             	lea    -0x1(%rbx),%eax
    196f:	83 f8 1e             	cmp    $0x1e,%eax
    1972:	0f 86 09 34 00 00    	jbe    4d81 <urdhva_indices_test.c.4609593c+0x2410>
    1978:	89 de                	mov    %ebx,%esi
    197a:	48 8b bd 90 f9 ff ff 	mov    -0x670(%rbp),%rdi
    1981:	c1 ee 05             	shr    $0x5,%esi
    1984:	44 8d 46 ff          	lea    -0x1(%rsi),%r8d
    1988:	49 c1 e0 05          	shl    $0x5,%r8
    198c:	48 8d 4f 20          	lea    0x20(%rdi),%rcx
    1990:	49 01 c8             	add    %rcx,%r8
    1993:	4d 89 c1             	mov    %r8,%r9
    1996:	49 29 f9             	sub    %rdi,%r9
    1999:	41 83 e1 20          	and    $0x20,%r9d
    199d:	49 89 fa             	mov    %rdi,%r10
    19a0:	4c 89 fa             	mov    %r15,%rdx
    19a3:	74 7b                	je     1a20 <main+0x580>
    19a5:	4c 8b 9d 90 f9 ff ff 	mov    -0x670(%rbp),%r11
    19ac:	49 89 ca             	mov    %rcx,%r10
    19af:	62 d1 7f 28 6f 23    	vmovdqu8 (%r11),%ymm4
    19b5:	49 8d 97 80 00 00 00 	lea    0x80(%r15),%rdx
    19bc:	c4 e3 7d 39 e7 01    	vextracti128 $0x1,%ymm4,%xmm7
    19c2:	c4 e2 7d 20 ec       	vpmovsxbw %xmm4,%ymm5
    19c7:	c4 62 7d 20 c7       	vpmovsxbw %xmm7,%ymm8
    19cc:	c5 d5 fd 35 ac 49 00 	vpaddw 0x49ac(%rip),%ymm5,%ymm6        # 6380 <_IO_stdin_used+0x380>
    19d3:	00 
    19d4:	c5 3d fd 0d a4 49 00 	vpaddw 0x49a4(%rip),%ymm8,%ymm9        # 6380 <_IO_stdin_used+0x380>
    19db:	00 
    19dc:	c4 c3 7d 39 f3 01    	vextracti128 $0x1,%ymm6,%xmm11
    19e2:	c4 43 7d 39 ce 01    	vextracti128 $0x1,%ymm9,%xmm14
    19e8:	c4 62 7d 23 d6       	vpmovsxwd %xmm6,%ymm10
    19ed:	c4 42 7d 23 e3       	vpmovsxwd %xmm11,%ymm12
    19f2:	c4 42 7d 23 e9       	vpmovsxwd %xmm9,%ymm13
    19f7:	c4 42 7d 23 fe       	vpmovsxwd %xmm14,%ymm15
    19fc:	c4 41 7e 7f 17       	vmovdqu %ymm10,(%r15)
    1a01:	c4 41 7e 7f 67 20    	vmovdqu %ymm12,0x20(%r15)
    1a07:	c4 41 7e 7f 6f 40    	vmovdqu %ymm13,0x40(%r15)
    1a0d:	c4 41 7e 7f 7f 60    	vmovdqu %ymm15,0x60(%r15)
    1a13:	49 39 c8             	cmp    %rcx,%r8
    1a16:	0f 84 d8 00 00 00    	je     1af4 <main+0x654>
    1a1c:	0f 1f 40 00          	nopl   0x0(%rax)
    1a20:	62 d1 7f 28 6f 02    	vmovdqu8 (%r10),%ymm0
    1a26:	62 51 7f 28 6f 62 01 	vmovdqu8 0x20(%r10),%ymm12
    1a2d:	c4 e2 7d 20 c8       	vpmovsxbw %xmm0,%ymm1
    1a32:	c5 f5 fd 1d 46 49 00 	vpaddw 0x4946(%rip),%ymm1,%ymm3        # 6380 <_IO_stdin_used+0x380>
    1a39:	00 
    1a3a:	c4 e3 7d 39 c2 01    	vextracti128 $0x1,%ymm0,%xmm2
    1a40:	c4 43 7d 39 e7 01    	vextracti128 $0x1,%ymm12,%xmm15
    1a46:	c4 e2 7d 20 e2       	vpmovsxbw %xmm2,%ymm4
    1a4b:	c4 42 7d 20 ec       	vpmovsxbw %xmm12,%ymm13
    1a50:	c4 c2 7d 20 c7       	vpmovsxbw %xmm15,%ymm0
    1a55:	c5 dd fd 2d 23 49 00 	vpaddw 0x4923(%rip),%ymm4,%ymm5        # 6380 <_IO_stdin_used+0x380>
    1a5c:	00 
    1a5d:	c4 e2 7d 23 f3       	vpmovsxwd %xmm3,%ymm6
    1a62:	c4 e3 7d 39 df 01    	vextracti128 $0x1,%ymm3,%xmm7
    1a68:	c5 15 fd 35 10 49 00 	vpaddw 0x4910(%rip),%ymm13,%ymm14        # 6380 <_IO_stdin_used+0x380>
    1a6f:	00 
    1a70:	c5 fd fd 1d 08 49 00 	vpaddw 0x4908(%rip),%ymm0,%ymm3        # 6380 <_IO_stdin_used+0x380>
    1a77:	00 
    1a78:	c5 fe 7f 32          	vmovdqu %ymm6,(%rdx)
    1a7c:	c4 c3 7d 39 ea 01    	vextracti128 $0x1,%ymm5,%xmm10
    1a82:	c4 63 7d 39 f2 01    	vextracti128 $0x1,%ymm14,%xmm2
    1a88:	c4 e3 7d 39 de 01    	vextracti128 $0x1,%ymm3,%xmm6
    1a8e:	c4 62 7d 23 c7       	vpmovsxwd %xmm7,%ymm8
    1a93:	c4 62 7d 23 cd       	vpmovsxwd %xmm5,%ymm9
    1a98:	c4 42 7d 23 da       	vpmovsxwd %xmm10,%ymm11
    1a9d:	c4 c2 7d 23 ce       	vpmovsxwd %xmm14,%ymm1
    1aa2:	c4 e2 7d 23 e2       	vpmovsxwd %xmm2,%ymm4
    1aa7:	c4 e2 7d 23 eb       	vpmovsxwd %xmm3,%ymm5
    1aac:	c4 e2 7d 23 fe       	vpmovsxwd %xmm6,%ymm7
    1ab1:	49 83 c2 40          	add    $0x40,%r10
    1ab5:	c5 7e 7f 42 20       	vmovdqu %ymm8,0x20(%rdx)
    1aba:	c5 7e 7f 4a 40       	vmovdqu %ymm9,0x40(%rdx)
    1abf:	c5 7e 7f 5a 60       	vmovdqu %ymm11,0x60(%rdx)
    1ac4:	c5 fe 7f 8a 80 00 00 	vmovdqu %ymm1,0x80(%rdx)
    1acb:	00 
    1acc:	c5 fe 7f a2 a0 00 00 	vmovdqu %ymm4,0xa0(%rdx)
    1ad3:	00 
    1ad4:	c5 fe 7f aa c0 00 00 	vmovdqu %ymm5,0xc0(%rdx)
    1adb:	00 
    1adc:	c5 fe 7f ba e0 00 00 	vmovdqu %ymm7,0xe0(%rdx)
    1ae3:	00 
    1ae4:	48 81 c2 00 01 00 00 	add    $0x100,%rdx
    1aeb:	4d 39 d0             	cmp    %r10,%r8
    1aee:	0f 85 2c ff ff ff    	jne    1a20 <main+0x580>
    1af4:	89 da                	mov    %ebx,%edx
    1af6:	83 e2 e0             	and    $0xffffffe0,%edx
    1af9:	89 d0                	mov    %edx,%eax
    1afb:	39 d3                	cmp    %edx,%ebx
    1afd:	0f 84 1d 02 00 00    	je     1d20 <main+0x880>
    1b03:	89 de                	mov    %ebx,%esi
    1b05:	29 d6                	sub    %edx,%esi
    1b07:	8d 7e ff             	lea    -0x1(%rsi),%edi
    1b0a:	83 ff 0e             	cmp    $0xe,%edi
    1b0d:	76 7c                	jbe    1b8b <main+0x6eb>
    1b0f:	48 8b 8d 90 f9 ff ff 	mov    -0x670(%rbp),%rcx
    1b16:	41 89 f1             	mov    %esi,%r9d
    1b19:	62 71 7f 08 6f 04 11 	vmovdqu8 (%rcx,%rdx,1),%xmm8
    1b20:	4d 8d 04 97          	lea    (%r15,%rdx,4),%r8
    1b24:	c4 c1 21 73 d8 08    	vpsrldq $0x8,%xmm8,%xmm11
    1b2a:	c4 42 79 20 c8       	vpmovsxbw %xmm8,%xmm9
    1b2f:	c4 42 79 20 e3       	vpmovsxbw %xmm11,%xmm12
    1b34:	c5 31 fd 15 44 48 00 	vpaddw 0x4844(%rip),%xmm9,%xmm10        # 6380 <_IO_stdin_used+0x380>
    1b3b:	00 
    1b3c:	c5 19 fd 2d 3c 48 00 	vpaddw 0x483c(%rip),%xmm12,%xmm13        # 6380 <_IO_stdin_used+0x380>
    1b43:	00 
    1b44:	c4 c1 01 73 da 08    	vpsrldq $0x8,%xmm10,%xmm15
    1b4a:	c4 c1 71 73 dd 08    	vpsrldq $0x8,%xmm13,%xmm1
    1b50:	c4 42 79 23 f2       	vpmovsxwd %xmm10,%xmm14
    1b55:	c4 c2 79 23 c7       	vpmovsxwd %xmm15,%xmm0
    1b5a:	c4 c2 79 23 dd       	vpmovsxwd %xmm13,%xmm3
    1b5f:	c4 e2 79 23 d1       	vpmovsxwd %xmm1,%xmm2
    1b64:	41 83 e1 f0          	and    $0xfffffff0,%r9d
    1b68:	c4 41 7a 7f 30       	vmovdqu %xmm14,(%r8)
    1b6d:	c4 c1 7a 7f 40 10    	vmovdqu %xmm0,0x10(%r8)
    1b73:	c4 c1 7a 7f 58 20    	vmovdqu %xmm3,0x20(%r8)
    1b79:	c4 c1 7a 7f 50 30    	vmovdqu %xmm2,0x30(%r8)
    1b7f:	44 01 c8             	add    %r9d,%eax
    1b82:	44 39 ce             	cmp    %r9d,%esi
    1b85:	0f 84 95 01 00 00    	je     1d20 <main+0x880>
    1b8b:	48 8b 95 90 f9 ff ff 	mov    -0x670(%rbp),%rdx
    1b92:	4c 63 d8             	movslq %eax,%r11
    1b95:	42 0f be 34 1a       	movsbl (%rdx,%r11,1),%esi
    1b9a:	8d 78 01             	lea    0x1(%rax),%edi
    1b9d:	83 ee 30             	sub    $0x30,%esi
    1ba0:	43 89 34 9f          	mov    %esi,(%r15,%r11,4)
    1ba4:	4e 8d 14 9d 00 00 00 	lea    0x0(,%r11,4),%r10
    1bab:	00 
    1bac:	39 fb                	cmp    %edi,%ebx
    1bae:	0f 8e 6c 01 00 00    	jle    1d20 <main+0x880>
    1bb4:	4c 63 c7             	movslq %edi,%r8
    1bb7:	42 0f be 0c 02       	movsbl (%rdx,%r8,1),%ecx
    1bbc:	44 8d 48 02          	lea    0x2(%rax),%r9d
    1bc0:	83 e9 30             	sub    $0x30,%ecx
    1bc3:	43 89 4c 17 04       	mov    %ecx,0x4(%r15,%r10,1)
    1bc8:	44 39 cb             	cmp    %r9d,%ebx
    1bcb:	0f 8e 4f 01 00 00    	jle    1d20 <main+0x880>
    1bd1:	4d 63 d9             	movslq %r9d,%r11
    1bd4:	42 0f be 34 1a       	movsbl (%rdx,%r11,1),%esi
    1bd9:	8d 78 03             	lea    0x3(%rax),%edi
    1bdc:	83 ee 30             	sub    $0x30,%esi
    1bdf:	43 89 74 17 08       	mov    %esi,0x8(%r15,%r10,1)
    1be4:	39 fb                	cmp    %edi,%ebx
    1be6:	0f 8e 34 01 00 00    	jle    1d20 <main+0x880>
    1bec:	4c 63 c7             	movslq %edi,%r8
    1bef:	42 0f be 0c 02       	movsbl (%rdx,%r8,1),%ecx
    1bf4:	44 8d 48 04          	lea    0x4(%rax),%r9d
    1bf8:	83 e9 30             	sub    $0x30,%ecx
    1bfb:	43 89 4c 17 0c       	mov    %ecx,0xc(%r15,%r10,1)
    1c00:	44 39 cb             	cmp    %r9d,%ebx
    1c03:	0f 8e 17 01 00 00    	jle    1d20 <main+0x880>
    1c09:	4d 63 d9             	movslq %r9d,%r11
    1c0c:	42 0f be 34 1a       	movsbl (%rdx,%r11,1),%esi
    1c11:	8d 78 05             	lea    0x5(%rax),%edi
    1c14:	83 ee 30             	sub    $0x30,%esi
    1c17:	43 89 74 17 10       	mov    %esi,0x10(%r15,%r10,1)
    1c1c:	39 fb                	cmp    %edi,%ebx
    1c1e:	0f 8e fc 00 00 00    	jle    1d20 <main+0x880>
    1c24:	4c 63 c7             	movslq %edi,%r8
    1c27:	42 0f be 0c 02       	movsbl (%rdx,%r8,1),%ecx
    1c2c:	44 8d 48 06          	lea    0x6(%rax),%r9d
    1c30:	83 e9 30             	sub    $0x30,%ecx
    1c33:	43 89 4c 17 14       	mov    %ecx,0x14(%r15,%r10,1)
    1c38:	44 39 cb             	cmp    %r9d,%ebx
    1c3b:	0f 8e df 00 00 00    	jle    1d20 <main+0x880>
    1c41:	4d 63 d9             	movslq %r9d,%r11
    1c44:	42 0f be 34 1a       	movsbl (%rdx,%r11,1),%esi
    1c49:	8d 78 07             	lea    0x7(%rax),%edi
    1c4c:	83 ee 30             	sub    $0x30,%esi
    1c4f:	43 89 74 17 18       	mov    %esi,0x18(%r15,%r10,1)
    1c54:	39 fb                	cmp    %edi,%ebx
    1c56:	0f 8e c4 00 00 00    	jle    1d20 <main+0x880>
    1c5c:	4c 63 c7             	movslq %edi,%r8
    1c5f:	42 0f be 0c 02       	movsbl (%rdx,%r8,1),%ecx
    1c64:	44 8d 48 08          	lea    0x8(%rax),%r9d
    1c68:	83 e9 30             	sub    $0x30,%ecx
    1c6b:	43 89 4c 17 1c       	mov    %ecx,0x1c(%r15,%r10,1)
    1c70:	44 39 cb             	cmp    %r9d,%ebx
    1c73:	0f 8e a7 00 00 00    	jle    1d20 <main+0x880>
    1c79:	4d 63 d9             	movslq %r9d,%r11
    1c7c:	42 0f be 34 1a       	movsbl (%rdx,%r11,1),%esi
    1c81:	8d 78 09             	lea    0x9(%rax),%edi
    1c84:	83 ee 30             	sub    $0x30,%esi
    1c87:	43 89 74 17 20       	mov    %esi,0x20(%r15,%r10,1)
    1c8c:	39 fb                	cmp    %edi,%ebx
    1c8e:	0f 8e 8c 00 00 00    	jle    1d20 <main+0x880>
    1c94:	4c 63 c7             	movslq %edi,%r8
    1c97:	42 0f be 0c 02       	movsbl (%rdx,%r8,1),%ecx
    1c9c:	44 8d 48 0a          	lea    0xa(%rax),%r9d
    1ca0:	83 e9 30             	sub    $0x30,%ecx
    1ca3:	43 89 4c 17 24       	mov    %ecx,0x24(%r15,%r10,1)
    1ca8:	44 39 cb             	cmp    %r9d,%ebx
    1cab:	7e 73                	jle    1d20 <main+0x880>
    1cad:	4d 63 d9             	movslq %r9d,%r11
    1cb0:	42 0f be 34 1a       	movsbl (%rdx,%r11,1),%esi
    1cb5:	8d 78 0b             	lea    0xb(%rax),%edi
    1cb8:	83 ee 30             	sub    $0x30,%esi
    1cbb:	43 89 74 17 28       	mov    %esi,0x28(%r15,%r10,1)
    1cc0:	39 fb                	cmp    %edi,%ebx
    1cc2:	7e 5c                	jle    1d20 <main+0x880>
    1cc4:	4c 63 c7             	movslq %edi,%r8
    1cc7:	42 0f be 0c 02       	movsbl (%rdx,%r8,1),%ecx
    1ccc:	44 8d 48 0c          	lea    0xc(%rax),%r9d
    1cd0:	83 e9 30             	sub    $0x30,%ecx
    1cd3:	43 89 4c 17 2c       	mov    %ecx,0x2c(%r15,%r10,1)
    1cd8:	44 39 cb             	cmp    %r9d,%ebx
    1cdb:	7e 43                	jle    1d20 <main+0x880>
    1cdd:	4d 63 d9             	movslq %r9d,%r11
    1ce0:	42 0f be 34 1a       	movsbl (%rdx,%r11,1),%esi
    1ce5:	8d 78 0d             	lea    0xd(%rax),%edi
    1ce8:	83 ee 30             	sub    $0x30,%esi
    1ceb:	43 89 74 17 30       	mov    %esi,0x30(%r15,%r10,1)
    1cf0:	39 fb                	cmp    %edi,%ebx
    1cf2:	7e 2c                	jle    1d20 <main+0x880>
    1cf4:	4c 63 c7             	movslq %edi,%r8
    1cf7:	42 0f be 0c 02       	movsbl (%rdx,%r8,1),%ecx
    1cfc:	83 c0 0e             	add    $0xe,%eax
    1cff:	83 e9 30             	sub    $0x30,%ecx
    1d02:	43 89 4c 17 34       	mov    %ecx,0x34(%r15,%r10,1)
    1d07:	39 c3                	cmp    %eax,%ebx
    1d09:	7e 15                	jle    1d20 <main+0x880>
    1d0b:	48 98                	cltq   
    1d0d:	0f be 04 02          	movsbl (%rdx,%rax,1),%eax
    1d11:	83 e8 30             	sub    $0x30,%eax
    1d14:	43 89 44 17 38       	mov    %eax,0x38(%r15,%r10,1)
    1d19:	0f 1f 80 00 00 00 00 	nopl   0x0(%rax)
    1d20:	45 85 f6             	test   %r14d,%r14d
    1d23:	0f 8e c1 2f 00 00    	jle    4cea <urdhva_indices_test.c.4609593c+0x2379>
    1d29:	45 8d 56 ff          	lea    -0x1(%r14),%r10d
    1d2d:	41 83 fa 1e          	cmp    $0x1e,%r10d
    1d31:	0f 86 53 30 00 00    	jbe    4d8a <urdhva_indices_test.c.4609593c+0x2419>
    1d37:	45 89 f3             	mov    %r14d,%r11d
    1d3a:	4c 8b 8d 88 f9 ff ff 	mov    -0x678(%rbp),%r9
    1d41:	41 c1 eb 05          	shr    $0x5,%r11d
    1d45:	41 8d 73 ff          	lea    -0x1(%r11),%esi
    1d49:	48 c1 e6 05          	shl    $0x5,%rsi
    1d4d:	4d 8d 41 20          	lea    0x20(%r9),%r8
    1d51:	4c 01 c6             	add    %r8,%rsi
    1d54:	48 89 f7             	mov    %rsi,%rdi
    1d57:	4c 29 cf             	sub    %r9,%rdi
    1d5a:	48 89 f9             	mov    %rdi,%rcx
    1d5d:	83 e1 20             	and    $0x20,%ecx
    1d60:	48 8b 85 b0 f9 ff ff 	mov    -0x650(%rbp),%rax
    1d67:	4c 89 ca             	mov    %r9,%rdx
    1d6a:	74 7c                	je     1de8 <main+0x948>
    1d6c:	4c 8b 95 88 f9 ff ff 	mov    -0x678(%rbp),%r10
    1d73:	48 8b 85 b0 f9 ff ff 	mov    -0x650(%rbp),%rax
    1d7a:	62 d1 7f 28 6f 22    	vmovdqu8 (%r10),%ymm4
    1d80:	4c 89 c2             	mov    %r8,%rdx
    1d83:	c4 e3 7d 39 e7 01    	vextracti128 $0x1,%ymm4,%xmm7
    1d89:	c4 e2 7d 20 ec       	vpmovsxbw %xmm4,%ymm5
    1d8e:	c4 62 7d 20 c7       	vpmovsxbw %xmm7,%ymm8
    1d93:	c5 d5 fd 35 e5 45 00 	vpaddw 0x45e5(%rip),%ymm5,%ymm6        # 6380 <_IO_stdin_used+0x380>
    1d9a:	00 
    1d9b:	c5 3d fd 0d dd 45 00 	vpaddw 0x45dd(%rip),%ymm8,%ymm9        # 6380 <_IO_stdin_used+0x380>
    1da2:	00 
    1da3:	c4 c3 7d 39 f3 01    	vextracti128 $0x1,%ymm6,%xmm11
    1da9:	c4 43 7d 39 ce 01    	vextracti128 $0x1,%ymm9,%xmm14
    1daf:	c4 62 7d 23 d6       	vpmovsxwd %xmm6,%ymm10
    1db4:	c4 42 7d 23 e3       	vpmovsxwd %xmm11,%ymm12
    1db9:	c4 42 7d 23 e9       	vpmovsxwd %xmm9,%ymm13
    1dbe:	c4 42 7d 23 fe       	vpmovsxwd %xmm14,%ymm15
    1dc3:	c5 7e 7f 10          	vmovdqu %ymm10,(%rax)
    1dc7:	c5 7e 7f 60 20       	vmovdqu %ymm12,0x20(%rax)
    1dcc:	c5 7e 7f 68 40       	vmovdqu %ymm13,0x40(%rax)
    1dd1:	c5 7e 7f 78 60       	vmovdqu %ymm15,0x60(%rax)
    1dd6:	48 83 e8 80          	sub    $0xffffffffffffff80,%rax
    1dda:	4c 39 c6             	cmp    %r8,%rsi
    1ddd:	0f 84 d8 00 00 00    	je     1ebb <main+0xa1b>
    1de3:	0f 1f 44 00 00       	nopl   0x0(%rax,%rax,1)
    1de8:	62 f1 7f 28 6f 02    	vmovdqu8 (%rdx),%ymm0
    1dee:	62 71 7f 28 6f 62 01 	vmovdqu8 0x20(%rdx),%ymm12
    1df5:	c4 e2 7d 20 d8       	vpmovsxbw %xmm0,%ymm3
    1dfa:	c4 e3 7d 39 c2 01    	vextracti128 $0x1,%ymm0,%xmm2
    1e00:	c4 43 7d 39 e7 01    	vextracti128 $0x1,%ymm12,%xmm15
    1e06:	c5 e5 fd 0d 72 45 00 	vpaddw 0x4572(%rip),%ymm3,%ymm1        # 6380 <_IO_stdin_used+0x380>
    1e0d:	00 
    1e0e:	c4 e2 7d 20 e2       	vpmovsxbw %xmm2,%ymm4
    1e13:	c4 42 7d 20 ec       	vpmovsxbw %xmm12,%ymm13
    1e18:	c4 c2 7d 20 c7       	vpmovsxbw %xmm15,%ymm0
    1e1d:	c5 dd fd 2d 5b 45 00 	vpaddw 0x455b(%rip),%ymm4,%ymm5        # 6380 <_IO_stdin_used+0x380>
    1e24:	00 
    1e25:	c5 15 fd 35 53 45 00 	vpaddw 0x4553(%rip),%ymm13,%ymm14        # 6380 <_IO_stdin_used+0x380>
    1e2c:	00 
    1e2d:	c5 fd fd 1d 4b 45 00 	vpaddw 0x454b(%rip),%ymm0,%ymm3        # 6380 <_IO_stdin_used+0x380>
    1e34:	00 
    1e35:	c4 e2 7d 23 f1       	vpmovsxwd %xmm1,%ymm6
    1e3a:	c4 e3 7d 39 cf 01    	vextracti128 $0x1,%ymm1,%xmm7
    1e40:	c5 fe 7f 30          	vmovdqu %ymm6,(%rax)
    1e44:	c4 c3 7d 39 ea 01    	vextracti128 $0x1,%ymm5,%xmm10
    1e4a:	c4 63 7d 39 f2 01    	vextracti128 $0x1,%ymm14,%xmm2
    1e50:	c4 e3 7d 39 de 01    	vextracti128 $0x1,%ymm3,%xmm6
    1e56:	c4 62 7d 23 c7       	vpmovsxwd %xmm7,%ymm8
    1e5b:	c4 62 7d 23 cd       	vpmovsxwd %xmm5,%ymm9
    1e60:	c4 42 7d 23 da       	vpmovsxwd %xmm10,%ymm11
    1e65:	c4 c2 7d 23 ce       	vpmovsxwd %xmm14,%ymm1
    1e6a:	c4 e2 7d 23 e2       	vpmovsxwd %xmm2,%ymm4
    1e6f:	c4 e2 7d 23 eb       	vpmovsxwd %xmm3,%ymm5
    1e74:	c4 e2 7d 23 fe       	vpmovsxwd %xmm6,%ymm7
    1e79:	48 83 c2 40          	add    $0x40,%rdx
    1e7d:	c5 7e 7f 40 20       	vmovdqu %ymm8,0x20(%rax)
    1e82:	c5 7e 7f 48 40       	vmovdqu %ymm9,0x40(%rax)
    1e87:	c5 7e 7f 58 60       	vmovdqu %ymm11,0x60(%rax)
    1e8c:	c5 fe 7f 88 80 00 00 	vmovdqu %ymm1,0x80(%rax)
    1e93:	00 
    1e94:	c5 fe 7f a0 a0 00 00 	vmovdqu %ymm4,0xa0(%rax)
    1e9b:	00 
    1e9c:	c5 fe 7f a8 c0 00 00 	vmovdqu %ymm5,0xc0(%rax)
    1ea3:	00 
    1ea4:	c5 fe 7f b8 e0 00 00 	vmovdqu %ymm7,0xe0(%rax)
    1eab:	00 
    1eac:	48 05 00 01 00 00    	add    $0x100,%rax
    1eb2:	48 39 d6             	cmp    %rdx,%rsi
    1eb5:	0f 85 2d ff ff ff    	jne    1de8 <main+0x948>
    1ebb:	44 89 f2             	mov    %r14d,%edx
    1ebe:	83 e2 e0             	and    $0xffffffe0,%edx
    1ec1:	89 d0                	mov    %edx,%eax
    1ec3:	41 39 d6             	cmp    %edx,%r14d
    1ec6:	0f 84 3c 02 00 00    	je     2108 <main+0xc68>
    1ecc:	45 89 f1             	mov    %r14d,%r9d
    1ecf:	41 29 d1             	sub    %edx,%r9d
    1ed2:	45 8d 59 ff          	lea    -0x1(%r9),%r11d
    1ed6:	41 83 fb 0e          	cmp    $0xe,%r11d
    1eda:	0f 86 81 00 00 00    	jbe    1f61 <main+0xac1>
    1ee0:	48 8b bd 88 f9 ff ff 	mov    -0x678(%rbp),%rdi
    1ee7:	48 8b b5 b0 f9 ff ff 	mov    -0x650(%rbp),%rsi
    1eee:	62 71 7f 08 6f 04 17 	vmovdqu8 (%rdi,%rdx,1),%xmm8
    1ef5:	44 89 c9             	mov    %r9d,%ecx
    1ef8:	c4 c1 21 73 d8 08    	vpsrldq $0x8,%xmm8,%xmm11
    1efe:	c4 42 79 20 c8       	vpmovsxbw %xmm8,%xmm9
    1f03:	c4 42 79 20 e3       	vpmovsxbw %xmm11,%xmm12
    1f08:	c5 31 fd 15 70 44 00 	vpaddw 0x4470(%rip),%xmm9,%xmm10        # 6380 <_IO_stdin_used+0x380>
    1f0f:	00 
    1f10:	c5 19 fd 2d 68 44 00 	vpaddw 0x4468(%rip),%xmm12,%xmm13        # 6380 <_IO_stdin_used+0x380>
    1f17:	00 
    1f18:	c4 c1 01 73 da 08    	vpsrldq $0x8,%xmm10,%xmm15
    1f1e:	c4 c1 71 73 dd 08    	vpsrldq $0x8,%xmm13,%xmm1
    1f24:	4c 8d 04 96          	lea    (%rsi,%rdx,4),%r8
    1f28:	c4 42 79 23 f2       	vpmovsxwd %xmm10,%xmm14
    1f2d:	c4 c2 79 23 c7       	vpmovsxwd %xmm15,%xmm0
    1f32:	c4 c2 79 23 dd       	vpmovsxwd %xmm13,%xmm3
    1f37:	c4 e2 79 23 d1       	vpmovsxwd %xmm1,%xmm2
    1f3c:	83 e1 f0             	and    $0xfffffff0,%ecx
    1f3f:	c4 41 7a 7f 30       	vmovdqu %xmm14,(%r8)
    1f44:	c4 c1 7a 7f 40 10    	vmovdqu %xmm0,0x10(%r8)
    1f4a:	c4 c1 7a 7f 58 20    	vmovdqu %xmm3,0x20(%r8)
    1f50:	c4 c1 7a 7f 50 30    	vmovdqu %xmm2,0x30(%r8)
    1f56:	01 c8                	add    %ecx,%eax
    1f58:	41 39 c9             	cmp    %ecx,%r9d
    1f5b:	0f 84 a7 01 00 00    	je     2108 <main+0xc68>
    1f61:	4c 8b 9d 88 f9 ff ff 	mov    -0x678(%rbp),%r11
    1f68:	4c 63 d0             	movslq %eax,%r10
    1f6b:	43 0f be 34 13       	movsbl (%r11,%r10,1),%esi
    1f70:	4c 8b 8d b0 f9 ff ff 	mov    -0x650(%rbp),%r9
    1f77:	83 ee 30             	sub    $0x30,%esi
    1f7a:	44 8d 40 01          	lea    0x1(%rax),%r8d
    1f7e:	43 89 34 91          	mov    %esi,(%r9,%r10,4)
    1f82:	4a 8d 14 95 00 00 00 	lea    0x0(,%r10,4),%rdx
    1f89:	00 
    1f8a:	45 39 c6             	cmp    %r8d,%r14d
    1f8d:	0f 8e 75 01 00 00    	jle    2108 <main+0xc68>
    1f93:	49 63 f8             	movslq %r8d,%rdi
    1f96:	41 0f be 0c 3b       	movsbl (%r11,%rdi,1),%ecx
    1f9b:	44 8d 50 02          	lea    0x2(%rax),%r10d
    1f9f:	83 e9 30             	sub    $0x30,%ecx
    1fa2:	41 89 4c 11 04       	mov    %ecx,0x4(%r9,%rdx,1)
    1fa7:	45 39 d6             	cmp    %r10d,%r14d
    1faa:	0f 8e 58 01 00 00    	jle    2108 <main+0xc68>
    1fb0:	49 63 f2             	movslq %r10d,%rsi
    1fb3:	45 0f be 04 33       	movsbl (%r11,%rsi,1),%r8d
    1fb8:	8d 78 03             	lea    0x3(%rax),%edi
    1fbb:	41 83 e8 30          	sub    $0x30,%r8d
    1fbf:	45 89 44 11 08       	mov    %r8d,0x8(%r9,%rdx,1)
    1fc4:	41 39 fe             	cmp    %edi,%r14d
    1fc7:	0f 8e 3b 01 00 00    	jle    2108 <main+0xc68>
    1fcd:	48 63 cf             	movslq %edi,%rcx
    1fd0:	45 0f be 14 0b       	movsbl (%r11,%rcx,1),%r10d
    1fd5:	8d 70 04             	lea    0x4(%rax),%esi
    1fd8:	41 83 ea 30          	sub    $0x30,%r10d
    1fdc:	45 89 54 11 0c       	mov    %r10d,0xc(%r9,%rdx,1)
    1fe1:	41 39 f6             	cmp    %esi,%r14d
    1fe4:	0f 8e 1e 01 00 00    	jle    2108 <main+0xc68>
    1fea:	4c 63 c6             	movslq %esi,%r8
    1fed:	43 0f be 3c 03       	movsbl (%r11,%r8,1),%edi
    1ff2:	8d 48 05             	lea    0x5(%rax),%ecx
    1ff5:	83 ef 30             	sub    $0x30,%edi
    1ff8:	41 89 7c 11 10       	mov    %edi,0x10(%r9,%rdx,1)
    1ffd:	41 39 ce             	cmp    %ecx,%r14d
    2000:	0f 8e 02 01 00 00    	jle    2108 <main+0xc68>
    2006:	4c 63 d1             	movslq %ecx,%r10
    2009:	43 0f be 34 13       	movsbl (%r11,%r10,1),%esi
    200e:	44 8d 40 06          	lea    0x6(%rax),%r8d
    2012:	83 ee 30             	sub    $0x30,%esi
    2015:	41 89 74 11 14       	mov    %esi,0x14(%r9,%rdx,1)
    201a:	45 39 c6             	cmp    %r8d,%r14d
    201d:	0f 8e e5 00 00 00    	jle    2108 <main+0xc68>
    2023:	49 63 f8             	movslq %r8d,%rdi
    2026:	41 0f be 0c 3b       	movsbl (%r11,%rdi,1),%ecx
    202b:	44 8d 50 07          	lea    0x7(%rax),%r10d
    202f:	83 e9 30             	sub    $0x30,%ecx
    2032:	41 89 4c 11 18       	mov    %ecx,0x18(%r9,%rdx,1)
    2037:	45 39 d6             	cmp    %r10d,%r14d
    203a:	0f 8e c8 00 00 00    	jle    2108 <main+0xc68>
    2040:	49 63 f2             	movslq %r10d,%rsi
    2043:	45 0f be 04 33       	movsbl (%r11,%rsi,1),%r8d
    2048:	8d 78 08             	lea    0x8(%rax),%edi
    204b:	41 83 e8 30          	sub    $0x30,%r8d
    204f:	45 89 44 11 1c       	mov    %r8d,0x1c(%r9,%rdx,1)
    2054:	41 39 fe             	cmp    %edi,%r14d
    2057:	0f 8e ab 00 00 00    	jle    2108 <main+0xc68>
    205d:	48 63 cf             	movslq %edi,%rcx
    2060:	45 0f be 14 0b       	movsbl (%r11,%rcx,1),%r10d
    2065:	8d 70 09             	lea    0x9(%rax),%esi
    2068:	41 83 ea 30          	sub    $0x30,%r10d
    206c:	45 89 54 11 20       	mov    %r10d,0x20(%r9,%rdx,1)
    2071:	41 39 f6             	cmp    %esi,%r14d
    2074:	0f 8e 8e 00 00 00    	jle    2108 <main+0xc68>
    207a:	4c 63 c6             	movslq %esi,%r8
    207d:	43 0f be 3c 03       	movsbl (%r11,%r8,1),%edi
    2082:	8d 48 0a             	lea    0xa(%rax),%ecx
    2085:	83 ef 30             	sub    $0x30,%edi
    2088:	41 89 7c 11 24       	mov    %edi,0x24(%r9,%rdx,1)
    208d:	41 39 ce             	cmp    %ecx,%r14d
    2090:	7e 76                	jle    2108 <main+0xc68>
    2092:	4c 63 d1             	movslq %ecx,%r10
    2095:	43 0f be 34 13       	movsbl (%r11,%r10,1),%esi
    209a:	44 8d 40 0b          	lea    0xb(%rax),%r8d
    209e:	83 ee 30             	sub    $0x30,%esi
    20a1:	41 89 74 11 28       	mov    %esi,0x28(%r9,%rdx,1)
    20a6:	45 39 c6             	cmp    %r8d,%r14d
    20a9:	7e 5d                	jle    2108 <main+0xc68>
    20ab:	49 63 f8             	movslq %r8d,%rdi
    20ae:	41 0f be 0c 3b       	movsbl (%r11,%rdi,1),%ecx
    20b3:	44 8d 50 0c          	lea    0xc(%rax),%r10d
    20b7:	83 e9 30             	sub    $0x30,%ecx
    20ba:	41 89 4c 11 2c       	mov    %ecx,0x2c(%r9,%rdx,1)
    20bf:	45 39 d6             	cmp    %r10d,%r14d
    20c2:	7e 44                	jle    2108 <main+0xc68>
    20c4:	49 63 f2             	movslq %r10d,%rsi
    20c7:	45 0f be 04 33       	movsbl (%r11,%rsi,1),%r8d
    20cc:	8d 78 0d             	lea    0xd(%rax),%edi
    20cf:	41 83 e8 30          	sub    $0x30,%r8d
    20d3:	45 89 44 11 30       	mov    %r8d,0x30(%r9,%rdx,1)
    20d8:	41 39 fe             	cmp    %edi,%r14d
    20db:	7e 2b                	jle    2108 <main+0xc68>
    20dd:	48 63 cf             	movslq %edi,%rcx
    20e0:	45 0f be 14 0b       	movsbl (%r11,%rcx,1),%r10d
    20e5:	83 c0 0e             	add    $0xe,%eax
    20e8:	41 83 ea 30          	sub    $0x30,%r10d
    20ec:	45 89 54 11 34       	mov    %r10d,0x34(%r9,%rdx,1)
    20f1:	41 39 c6             	cmp    %eax,%r14d
    20f4:	7e 12                	jle    2108 <main+0xc68>
    20f6:	48 98                	cltq   
    20f8:	41 0f be 04 03       	movsbl (%r11,%rax,1),%eax
    20fd:	83 e8 30             	sub    $0x30,%eax
    2100:	41 89 44 11 38       	mov    %eax,0x38(%r9,%rdx,1)
    2105:	0f 1f 00             	nopl   (%rax)
    2108:	44 39 f3             	cmp    %r14d,%ebx
    210b:	0f 84 00 2a 00 00    	je     4b11 <urdhva_indices_test.c.4609593c+0x21a0>
    2111:	44 39 f3             	cmp    %r14d,%ebx
    2114:	0f 8f 2f 29 00 00    	jg     4a49 <urdhva_indices_test.c.4609593c+0x20d8>
    211a:	0f 8c 5c 2a 00 00    	jl     4b7c <urdhva_indices_test.c.4609593c+0x220b>
    2120:	c5 f8 77             	vzeroupper 
    2123:	8b 8d 6c f9 ff ff    	mov    -0x694(%rbp),%ecx
    2129:	8b 9d 68 f9 ff ff    	mov    -0x698(%rbp),%ebx
    212f:	be 02 00 00 00       	mov    $0x2,%esi
    2134:	39 d9                	cmp    %ebx,%ecx
    2136:	0f 4d d9             	cmovge %ecx,%ebx
    2139:	44 8d 54 1b ff       	lea    -0x1(%rbx,%rbx,1),%r10d
    213e:	4d 63 f2             	movslq %r10d,%r14
    2141:	4c 89 f7             	mov    %r14,%rdi
    2144:	e8 77 f2 ff ff       	call   13c0 <calloc@plt>
    2149:	4c 63 e3             	movslq %ebx,%r12
    214c:	be 02 00 00 00       	mov    $0x2,%esi
    2151:	4c 89 f7             	mov    %r14,%rdi
    2154:	48 89 85 d0 f9 ff ff 	mov    %rax,-0x630(%rbp)
    215b:	e8 60 f2 ff ff       	call   13c0 <calloc@plt>
    2160:	be 02 00 00 00       	mov    $0x2,%esi
    2165:	4c 89 e7             	mov    %r12,%rdi
    2168:	48 89 85 c8 f9 ff ff 	mov    %rax,-0x638(%rbp)
    216f:	e8 4c f2 ff ff       	call   13c0 <calloc@plt>
    2174:	be 02 00 00 00       	mov    $0x2,%esi
    2179:	4c 89 e7             	mov    %r12,%rdi
    217c:	48 89 85 d8 f9 ff ff 	mov    %rax,-0x628(%rbp)
    2183:	e8 38 f2 ff ff       	call   13c0 <calloc@plt>
    2188:	89 da                	mov    %ebx,%edx
    218a:	ff ca                	dec    %edx
    218c:	48 89 85 c0 f9 ff ff 	mov    %rax,-0x640(%rbp)
    2193:	89 95 60 f9 ff ff    	mov    %edx,-0x6a0(%rbp)
    2199:	0f 88 4b 02 00 00    	js     23ea <main+0xf4a>
    219f:	4c 63 ad 60 f9 ff ff 	movslq -0x6a0(%rbp),%r13
    21a6:	48 8b bd b0 f9 ff ff 	mov    -0x650(%rbp),%rdi
    21ad:	43 8b 04 af          	mov    (%r15,%r13,4),%eax
    21b1:	4c 8b 85 d8 f9 ff ff 	mov    -0x628(%rbp),%r8
    21b8:	46 8b 14 af          	mov    (%rdi,%r13,4),%r10d
    21bc:	4c 8b a5 c0 f9 ff ff 	mov    -0x640(%rbp),%r12
    21c3:	4c 89 e9             	mov    %r13,%rcx
    21c6:	44 89 ea             	mov    %r13d,%edx
    21c9:	83 e1 07             	and    $0x7,%ecx
    21cc:	ff ca                	dec    %edx
    21ce:	66 43 89 04 68       	mov    %ax,(%r8,%r13,2)
    21d3:	66 47 89 14 6c       	mov    %r10w,(%r12,%r13,2)
    21d8:	49 8d 45 ff          	lea    -0x1(%r13),%rax
    21dc:	0f 88 08 02 00 00    	js     23ea <main+0xf4a>
    21e2:	85 c9                	test   %ecx,%ecx
    21e4:	0f 84 74 2b 00 00    	je     4d5e <urdhva_indices_test.c.4609593c+0x23ed>
    21ea:	83 f9 01             	cmp    $0x1,%ecx
    21ed:	0f 84 f5 00 00 00    	je     22e8 <main+0xe48>
    21f3:	83 f9 02             	cmp    $0x2,%ecx
    21f6:	0f 84 c2 00 00 00    	je     22be <main+0xe1e>
    21fc:	83 f9 03             	cmp    $0x3,%ecx
    21ff:	0f 84 90 00 00 00    	je     2295 <main+0xdf5>
    2205:	83 f9 04             	cmp    $0x4,%ecx
    2208:	74 61                	je     226b <main+0xdcb>
    220a:	83 f9 05             	cmp    $0x5,%ecx
    220d:	74 33                	je     2242 <main+0xda2>
    220f:	83 f9 06             	cmp    $0x6,%ecx
    2212:	0f 85 2e 2a 00 00    	jne    4c46 <urdhva_indices_test.c.4609593c+0x22d5>
    2218:	4c 8b 95 b0 f9 ff ff 	mov    -0x650(%rbp),%r10
    221f:	45 8b 2c 87          	mov    (%r15,%rax,4),%r13d
    2223:	45 8b 24 82          	mov    (%r10,%rax,4),%r12d
    2227:	48 8b bd d8 f9 ff ff 	mov    -0x628(%rbp),%rdi
    222e:	48 8b 95 c0 f9 ff ff 	mov    -0x640(%rbp),%rdx
    2235:	66 44 89 2c 47       	mov    %r13w,(%rdi,%rax,2)
    223a:	66 44 89 24 42       	mov    %r12w,(%rdx,%rax,2)
    223f:	48 ff c8             	dec    %rax
    2242:	48 8b 8d b0 f9 ff ff 	mov    -0x650(%rbp),%rcx
    2249:	45 8b 1c 87          	mov    (%r15,%rax,4),%r11d
    224d:	8b 34 81             	mov    (%rcx,%rax,4),%esi
    2250:	4c 8b 8d d8 f9 ff ff 	mov    -0x628(%rbp),%r9
    2257:	4c 8b 85 c0 f9 ff ff 	mov    -0x640(%rbp),%r8
    225e:	66 45 89 1c 41       	mov    %r11w,(%r9,%rax,2)
    2263:	66 41 89 34 40       	mov    %si,(%r8,%rax,2)
    2268:	48 ff c8             	dec    %rax
    226b:	4c 8b 95 b0 f9 ff ff 	mov    -0x650(%rbp),%r10
    2272:	45 8b 2c 87          	mov    (%r15,%rax,4),%r13d
    2276:	45 8b 24 82          	mov    (%r10,%rax,4),%r12d
    227a:	48 8b bd d8 f9 ff ff 	mov    -0x628(%rbp),%rdi
    2281:	48 8b 95 c0 f9 ff ff 	mov    -0x640(%rbp),%rdx
    2288:	66 44 89 2c 47       	mov    %r13w,(%rdi,%rax,2)
    228d:	66 44 89 24 42       	mov    %r12w,(%rdx,%rax,2)
    2292:	48 ff c8             	dec    %rax
    2295:	48 8b 8d b0 f9 ff ff 	mov    -0x650(%rbp),%rcx
    229c:	45 8b 1c 87          	mov    (%r15,%rax,4),%r11d
    22a0:	8b 34 81             	mov    (%rcx,%rax,4),%esi
    22a3:	4c 8b 8d d8 f9 ff ff 	mov    -0x628(%rbp),%r9
    22aa:	4c 8b 85 c0 f9 ff ff 	mov    -0x640(%rbp),%r8
    22b1:	66 45 89 1c 41       	mov    %r11w,(%r9,%rax,2)
    22b6:	66 41 89 34 40       	mov    %si,(%r8,%rax,2)
    22bb:	48 ff c8             	dec    %rax
    22be:	4c 8b 95 b0 f9 ff ff 	mov    -0x650(%rbp),%r10
    22c5:	45 8b 2c 87          	mov    (%r15,%rax,4),%r13d
    22c9:	45 8b 24 82          	mov    (%r10,%rax,4),%r12d
    22cd:	48 8b bd d8 f9 ff ff 	mov    -0x628(%rbp),%rdi
    22d4:	48 8b 95 c0 f9 ff ff 	mov    -0x640(%rbp),%rdx
    22db:	66 44 89 2c 47       	mov    %r13w,(%rdi,%rax,2)
    22e0:	66 44 89 24 42       	mov    %r12w,(%rdx,%rax,2)
    22e5:	48 ff c8             	dec    %rax
    22e8:	48 8b 8d b0 f9 ff ff 	mov    -0x650(%rbp),%rcx
    22ef:	45 8b 1c 87          	mov    (%r15,%rax,4),%r11d
    22f3:	8b 34 81             	mov    (%rcx,%rax,4),%esi
    22f6:	4c 8b 8d d8 f9 ff ff 	mov    -0x628(%rbp),%r9
    22fd:	4c 8b 85 c0 f9 ff ff 	mov    -0x640(%rbp),%r8
    2304:	66 45 89 1c 41       	mov    %r11w,(%r9,%rax,2)
    2309:	66 41 89 34 40       	mov    %si,(%r8,%rax,2)
    230e:	48 ff c8             	dec    %rax
    2311:	85 c0                	test   %eax,%eax
    2313:	0f 88 d1 00 00 00    	js     23ea <main+0xf4a>
    2319:	4c 8b 95 d8 f9 ff ff 	mov    -0x628(%rbp),%r10
    2320:	4c 8b a5 b0 f9 ff ff 	mov    -0x650(%rbp),%r12
    2327:	4d 89 c5             	mov    %r8,%r13
    232a:	4c 8d 58 ff          	lea    -0x1(%rax),%r11
    232e:	41 8b 3c 87          	mov    (%r15,%rax,4),%edi
    2332:	41 8b 14 84          	mov    (%r12,%rax,4),%edx
    2336:	48 8d 70 fe          	lea    -0x2(%rax),%rsi
    233a:	47 8b 0c 9f          	mov    (%r15,%r11,4),%r9d
    233e:	43 8b 0c 9c          	mov    (%r12,%r11,4),%ecx
    2342:	66 41 89 3c 42       	mov    %di,(%r10,%rax,2)
    2347:	66 41 89 54 45 00    	mov    %dx,0x0(%r13,%rax,2)
    234d:	41 8b 3c b4          	mov    (%r12,%rsi,4),%edi
    2351:	48 8d 50 fd          	lea    -0x3(%rax),%rdx
    2355:	66 47 89 0c 5a       	mov    %r9w,(%r10,%r11,2)
    235a:	66 43 89 4c 5d 00    	mov    %cx,0x0(%r13,%r11,2)
    2360:	45 8b 04 b7          	mov    (%r15,%rsi,4),%r8d
    2364:	45 8b 1c 97          	mov    (%r15,%rdx,4),%r11d
    2368:	45 8b 0c 94          	mov    (%r12,%rdx,4),%r9d
    236c:	66 41 89 7c 75 00    	mov    %di,0x0(%r13,%rsi,2)
    2372:	48 8d 48 fc          	lea    -0x4(%rax),%rcx
    2376:	48 8d 78 fb          	lea    -0x5(%rax),%rdi
    237a:	66 45 89 04 72       	mov    %r8w,(%r10,%rsi,2)
    237f:	66 45 89 4c 55 00    	mov    %r9w,0x0(%r13,%rdx,2)
    2385:	66 45 89 1c 52       	mov    %r11w,(%r10,%rdx,2)
    238a:	41 8b 34 8f          	mov    (%r15,%rcx,4),%esi
    238e:	45 8b 04 8c          	mov    (%r12,%rcx,4),%r8d
    2392:	41 8b 14 bf          	mov    (%r15,%rdi,4),%edx
    2396:	45 8b 1c bc          	mov    (%r12,%rdi,4),%r11d
    239a:	66 41 89 34 4a       	mov    %si,(%r10,%rcx,2)
    239f:	66 45 89 44 4d 00    	mov    %r8w,0x0(%r13,%rcx,2)
    23a5:	4c 8d 48 fa          	lea    -0x6(%rax),%r9
    23a9:	66 41 89 14 7a       	mov    %dx,(%r10,%rdi,2)
    23ae:	66 45 89 5c 7d 00    	mov    %r11w,0x0(%r13,%rdi,2)
    23b4:	48 8d 78 f9          	lea    -0x7(%rax),%rdi
    23b8:	43 8b 0c 8f          	mov    (%r15,%r9,4),%ecx
    23bc:	43 8b 34 8c          	mov    (%r12,%r9,4),%esi
    23c0:	45 8b 04 bf          	mov    (%r15,%rdi,4),%r8d
    23c4:	41 8b 14 bc          	mov    (%r12,%rdi,4),%edx
    23c8:	48 83 e8 08          	sub    $0x8,%rax
    23cc:	66 43 89 0c 4a       	mov    %cx,(%r10,%r9,2)
    23d1:	66 43 89 74 4d 00    	mov    %si,0x0(%r13,%r9,2)
    23d7:	66 45 89 04 7a       	mov    %r8w,(%r10,%rdi,2)
    23dc:	66 41 89 54 7d 00    	mov    %dx,0x0(%r13,%rdi,2)
    23e2:	85 c0                	test   %eax,%eax
    23e4:	0f 89 40 ff ff ff    	jns    232a <main+0xe8a>
    23ea:	4c 89 f7             	mov    %r14,%rdi
    23ed:	be 02 00 00 00       	mov    $0x2,%esi
    23f2:	e8 c9 ef ff ff       	call   13c0 <calloc@plt>
    23f7:	4c 8b a5 a0 f9 ff ff 	mov    -0x660(%rbp),%r12
    23fe:	4c 8d b5 6c fa ff ff 	lea    -0x594(%rbp),%r14
    2405:	48 89 85 30 f9 ff ff 	mov    %rax,-0x6d0(%rbp)
    240c:	48 89 05 15 5c 00 00 	mov    %rax,0x5c15(%rip)        # 8028 <msb_result>
    2413:	4c 89 a5 40 f9 ff ff 	mov    %r12,-0x6c0(%rbp)
    241a:	4c 89 b5 98 f9 ff ff 	mov    %r14,-0x668(%rbp)
    2421:	0f 1f 80 00 00 00 00 	nopl   0x0(%rax)
    2428:	45 8b 2c 24          	mov    (%r12),%r13d
    242c:	31 d2                	xor    %edx,%edx
    242e:	be 03 24 00 00       	mov    $0x2403,%esi
    2433:	44 89 ef             	mov    %r13d,%edi
    2436:	31 c0                	xor    %eax,%eax
    2438:	e8 23 ef ff ff       	call   1360 <ioctl@plt>
    243d:	49 83 c4 04          	add    $0x4,%r12
    2441:	31 d2                	xor    %edx,%edx
    2443:	be 00 24 00 00       	mov    $0x2400,%esi
    2448:	44 89 ef             	mov    %r13d,%edi
    244b:	31 c0                	xor    %eax,%eax
    244d:	e8 0e ef ff ff       	call   1360 <ioctl@plt>
    2452:	4d 39 e6             	cmp    %r12,%r14
    2455:	75 d1                	jne    2428 <main+0xf88>
    2457:	0f 31                	rdtsc  
    2459:	44 8d 34 1b          	lea    (%rbx,%rbx,1),%r14d
    245d:	48 c1 e2 20          	shl    $0x20,%rdx
    2461:	41 89 c2             	mov    %eax,%r10d
    2464:	4d 63 e6             	movslq %r14d,%r12
    2467:	4c 09 d2             	or     %r10,%rdx
    246a:	4d 01 e4             	add    %r12,%r12
    246d:	48 8b bd d0 f9 ff ff 	mov    -0x630(%rbp),%rdi
    2474:	31 f6                	xor    %esi,%esi
    2476:	48 89 15 a3 5b 00 00 	mov    %rdx,0x5ba3(%rip)        # 8020 <start_ticks>
    247d:	4c 89 e2             	mov    %r12,%rdx
    2480:	44 89 b5 b8 f9 ff ff 	mov    %r14d,-0x648(%rbp)
    2487:	e8 c4 ee ff ff       	call   1350 <memset@plt>
    248c:	48 8b bd c8 f9 ff ff 	mov    -0x638(%rbp),%rdi
    2493:	31 f6                	xor    %esi,%esi
    2495:	4c 89 e2             	mov    %r12,%rdx
    2498:	e8 b3 ee ff ff       	call   1350 <memset@plt>
    249d:	45 85 f6             	test   %r14d,%r14d
    24a0:	0f 8e 78 09 00 00    	jle    2e1e <urdhva_indices_test.c.4609593c+0x4ad>
    24a6:	85 db                	test   %ebx,%ebx
    24a8:	0f 8e 9a 1f 00 00    	jle    4448 <urdhva_indices_test.c.4609593c+0x1ad7>
    24ae:	44 8b 9d b8 f9 ff ff 	mov    -0x648(%rbp),%r11d
    24b5:	44 8b b5 60 f9 ff ff 	mov    -0x6a0(%rbp),%r14d
    24bc:	41 39 db             	cmp    %ebx,%r11d
    24bf:	41 0f 4e db          	cmovle %r11d,%ebx
    24c3:	4c 89 bd 38 f9 ff ff 	mov    %r15,-0x6c8(%rbp)
    24ca:	89 9d a8 f9 ff ff    	mov    %ebx,-0x658(%rbp)
    24d0:	48 8b 9d c0 f9 ff ff 	mov    -0x640(%rbp),%rbx
    24d7:	41 f7 de             	neg    %r14d
    24da:	4c 8d 6b e2          	lea    -0x1e(%rbx),%r13
    24de:	45 31 c9             	xor    %r9d,%r9d
    24e1:	31 db                	xor    %ebx,%ebx
    24e3:	0f 1f 44 00 00       	nopl   0x0(%rax,%rax,1)
    24e8:	45 31 ff             	xor    %r15d,%r15d
    24eb:	45 85 f6             	test   %r14d,%r14d
    24ee:	45 0f 49 fe          	cmovns %r14d,%r15d
    24f2:	49 89 d8             	mov    %rbx,%r8
    24f5:	4d 63 df             	movslq %r15d,%r11
    24f8:	4b 8d 34 1b          	lea    (%r11,%r11,1),%rsi
    24fc:	49 29 f0             	sub    %rsi,%r8
    24ff:	48 8b 8d d8 f9 ff ff 	mov    -0x628(%rbp),%rcx
    2506:	49 d1 f8             	sar    %r8
    2509:	45 8d 50 01          	lea    0x1(%r8),%r10d
    250d:	48 8d 0c 31          	lea    (%rcx,%rsi,1),%rcx
    2511:	49 8d 7d 1e          	lea    0x1e(%r13),%rdi
    2515:	45 85 d2             	test   %r10d,%r10d
    2518:	0f 8e 32 1f 00 00    	jle    4450 <urdhva_indices_test.c.4609593c+0x1adf>
    251e:	41 83 f8 0e          	cmp    $0xe,%r8d
    2522:	0f 86 4d 1f 00 00    	jbe    4475 <urdhva_indices_test.c.4609593c+0x1b04>
    2528:	45 89 d4             	mov    %r10d,%r12d
    252b:	41 c1 ec 04          	shr    $0x4,%r12d
    252f:	45 8d 64 24 ff       	lea    -0x1(%r12),%r12d
    2534:	49 c1 e4 05          	shl    $0x5,%r12
    2538:	4c 8d 79 20          	lea    0x20(%rcx),%r15
    253c:	4d 01 fc             	add    %r15,%r12
    253f:	4c 89 e6             	mov    %r12,%rsi
    2542:	48 29 ce             	sub    %rcx,%rsi
    2545:	48 83 ee 20          	sub    $0x20,%rsi
    2549:	48 c1 ee 05          	shr    $0x5,%rsi
    254d:	48 ff c6             	inc    %rsi
    2550:	48 89 c8             	mov    %rcx,%rax
    2553:	4c 89 ea             	mov    %r13,%rdx
    2556:	c5 f9 ef c0          	vpxor  %xmm0,%xmm0,%xmm0
    255a:	83 e6 07             	and    $0x7,%esi
    255d:	0f 84 3b 01 00 00    	je     269e <main+0x11fe>
    2563:	48 83 fe 01          	cmp    $0x1,%rsi
    2567:	0f 84 02 01 00 00    	je     266f <main+0x11cf>
    256d:	48 83 fe 02          	cmp    $0x2,%rsi
    2571:	0f 84 d3 00 00 00    	je     264a <main+0x11aa>
    2577:	48 83 fe 03          	cmp    $0x3,%rsi
    257b:	0f 84 a4 00 00 00    	je     2625 <main+0x1185>
    2581:	48 83 fe 04          	cmp    $0x4,%rsi
    2585:	74 78                	je     25ff <main+0x115f>
    2587:	48 83 fe 05          	cmp    $0x5,%rsi
    258b:	74 4c                	je     25d9 <main+0x1139>
    258d:	48 83 fe 06          	cmp    $0x6,%rsi
    2591:	74 20                	je     25b3 <main+0x1113>
    2593:	62 d1 ff 28 6f 65 00 	vmovdqu16 0x0(%r13),%ymm4
    259a:	c5 fd 6f 2d fe 3d 00 	vmovdqa 0x3dfe(%rip),%ymm5        # 63a0 <_IO_stdin_used+0x3a0>
    25a1:	00 
    25a2:	4c 89 f8             	mov    %r15,%rax
    25a5:	62 f2 dd 28 75 ec    	vpermi2w %ymm4,%ymm4,%ymm5
    25ab:	49 8d 55 e0          	lea    -0x20(%r13),%rdx
    25af:	c5 d5 d5 01          	vpmullw (%rcx),%ymm5,%ymm0
    25b3:	62 f1 ff 28 6f 32    	vmovdqu16 (%rdx),%ymm6
    25b9:	c5 fd 6f 3d df 3d 00 	vmovdqa 0x3ddf(%rip),%ymm7        # 63a0 <_IO_stdin_used+0x3a0>
    25c0:	00 
    25c1:	48 83 c0 20          	add    $0x20,%rax
    25c5:	62 f2 cd 28 75 fe    	vpermi2w %ymm6,%ymm6,%ymm7
    25cb:	c5 45 d5 40 e0       	vpmullw -0x20(%rax),%ymm7,%ymm8
    25d0:	48 83 ea 20          	sub    $0x20,%rdx
    25d4:	c4 c1 7d fd c0       	vpaddw %ymm8,%ymm0,%ymm0
    25d9:	62 71 ff 28 6f 0a    	vmovdqu16 (%rdx),%ymm9
    25df:	c5 7d 6f 15 b9 3d 00 	vmovdqa 0x3db9(%rip),%ymm10        # 63a0 <_IO_stdin_used+0x3a0>
    25e6:	00 
    25e7:	48 83 c0 20          	add    $0x20,%rax
    25eb:	62 52 b5 28 75 d1    	vpermi2w %ymm9,%ymm9,%ymm10
    25f1:	c5 2d d5 58 e0       	vpmullw -0x20(%rax),%ymm10,%ymm11
    25f6:	48 83 ea 20          	sub    $0x20,%rdx
    25fa:	c4 c1 7d fd c3       	vpaddw %ymm11,%ymm0,%ymm0
    25ff:	62 71 ff 28 6f 22    	vmovdqu16 (%rdx),%ymm12
    2605:	c5 7d 6f 2d 93 3d 00 	vmovdqa 0x3d93(%rip),%ymm13        # 63a0 <_IO_stdin_used+0x3a0>
    260c:	00 
    260d:	48 83 c0 20          	add    $0x20,%rax
    2611:	62 52 9d 28 75 ec    	vpermi2w %ymm12,%ymm12,%ymm13
    2617:	c5 15 d5 70 e0       	vpmullw -0x20(%rax),%ymm13,%ymm14
    261c:	48 83 ea 20          	sub    $0x20,%rdx
    2620:	c4 c1 7d fd c6       	vpaddw %ymm14,%ymm0,%ymm0
    2625:	62 71 ff 28 6f 3a    	vmovdqu16 (%rdx),%ymm15
    262b:	c5 fd 6f 1d 6d 3d 00 	vmovdqa 0x3d6d(%rip),%ymm3        # 63a0 <_IO_stdin_used+0x3a0>
    2632:	00 
    2633:	48 83 c0 20          	add    $0x20,%rax
    2637:	62 d2 85 28 75 df    	vpermi2w %ymm15,%ymm15,%ymm3
    263d:	c5 e5 d5 48 e0       	vpmullw -0x20(%rax),%ymm3,%ymm1
    2642:	48 83 ea 20          	sub    $0x20,%rdx
    2646:	c5 fd fd c1          	vpaddw %ymm1,%ymm0,%ymm0
    264a:	62 f1 ff 28 6f 12    	vmovdqu16 (%rdx),%ymm2
    2650:	c5 fd 6f 25 48 3d 00 	vmovdqa 0x3d48(%rip),%ymm4        # 63a0 <_IO_stdin_used+0x3a0>
    2657:	00 
    2658:	48 83 c0 20          	add    $0x20,%rax
    265c:	62 f2 ed 28 75 e2    	vpermi2w %ymm2,%ymm2,%ymm4
    2662:	c5 dd d5 68 e0       	vpmullw -0x20(%rax),%ymm4,%ymm5
    2667:	48 83 ea 20          	sub    $0x20,%rdx
    266b:	c5 fd fd c5          	vpaddw %ymm5,%ymm0,%ymm0
    266f:	62 f1 ff 28 6f 32    	vmovdqu16 (%rdx),%ymm6
    2675:	c5 fd 6f 3d 23 3d 00 	vmovdqa 0x3d23(%rip),%ymm7        # 63a0 <_IO_stdin_used+0x3a0>
    267c:	00 
    267d:	48 83 c0 20          	add    $0x20,%rax
    2681:	62 f2 cd 28 75 fe    	vpermi2w %ymm6,%ymm6,%ymm7
    2687:	c5 45 d5 40 e0       	vpmullw -0x20(%rax),%ymm7,%ymm8
    268c:	48 83 ea 20          	sub    $0x20,%rdx
    2690:	c4 c1 7d fd c0       	vpaddw %ymm8,%ymm0,%ymm0
    2695:	49 39 c4             	cmp    %rax,%r12
    2698:	0f 84 16 01 00 00    	je     27b4 <main+0x1314>
    269e:	62 71 ff 28 6f 0a    	vmovdqu16 (%rdx),%ymm9
    26a4:	c5 7d 6f 15 f4 3c 00 	vmovdqa 0x3cf4(%rip),%ymm10        # 63a0 <_IO_stdin_used+0x3a0>
    26ab:	00 
    26ac:	62 71 ff 28 6f 6a ff 	vmovdqu16 -0x20(%rdx),%ymm13
    26b3:	c5 7d 6f 35 e5 3c 00 	vmovdqa 0x3ce5(%rip),%ymm14        # 63a0 <_IO_stdin_used+0x3a0>
    26ba:	00 
    26bb:	62 f1 ff 28 6f 52 fe 	vmovdqu16 -0x40(%rdx),%ymm2
    26c2:	62 52 b5 28 75 d1    	vpermi2w %ymm9,%ymm9,%ymm10
    26c8:	c5 fd 6f 0d d0 3c 00 	vmovdqa 0x3cd0(%rip),%ymm1        # 63a0 <_IO_stdin_used+0x3a0>
    26cf:	00 
    26d0:	c5 2d d5 18          	vpmullw (%rax),%ymm10,%ymm11
    26d4:	62 f1 ff 28 6f 72 fd 	vmovdqu16 -0x60(%rdx),%ymm6
    26db:	c4 41 7d fd e3       	vpaddw %ymm11,%ymm0,%ymm12
    26e0:	62 52 95 28 75 f5    	vpermi2w %ymm13,%ymm13,%ymm14
    26e6:	c5 fd 6f 3d b2 3c 00 	vmovdqa 0x3cb2(%rip),%ymm7        # 63a0 <_IO_stdin_used+0x3a0>
    26ed:	00 
    26ee:	c5 0d d5 78 20       	vpmullw 0x20(%rax),%ymm14,%ymm15
    26f3:	62 f2 ed 28 75 ca    	vpermi2w %ymm2,%ymm2,%ymm1
    26f9:	c4 c1 1d fd df       	vpaddw %ymm15,%ymm12,%ymm3
    26fe:	62 71 ff 28 6f 4a fc 	vmovdqu16 -0x80(%rdx),%ymm9
    2705:	c5 7d 6f 15 93 3c 00 	vmovdqa 0x3c93(%rip),%ymm10        # 63a0 <_IO_stdin_used+0x3a0>
    270c:	00 
    270d:	c5 f5 d5 60 40       	vpmullw 0x40(%rax),%ymm1,%ymm4
    2712:	62 f2 cd 28 75 fe    	vpermi2w %ymm6,%ymm6,%ymm7
    2718:	c5 e5 fd ec          	vpaddw %ymm4,%ymm3,%ymm5
    271c:	62 71 ff 28 6f 6a fb 	vmovdqu16 -0xa0(%rdx),%ymm13
    2723:	c5 7d 6f 35 75 3c 00 	vmovdqa 0x3c75(%rip),%ymm14        # 63a0 <_IO_stdin_used+0x3a0>
    272a:	00 
    272b:	c5 45 d5 40 60       	vpmullw 0x60(%rax),%ymm7,%ymm8
    2730:	62 f1 ff 28 6f 52 fa 	vmovdqu16 -0xc0(%rdx),%ymm2
    2737:	c4 c1 55 fd c0       	vpaddw %ymm8,%ymm5,%ymm0
    273c:	62 f1 ff 28 6f 72 f9 	vmovdqu16 -0xe0(%rdx),%ymm6
    2743:	c5 fd 6f 0d 55 3c 00 	vmovdqa 0x3c55(%rip),%ymm1        # 63a0 <_IO_stdin_used+0x3a0>
    274a:	00 
    274b:	c5 fd 6f 3d 4d 3c 00 	vmovdqa 0x3c4d(%rip),%ymm7        # 63a0 <_IO_stdin_used+0x3a0>
    2752:	00 
    2753:	62 52 b5 28 75 d1    	vpermi2w %ymm9,%ymm9,%ymm10
    2759:	c5 2d d5 98 80 00 00 	vpmullw 0x80(%rax),%ymm10,%ymm11
    2760:	00 
    2761:	62 52 95 28 75 f5    	vpermi2w %ymm13,%ymm13,%ymm14
    2767:	c4 41 7d fd e3       	vpaddw %ymm11,%ymm0,%ymm12
    276c:	c5 0d d5 b8 a0 00 00 	vpmullw 0xa0(%rax),%ymm14,%ymm15
    2773:	00 
    2774:	62 f2 ed 28 75 ca    	vpermi2w %ymm2,%ymm2,%ymm1
    277a:	c4 c1 1d fd df       	vpaddw %ymm15,%ymm12,%ymm3
    277f:	62 f2 cd 28 75 fe    	vpermi2w %ymm6,%ymm6,%ymm7
    2785:	c5 f5 d5 a0 c0 00 00 	vpmullw 0xc0(%rax),%ymm1,%ymm4
    278c:	00 
    278d:	c5 45 d5 80 e0 00 00 	vpmullw 0xe0(%rax),%ymm7,%ymm8
    2794:	00 
    2795:	c5 e5 fd ec          	vpaddw %ymm4,%ymm3,%ymm5
    2799:	48 05 00 01 00 00    	add    $0x100,%rax
    279f:	c4 c1 55 fd c0       	vpaddw %ymm8,%ymm5,%ymm0
    27a4:	48 81 ea 00 01 00 00 	sub    $0x100,%rdx
    27ab:	49 39 c4             	cmp    %rax,%r12
    27ae:	0f 85 ea fe ff ff    	jne    269e <main+0x11fe>
    27b4:	c5 79 6f c8          	vmovdqa %xmm0,%xmm9
    27b8:	c4 e3 7d 39 c0 01    	vextracti128 $0x1,%ymm0,%xmm0
    27be:	c5 31 fd d0          	vpaddw %xmm0,%xmm9,%xmm10
    27c2:	c4 c1 21 73 da 08    	vpsrldq $0x8,%xmm10,%xmm11
    27c8:	c4 41 29 fd e3       	vpaddw %xmm11,%xmm10,%xmm12
    27cd:	c4 c1 11 73 dc 04    	vpsrldq $0x4,%xmm12,%xmm13
    27d3:	44 89 d2             	mov    %r10d,%edx
    27d6:	c4 41 19 fd f5       	vpaddw %xmm13,%xmm12,%xmm14
    27db:	83 e2 f0             	and    $0xfffffff0,%edx
    27de:	c4 c1 01 73 de 02    	vpsrldq $0x2,%xmm14,%xmm15
    27e4:	41 89 d4             	mov    %edx,%r12d
    27e7:	4d 01 e4             	add    %r12,%r12
    27ea:	c4 c1 09 fd df       	vpaddw %xmm15,%xmm14,%xmm3
    27ef:	c5 f9 c5 c3 00       	vpextrw $0x0,%xmm3,%eax
    27f4:	4c 01 e1             	add    %r12,%rcx
    27f7:	4c 29 e7             	sub    %r12,%rdi
    27fa:	89 d6                	mov    %edx,%esi
    27fc:	41 39 d2             	cmp    %edx,%r10d
    27ff:	0f 84 12 01 00 00    	je     2917 <main+0x1477>
    2805:	41 29 d0             	sub    %edx,%r8d
    2808:	45 8d 60 01          	lea    0x1(%r8),%r12d
    280c:	41 83 f8 06          	cmp    $0x6,%r8d
    2810:	76 77                	jbe    2889 <main+0x13e9>
    2812:	4c 8b bd c0 f9 ff ff 	mov    -0x640(%rbp),%r15
    2819:	49 89 d0             	mov    %rdx,%r8
    281c:	49 f7 d8             	neg    %r8
    281f:	49 01 df             	add    %rbx,%r15
    2822:	62 91 ff 08 6f 94 47 	vmovdqu16 -0xe(%r15,%r8,2),%xmm2
    2829:	f2 ff ff ff 
    282d:	4c 01 da             	add    %r11,%rdx
    2830:	4c 8b 9d d8 f9 ff ff 	mov    -0x628(%rbp),%r11
    2837:	c4 e2 69 00 0d 80 3b 	vpshufb 0x3b80(%rip),%xmm2,%xmm1        # 63c0 <_IO_stdin_used+0x3c0>
    283e:	00 00 
    2840:	c4 c1 71 d5 24 53    	vpmullw (%r11,%rdx,2),%xmm1,%xmm4
    2846:	c5 d1 73 dc 08       	vpsrldq $0x8,%xmm4,%xmm5
    284b:	c5 d9 fd f5          	vpaddw %xmm5,%xmm4,%xmm6
    284f:	c5 c1 73 de 04       	vpsrldq $0x4,%xmm6,%xmm7
    2854:	c5 49 fd c7          	vpaddw %xmm7,%xmm6,%xmm8
    2858:	45 89 e0             	mov    %r12d,%r8d
    285b:	41 83 e0 f8          	and    $0xfffffff8,%r8d
    285f:	c4 c1 31 73 d8 02    	vpsrldq $0x2,%xmm8,%xmm9
    2865:	c4 c1 39 fd c1       	vpaddw %xmm9,%xmm8,%xmm0
    286a:	45 89 c7             	mov    %r8d,%r15d
    286d:	4d 01 ff             	add    %r15,%r15
    2870:	c5 f9 c5 d0 00       	vpextrw $0x0,%xmm0,%edx
    2875:	01 d0                	add    %edx,%eax
    2877:	4c 01 f9             	add    %r15,%rcx
    287a:	4c 29 ff             	sub    %r15,%rdi
    287d:	44 01 c6             	add    %r8d,%esi
    2880:	45 39 c4             	cmp    %r8d,%r12d
    2883:	0f 84 8e 00 00 00    	je     2917 <main+0x1477>
    2889:	44 0f b7 21          	movzwl (%rcx),%r12d
    288d:	44 8d 5e 01          	lea    0x1(%rsi),%r11d
    2891:	66 44 0f af 27       	imul   (%rdi),%r12w
    2896:	44 01 e0             	add    %r12d,%eax
    2899:	45 39 da             	cmp    %r11d,%r10d
    289c:	7e 79                	jle    2917 <main+0x1477>
    289e:	0f b7 51 02          	movzwl 0x2(%rcx),%edx
    28a2:	44 8d 46 02          	lea    0x2(%rsi),%r8d
    28a6:	66 0f af 57 fe       	imul   -0x2(%rdi),%dx
    28ab:	01 d0                	add    %edx,%eax
    28ad:	45 39 c2             	cmp    %r8d,%r10d
    28b0:	7e 65                	jle    2917 <main+0x1477>
    28b2:	44 0f b7 79 04       	movzwl 0x4(%rcx),%r15d
    28b7:	44 8d 66 03          	lea    0x3(%rsi),%r12d
    28bb:	66 44 0f af 7f fc    	imul   -0x4(%rdi),%r15w
    28c1:	44 01 f8             	add    %r15d,%eax
    28c4:	45 39 e2             	cmp    %r12d,%r10d
    28c7:	7e 4e                	jle    2917 <main+0x1477>
    28c9:	44 0f b7 59 06       	movzwl 0x6(%rcx),%r11d
    28ce:	8d 56 04             	lea    0x4(%rsi),%edx
    28d1:	66 44 0f af 5f fa    	imul   -0x6(%rdi),%r11w
    28d7:	44 01 d8             	add    %r11d,%eax
    28da:	44 39 d2             	cmp    %r10d,%edx
    28dd:	7d 38                	jge    2917 <main+0x1477>
    28df:	44 0f b7 41 08       	movzwl 0x8(%rcx),%r8d
    28e4:	44 8d 7e 05          	lea    0x5(%rsi),%r15d
    28e8:	66 44 0f af 47 f8    	imul   -0x8(%rdi),%r8w
    28ee:	44 01 c0             	add    %r8d,%eax
    28f1:	45 39 fa             	cmp    %r15d,%r10d
    28f4:	7e 21                	jle    2917 <main+0x1477>
    28f6:	44 0f b7 61 0a       	movzwl 0xa(%rcx),%r12d
    28fb:	83 c6 06             	add    $0x6,%esi
    28fe:	66 44 0f af 67 f6    	imul   -0xa(%rdi),%r12w
    2904:	44 01 e0             	add    %r12d,%eax
    2907:	41 39 f2             	cmp    %esi,%r10d
    290a:	7e 0b                	jle    2917 <main+0x1477>
    290c:	0f b7 49 0c          	movzwl 0xc(%rcx),%ecx
    2910:	66 0f af 4f f4       	imul   -0xc(%rdi),%cx
    2915:	01 c8                	add    %ecx,%eax
    2917:	45 85 c9             	test   %r9d,%r9d
    291a:	0f 84 a8 1a 00 00    	je     43c8 <urdhva_indices_test.c.4609593c+0x1a57>
    2920:	0f b7 f0             	movzwl %ax,%esi
    2923:	44 69 de cd cc 00 00 	imul   $0xcccd,%esi,%r11d
    292a:	4c 8b 85 d0 f9 ff ff 	mov    -0x630(%rbp),%r8
    2931:	41 ff c1             	inc    %r9d
    2934:	41 c1 eb 13          	shr    $0x13,%r11d
    2938:	43 8d 14 9b          	lea    (%r11,%r11,4),%edx
    293c:	01 d2                	add    %edx,%edx
    293e:	29 d0                	sub    %edx,%eax
    2940:	66 41 89 04 18       	mov    %ax,(%r8,%rbx,1)
    2945:	48 8b 85 c8 f9 ff ff 	mov    -0x638(%rbp),%rax
    294c:	41 ff c6             	inc    %r14d
    294f:	66 44 89 5c 18 fe    	mov    %r11w,-0x2(%rax,%rbx,1)
    2955:	49 83 c5 02          	add    $0x2,%r13
    2959:	48 83 c3 02          	add    $0x2,%rbx
    295d:	44 39 8d a8 f9 ff ff 	cmp    %r9d,-0x658(%rbp)
    2964:	0f 8f 7e fb ff ff    	jg     24e8 <main+0x1048>
    296a:	4c 8b bd 38 f9 ff ff 	mov    -0x6c8(%rbp),%r15
    2971:	44 3b 8d b8 f9 ff ff 	cmp    -0x648(%rbp),%r9d
    2978:	0f 8d 9d 04 00 00    	jge    2e1b <urdhva_indices_test.c.4609593c+0x4aa>
    297e:	4c 8b ad c0 f9 ff ff 	mov    -0x640(%rbp),%r13
    2985:	4c 63 b5 60 f9 ff ff 	movslq -0x6a0(%rbp),%r14
    298c:	4d 63 d9             	movslq %r9d,%r11
    298f:	4c 89 eb             	mov    %r13,%rbx
    2992:	45 29 f1             	sub    %r14d,%r9d
    2995:	4d 01 f6             	add    %r14,%r14
    2998:	4c 89 b5 a8 f9 ff ff 	mov    %r14,-0x658(%rbp)
    299f:	4c 01 f3             	add    %r14,%rbx
    29a2:	4f 8d 74 35 e2       	lea    -0x1e(%r13,%r14,1),%r14
    29a7:	4d 8d 66 e0          	lea    -0x20(%r14),%r12
    29ab:	4c 89 a5 c0 f9 ff ff 	mov    %r12,-0x640(%rbp)
    29b2:	66 0f 1f 44 00 00    	nopw   0x0(%rax,%rax,1)
    29b8:	31 c9                	xor    %ecx,%ecx
    29ba:	45 85 c9             	test   %r9d,%r9d
    29bd:	41 0f 49 c9          	cmovns %r9d,%ecx
    29c1:	4c 8b ad a8 f9 ff ff 	mov    -0x658(%rbp),%r13
    29c8:	4c 63 d1             	movslq %ecx,%r10
    29cb:	4b 8d 34 12          	lea    (%r10,%r10,1),%rsi
    29cf:	48 8b bd d8 f9 ff ff 	mov    -0x628(%rbp),%rdi
    29d6:	49 29 f5             	sub    %rsi,%r13
    29d9:	49 d1 fd             	sar    %r13
    29dc:	48 8d 0c 37          	lea    (%rdi,%rsi,1),%rcx
    29e0:	41 8d 7d 01          	lea    0x1(%r13),%edi
    29e4:	85 ff                	test   %edi,%edi
    29e6:	0f 8e 74 1a 00 00    	jle    4460 <urdhva_indices_test.c.4609593c+0x1aef>
    29ec:	41 83 fd 0e          	cmp    $0xe,%r13d
    29f0:	0f 86 71 1a 00 00    	jbe    4467 <urdhva_indices_test.c.4609593c+0x1af6>
    29f6:	41 89 fc             	mov    %edi,%r12d
    29f9:	41 c1 ec 04          	shr    $0x4,%r12d
    29fd:	4c 8b 85 c0 f9 ff ff 	mov    -0x640(%rbp),%r8
    2a04:	41 ff cc             	dec    %r12d
    2a07:	49 c1 e4 05          	shl    $0x5,%r12
    2a0b:	4d 29 e0             	sub    %r12,%r8
    2a0e:	4c 89 f6             	mov    %r14,%rsi
    2a11:	4c 29 c6             	sub    %r8,%rsi
    2a14:	48 83 ee 20          	sub    $0x20,%rsi
    2a18:	48 c1 ee 05          	shr    $0x5,%rsi
    2a1c:	48 ff c6             	inc    %rsi
    2a1f:	48 89 ca             	mov    %rcx,%rdx
    2a22:	4c 89 f0             	mov    %r14,%rax
    2a25:	c5 f9 ef c0          	vpxor  %xmm0,%xmm0,%xmm0
    2a29:	83 e6 07             	and    $0x7,%esi
    2a2c:	0f 84 35 01 00 00    	je     2b67 <urdhva_indices_test.c.4609593c+0x1f6>
    2a32:	48 83 fe 01          	cmp    $0x1,%rsi
    2a36:	0f 84 fd 00 00 00    	je     2b39 <urdhva_indices_test.c.4609593c+0x1c8>
    2a3c:	48 83 fe 02          	cmp    $0x2,%rsi
    2a40:	0f 84 ce 00 00 00    	je     2b14 <urdhva_indices_test.c.4609593c+0x1a3>
    2a46:	48 83 fe 03          	cmp    $0x3,%rsi
    2a4a:	0f 84 9f 00 00 00    	je     2aef <urdhva_indices_test.c.4609593c+0x17e>
    2a50:	48 83 fe 04          	cmp    $0x4,%rsi
    2a54:	74 75                	je     2acb <urdhva_indices_test.c.4609593c+0x15a>
    2a56:	48 83 fe 05          	cmp    $0x5,%rsi
    2a5a:	74 4b                	je     2aa7 <urdhva_indices_test.c.4609593c+0x136>
    2a5c:	48 83 fe 06          	cmp    $0x6,%rsi
    2a60:	74 20                	je     2a82 <urdhva_indices_test.c.4609593c+0x111>
    2a62:	62 51 ff 28 6f 16    	vmovdqu16 (%r14),%ymm10
    2a68:	c5 7d 6f 1d 30 39 00 	vmovdqa 0x3930(%rip),%ymm11        # 63a0 <_IO_stdin_used+0x3a0>
    2a6f:	00 
    2a70:	49 8d 46 e0          	lea    -0x20(%r14),%rax
    2a74:	62 52 ad 28 75 da    	vpermi2w %ymm10,%ymm10,%ymm11
    2a7a:	48 8d 51 20          	lea    0x20(%rcx),%rdx
    2a7e:	c5 a5 d5 01          	vpmullw (%rcx),%ymm11,%ymm0
    2a82:	62 71 ff 28 6f 20    	vmovdqu16 (%rax),%ymm12
    2a88:	c5 7d 6f 2d 10 39 00 	vmovdqa 0x3910(%rip),%ymm13        # 63a0 <_IO_stdin_used+0x3a0>
    2a8f:	00 
    2a90:	48 83 e8 20          	sub    $0x20,%rax
    2a94:	62 52 9d 28 75 ec    	vpermi2w %ymm12,%ymm12,%ymm13
    2a9a:	c5 15 d5 32          	vpmullw (%rdx),%ymm13,%ymm14
    2a9e:	48 83 c2 20          	add    $0x20,%rdx
    2aa2:	c4 c1 7d fd c6       	vpaddw %ymm14,%ymm0,%ymm0
    2aa7:	62 71 ff 28 6f 38    	vmovdqu16 (%rax),%ymm15
    2aad:	c5 fd 6f 1d eb 38 00 	vmovdqa 0x38eb(%rip),%ymm3        # 63a0 <_IO_stdin_used+0x3a0>
    2ab4:	00 
    2ab5:	48 83 e8 20          	sub    $0x20,%rax
    2ab9:	62 d2 85 28 75 df    	vpermi2w %ymm15,%ymm15,%ymm3
    2abf:	c5 e5 d5 12          	vpmullw (%rdx),%ymm3,%ymm2
    2ac3:	48 83 c2 20          	add    $0x20,%rdx
    2ac7:	c5 fd fd c2          	vpaddw %ymm2,%ymm0,%ymm0
    2acb:	62 f1 ff 28 6f 20    	vmovdqu16 (%rax),%ymm4
    2ad1:	c5 fd 6f 0d c7 38 00 	vmovdqa 0x38c7(%rip),%ymm1        # 63a0 <_IO_stdin_used+0x3a0>
    2ad8:	00 
    2ad9:	48 83 e8 20          	sub    $0x20,%rax
    2add:	62 f2 dd 28 75 cc    	vpermi2w %ymm4,%ymm4,%ymm1
    2ae3:	c5 f5 d5 2a          	vpmullw (%rdx),%ymm1,%ymm5
    2ae7:	48 83 c2 20          	add    $0x20,%rdx
    2aeb:	c5 fd fd c5          	vpaddw %ymm5,%ymm0,%ymm0
    2aef:	62 f1 ff 28 6f 30    	vmovdqu16 (%rax),%ymm6
    2af5:	c5 fd 6f 3d a3 38 00 	vmovdqa 0x38a3(%rip),%ymm7        # 63a0 <_IO_stdin_used+0x3a0>
    2afc:	00 
    2afd:	48 83 e8 20          	sub    $0x20,%rax
    2b01:	62 f2 cd 28 75 fe    	vpermi2w %ymm6,%ymm6,%ymm7
    2b07:	c5 45 d5 02          	vpmullw (%rdx),%ymm7,%ymm8
    2b0b:	48 83 c2 20          	add    $0x20,%rdx
    2b0f:	c4 c1 7d fd c0       	vpaddw %ymm8,%ymm0,%ymm0
    2b14:	62 71 ff 28 6f 08    	vmovdqu16 (%rax),%ymm9
    2b1a:	c5 7d 6f 15 7e 38 00 	vmovdqa 0x387e(%rip),%ymm10        # 63a0 <_IO_stdin_used+0x3a0>
    2b21:	00 
    2b22:	48 83 e8 20          	sub    $0x20,%rax
    2b26:	62 52 b5 28 75 d1    	vpermi2w %ymm9,%ymm9,%ymm10
    2b2c:	c5 2d d5 1a          	vpmullw (%rdx),%ymm10,%ymm11
    2b30:	48 83 c2 20          	add    $0x20,%rdx
    2b34:	c4 c1 7d fd c3       	vpaddw %ymm11,%ymm0,%ymm0
    2b39:	62 71 ff 28 6f 20    	vmovdqu16 (%rax),%ymm12
    2b3f:	c5 7d 6f 2d 59 38 00 	vmovdqa 0x3859(%rip),%ymm13        # 63a0 <_IO_stdin_used+0x3a0>
    2b46:	00 
    2b47:	48 83 e8 20          	sub    $0x20,%rax
    2b4b:	62 52 9d 28 75 ec    	vpermi2w %ymm12,%ymm12,%ymm13
    2b51:	c5 15 d5 32          	vpmullw (%rdx),%ymm13,%ymm14
    2b55:	48 83 c2 20          	add    $0x20,%rdx
    2b59:	c4 c1 7d fd c6       	vpaddw %ymm14,%ymm0,%ymm0
    2b5e:	49 39 c0             	cmp    %rax,%r8
    2b61:	0f 84 14 01 00 00    	je     2c7b <urdhva_indices_test.c.4609593c+0x30a>
    2b67:	62 71 ff 28 6f 38    	vmovdqu16 (%rax),%ymm15
    2b6d:	c5 fd 6f 1d 2b 38 00 	vmovdqa 0x382b(%rip),%ymm3        # 63a0 <_IO_stdin_used+0x3a0>
    2b74:	00 
    2b75:	62 f1 ff 28 6f 68 ff 	vmovdqu16 -0x20(%rax),%ymm5
    2b7c:	c5 fd 6f 0d 1c 38 00 	vmovdqa 0x381c(%rip),%ymm1        # 63a0 <_IO_stdin_used+0x3a0>
    2b83:	00 
    2b84:	62 71 ff 28 6f 40 fe 	vmovdqu16 -0x40(%rax),%ymm8
    2b8b:	62 d2 85 28 75 df    	vpermi2w %ymm15,%ymm15,%ymm3
    2b91:	c5 7d 6f 0d 07 38 00 	vmovdqa 0x3807(%rip),%ymm9        # 63a0 <_IO_stdin_used+0x3a0>
    2b98:	00 
    2b99:	c5 e5 d5 12          	vpmullw (%rdx),%ymm3,%ymm2
    2b9d:	62 71 ff 28 6f 60 fd 	vmovdqu16 -0x60(%rax),%ymm12
    2ba4:	c5 fd fd e2          	vpaddw %ymm2,%ymm0,%ymm4
    2ba8:	62 f2 d5 28 75 cd    	vpermi2w %ymm5,%ymm5,%ymm1
    2bae:	c5 7d 6f 2d ea 37 00 	vmovdqa 0x37ea(%rip),%ymm13        # 63a0 <_IO_stdin_used+0x3a0>
    2bb5:	00 
    2bb6:	c5 f5 d5 72 20       	vpmullw 0x20(%rdx),%ymm1,%ymm6
    2bbb:	62 52 bd 28 75 c8    	vpermi2w %ymm8,%ymm8,%ymm9
    2bc1:	c5 dd fd fe          	vpaddw %ymm6,%ymm4,%ymm7
    2bc5:	62 71 ff 28 6f 78 fc 	vmovdqu16 -0x80(%rax),%ymm15
    2bcc:	c5 fd 6f 1d cc 37 00 	vmovdqa 0x37cc(%rip),%ymm3        # 63a0 <_IO_stdin_used+0x3a0>
    2bd3:	00 
    2bd4:	c5 35 d5 52 40       	vpmullw 0x40(%rdx),%ymm9,%ymm10
    2bd9:	62 52 9d 28 75 ec    	vpermi2w %ymm12,%ymm12,%ymm13
    2bdf:	c4 41 45 fd da       	vpaddw %ymm10,%ymm7,%ymm11
    2be4:	62 f1 ff 28 6f 68 fb 	vmovdqu16 -0xa0(%rax),%ymm5
    2beb:	c5 fd 6f 0d ad 37 00 	vmovdqa 0x37ad(%rip),%ymm1        # 63a0 <_IO_stdin_used+0x3a0>
    2bf2:	00 
    2bf3:	c5 15 d5 72 60       	vpmullw 0x60(%rdx),%ymm13,%ymm14
    2bf8:	62 71 ff 28 6f 40 fa 	vmovdqu16 -0xc0(%rax),%ymm8
    2bff:	c4 c1 25 fd c6       	vpaddw %ymm14,%ymm11,%ymm0
    2c04:	c5 7d 6f 0d 94 37 00 	vmovdqa 0x3794(%rip),%ymm9        # 63a0 <_IO_stdin_used+0x3a0>
    2c0b:	00 
    2c0c:	62 d2 85 28 75 df    	vpermi2w %ymm15,%ymm15,%ymm3
    2c12:	62 71 ff 28 6f 60 f9 	vmovdqu16 -0xe0(%rax),%ymm12
    2c19:	c5 e5 d5 92 80 00 00 	vpmullw 0x80(%rdx),%ymm3,%ymm2
    2c20:	00 
    2c21:	c5 7d 6f 2d 77 37 00 	vmovdqa 0x3777(%rip),%ymm13        # 63a0 <_IO_stdin_used+0x3a0>
    2c28:	00 
    2c29:	c5 fd fd e2          	vpaddw %ymm2,%ymm0,%ymm4
    2c2d:	62 f2 d5 28 75 cd    	vpermi2w %ymm5,%ymm5,%ymm1
    2c33:	c5 f5 d5 b2 a0 00 00 	vpmullw 0xa0(%rdx),%ymm1,%ymm6
    2c3a:	00 
    2c3b:	62 52 bd 28 75 c8    	vpermi2w %ymm8,%ymm8,%ymm9
    2c41:	c5 dd fd fe          	vpaddw %ymm6,%ymm4,%ymm7
    2c45:	c5 35 d5 92 c0 00 00 	vpmullw 0xc0(%rdx),%ymm9,%ymm10
    2c4c:	00 
    2c4d:	62 52 9d 28 75 ec    	vpermi2w %ymm12,%ymm12,%ymm13
    2c53:	c4 41 45 fd da       	vpaddw %ymm10,%ymm7,%ymm11
    2c58:	48 2d 00 01 00 00    	sub    $0x100,%rax
    2c5e:	c5 15 d5 b2 e0 00 00 	vpmullw 0xe0(%rdx),%ymm13,%ymm14
    2c65:	00 
    2c66:	48 81 c2 00 01 00 00 	add    $0x100,%rdx
    2c6d:	c4 c1 25 fd c6       	vpaddw %ymm14,%ymm11,%ymm0
    2c72:	49 39 c0             	cmp    %rax,%r8
    2c75:	0f 85 ec fe ff ff    	jne    2b67 <urdhva_indices_test.c.4609593c+0x1f6>
    2c7b:	c4 c3 7d 39 c7 01    	vextracti128 $0x1,%ymm0,%xmm15
    2c81:	c5 81 fd c0          	vpaddw %xmm0,%xmm15,%xmm0
    2c85:	c5 e1 73 d8 08       	vpsrldq $0x8,%xmm0,%xmm3
    2c8a:	c5 f9 fd d3          	vpaddw %xmm3,%xmm0,%xmm2
    2c8e:	c5 d9 73 da 04       	vpsrldq $0x4,%xmm2,%xmm4
    2c93:	89 fa                	mov    %edi,%edx
    2c95:	c5 e9 fd ec          	vpaddw %xmm4,%xmm2,%xmm5
    2c99:	83 e2 f0             	and    $0xfffffff0,%edx
    2c9c:	c5 f1 73 dd 02       	vpsrldq $0x2,%xmm5,%xmm1
    2ca1:	41 89 d4             	mov    %edx,%r12d
    2ca4:	4d 01 e4             	add    %r12,%r12
    2ca7:	c5 d1 fd f1          	vpaddw %xmm1,%xmm5,%xmm6
    2cab:	49 89 d8             	mov    %rbx,%r8
    2cae:	c5 f9 c5 c6 00       	vpextrw $0x0,%xmm6,%eax
    2cb3:	4c 01 e1             	add    %r12,%rcx
    2cb6:	4d 29 e0             	sub    %r12,%r8
    2cb9:	89 d6                	mov    %edx,%esi
    2cbb:	39 fa                	cmp    %edi,%edx
    2cbd:	0f 84 0b 01 00 00    	je     2dce <urdhva_indices_test.c.4609593c+0x45d>
    2cc3:	41 29 d5             	sub    %edx,%r13d
    2cc6:	45 8d 65 01          	lea    0x1(%r13),%r12d
    2cca:	41 83 fd 06          	cmp    $0x6,%r13d
    2cce:	76 72                	jbe    2d42 <urdhva_indices_test.c.4609593c+0x3d1>
    2cd0:	49 89 d5             	mov    %rdx,%r13
    2cd3:	49 f7 dd             	neg    %r13
    2cd6:	62 b1 ff 08 6f bc 6b 	vmovdqu16 -0xe(%rbx,%r13,2),%xmm7
    2cdd:	f2 ff ff ff 
    2ce1:	4c 01 d2             	add    %r10,%rdx
    2ce4:	4c 8b 95 d8 f9 ff ff 	mov    -0x628(%rbp),%r10
    2ceb:	c4 62 41 00 05 cc 36 	vpshufb 0x36cc(%rip),%xmm7,%xmm8        # 63c0 <_IO_stdin_used+0x3c0>
    2cf2:	00 00 
    2cf4:	c4 41 39 d5 0c 52    	vpmullw (%r10,%rdx,2),%xmm8,%xmm9
    2cfa:	c4 c1 29 73 d9 08    	vpsrldq $0x8,%xmm9,%xmm10
    2d00:	c4 41 31 fd da       	vpaddw %xmm10,%xmm9,%xmm11
    2d05:	c4 c1 19 73 db 04    	vpsrldq $0x4,%xmm11,%xmm12
    2d0b:	c4 41 21 fd ec       	vpaddw %xmm12,%xmm11,%xmm13
    2d10:	45 89 e5             	mov    %r12d,%r13d
    2d13:	41 83 e5 f8          	and    $0xfffffff8,%r13d
    2d17:	c4 c1 09 73 dd 02    	vpsrldq $0x2,%xmm13,%xmm14
    2d1d:	c4 41 11 fd fe       	vpaddw %xmm14,%xmm13,%xmm15
    2d22:	45 89 ea             	mov    %r13d,%r10d
    2d25:	4d 01 d2             	add    %r10,%r10
    2d28:	c4 c1 79 c5 d7 00    	vpextrw $0x0,%xmm15,%edx
    2d2e:	01 d0                	add    %edx,%eax
    2d30:	4c 01 d1             	add    %r10,%rcx
    2d33:	4d 29 d0             	sub    %r10,%r8
    2d36:	44 01 ee             	add    %r13d,%esi
    2d39:	45 39 ec             	cmp    %r13d,%r12d
    2d3c:	0f 84 8c 00 00 00    	je     2dce <urdhva_indices_test.c.4609593c+0x45d>
    2d42:	45 0f b7 20          	movzwl (%r8),%r12d
    2d46:	8d 56 01             	lea    0x1(%rsi),%edx
    2d49:	66 44 0f af 21       	imul   (%rcx),%r12w
    2d4e:	44 01 e0             	add    %r12d,%eax
    2d51:	39 d7                	cmp    %edx,%edi
    2d53:	7e 79                	jle    2dce <urdhva_indices_test.c.4609593c+0x45d>
    2d55:	45 0f b7 68 fe       	movzwl -0x2(%r8),%r13d
    2d5a:	44 8d 56 02          	lea    0x2(%rsi),%r10d
    2d5e:	66 44 0f af 69 02    	imul   0x2(%rcx),%r13w
    2d64:	44 01 e8             	add    %r13d,%eax
    2d67:	44 39 d7             	cmp    %r10d,%edi
    2d6a:	7e 62                	jle    2dce <urdhva_indices_test.c.4609593c+0x45d>
    2d6c:	45 0f b7 60 fc       	movzwl -0x4(%r8),%r12d
    2d71:	8d 56 03             	lea    0x3(%rsi),%edx
    2d74:	66 44 0f af 61 04    	imul   0x4(%rcx),%r12w
    2d7a:	44 01 e0             	add    %r12d,%eax
    2d7d:	39 d7                	cmp    %edx,%edi
    2d7f:	7e 4d                	jle    2dce <urdhva_indices_test.c.4609593c+0x45d>
    2d81:	45 0f b7 68 fa       	movzwl -0x6(%r8),%r13d
    2d86:	44 8d 56 04          	lea    0x4(%rsi),%r10d
    2d8a:	66 44 0f af 69 06    	imul   0x6(%rcx),%r13w
    2d90:	44 01 e8             	add    %r13d,%eax
    2d93:	41 39 fa             	cmp    %edi,%r10d
    2d96:	7d 36                	jge    2dce <urdhva_indices_test.c.4609593c+0x45d>
    2d98:	44 0f b7 61 08       	movzwl 0x8(%rcx),%r12d
    2d9d:	8d 56 05             	lea    0x5(%rsi),%edx
    2da0:	66 45 0f af 60 f8    	imul   -0x8(%r8),%r12w
    2da6:	44 01 e0             	add    %r12d,%eax
    2da9:	39 fa                	cmp    %edi,%edx
    2dab:	7d 21                	jge    2dce <urdhva_indices_test.c.4609593c+0x45d>
    2dad:	44 0f b7 69 0a       	movzwl 0xa(%rcx),%r13d
    2db2:	83 c6 06             	add    $0x6,%esi
    2db5:	66 45 0f af 68 f6    	imul   -0xa(%r8),%r13w
    2dbb:	44 01 e8             	add    %r13d,%eax
    2dbe:	39 fe                	cmp    %edi,%esi
    2dc0:	7d 0c                	jge    2dce <urdhva_indices_test.c.4609593c+0x45d>
    2dc2:	41 0f b7 78 f4       	movzwl -0xc(%r8),%edi
    2dc7:	66 0f af 79 0c       	imul   0xc(%rcx),%di
    2dcc:	01 f8                	add    %edi,%eax
    2dce:	45 85 db             	test   %r11d,%r11d
    2dd1:	0f 84 39 16 00 00    	je     4410 <urdhva_indices_test.c.4609593c+0x1a9f>
    2dd7:	44 0f b7 d0          	movzwl %ax,%r10d
    2ddb:	45 69 e2 cd cc 00 00 	imul   $0xcccd,%r10d,%r12d
    2de2:	4c 8b ad d0 f9 ff ff 	mov    -0x630(%rbp),%r13
    2de9:	41 ff c1             	inc    %r9d
    2dec:	41 c1 ec 13          	shr    $0x13,%r12d
    2df0:	43 8d 14 a4          	lea    (%r12,%r12,4),%edx
    2df4:	01 d2                	add    %edx,%edx
    2df6:	29 d0                	sub    %edx,%eax
    2df8:	66 43 89 44 5d 00    	mov    %ax,0x0(%r13,%r11,2)
    2dfe:	48 8b 85 c8 f9 ff ff 	mov    -0x638(%rbp),%rax
    2e05:	66 46 89 64 58 fe    	mov    %r12w,-0x2(%rax,%r11,2)
    2e0b:	49 ff c3             	inc    %r11
    2e0e:	44 39 9d b8 f9 ff ff 	cmp    %r11d,-0x648(%rbp)
    2e15:	0f 8f 9d fb ff ff    	jg     29b8 <urdhva_indices_test.c.4609593c+0x47>
    2e1b:	c5 f8 77             	vzeroupper 
    2e1e:	44 8b 8d b8 f9 ff ff 	mov    -0x648(%rbp),%r9d
    2e25:	41 83 e9 02          	sub    $0x2,%r9d
    2e29:	4d 63 d9             	movslq %r9d,%r11
    2e2c:	0f 88 74 02 00 00    	js     30a6 <urdhva_indices_test.c.4609593c+0x735>
    2e32:	48 8b 9d c8 f9 ff ff 	mov    -0x638(%rbp),%rbx
    2e39:	45 89 de             	mov    %r11d,%r14d
    2e3c:	42 0f b7 0c 5b       	movzwl (%rbx,%r11,2),%ecx
    2e41:	41 83 e6 02          	and    $0x2,%r14d
    2e45:	31 c0                	xor    %eax,%eax
    2e47:	66 85 c9             	test   %cx,%cx
    2e4a:	74 32                	je     2e7e <urdhva_indices_test.c.4609593c+0x50d>
    2e4c:	48 8b bd d0 f9 ff ff 	mov    -0x630(%rbp),%rdi
    2e53:	66 42 03 0c 5f       	add    (%rdi,%r11,2),%cx
    2e58:	44 0f b7 c1          	movzwl %cx,%r8d
    2e5c:	41 69 c0 cd cc 00 00 	imul   $0xcccd,%r8d,%eax
    2e63:	c1 e8 13             	shr    $0x13,%eax
    2e66:	45 85 db             	test   %r11d,%r11d
    2e69:	74 07                	je     2e72 <urdhva_indices_test.c.4609593c+0x501>
    2e6b:	8d 34 80             	lea    (%rax,%rax,4),%esi
    2e6e:	01 f6                	add    %esi,%esi
    2e70:	29 f1                	sub    %esi,%ecx
    2e72:	4c 8b 95 d0 f9 ff ff 	mov    -0x630(%rbp),%r10
    2e79:	66 43 89 0c 5a       	mov    %cx,(%r10,%r11,2)
    2e7e:	49 8d 53 ff          	lea    -0x1(%r11),%rdx
    2e82:	41 ff cb             	dec    %r11d
    2e85:	0f 88 1b 02 00 00    	js     30a6 <urdhva_indices_test.c.4609593c+0x735>
    2e8b:	45 85 f6             	test   %r14d,%r14d
    2e8e:	0f 84 0b 01 00 00    	je     2f9f <urdhva_indices_test.c.4609593c+0x62e>
    2e94:	41 83 fe 01          	cmp    $0x1,%r14d
    2e98:	0f 84 a9 00 00 00    	je     2f47 <urdhva_indices_test.c.4609593c+0x5d6>
    2e9e:	41 83 fe 02          	cmp    $0x2,%r14d
    2ea2:	74 52                	je     2ef6 <urdhva_indices_test.c.4609593c+0x585>
    2ea4:	4c 8b a5 c8 f9 ff ff 	mov    -0x638(%rbp),%r12
    2eab:	41 89 c1             	mov    %eax,%r9d
    2eae:	45 0f b7 2c 54       	movzwl (%r12,%rdx,2),%r13d
    2eb3:	66 45 09 e9          	or     %r13w,%r9w
    2eb7:	0f 84 15 1e 00 00    	je     4cd2 <urdhva_indices_test.c.4609593c+0x2361>
    2ebd:	4c 8b 9d d0 f9 ff ff 	mov    -0x630(%rbp),%r11
    2ec4:	66 45 03 2c 53       	add    (%r11,%rdx,2),%r13w
    2ec9:	41 01 c5             	add    %eax,%r13d
    2ecc:	41 0f b7 c5          	movzwl %r13w,%eax
    2ed0:	69 c0 cd cc 00 00    	imul   $0xcccd,%eax,%eax
    2ed6:	c1 e8 13             	shr    $0x13,%eax
    2ed9:	85 d2                	test   %edx,%edx
    2edb:	74 0a                	je     2ee7 <urdhva_indices_test.c.4609593c+0x576>
    2edd:	44 8d 34 80          	lea    (%rax,%rax,4),%r14d
    2ee1:	45 01 f6             	add    %r14d,%r14d
    2ee4:	45 29 f5             	sub    %r14d,%r13d
    2ee7:	48 8b 9d d0 f9 ff ff 	mov    -0x630(%rbp),%rbx
    2eee:	66 44 89 2c 53       	mov    %r13w,(%rbx,%rdx,2)
    2ef3:	48 ff ca             	dec    %rdx
    2ef6:	48 8b 8d c8 f9 ff ff 	mov    -0x638(%rbp),%rcx
    2efd:	41 89 c0             	mov    %eax,%r8d
    2f00:	0f b7 3c 51          	movzwl (%rcx,%rdx,2),%edi
    2f04:	66 41 09 f8          	or     %di,%r8w
    2f08:	0f 84 17 1d 00 00    	je     4c25 <urdhva_indices_test.c.4609593c+0x22b4>
    2f0e:	48 8b b5 d0 f9 ff ff 	mov    -0x630(%rbp),%rsi
    2f15:	66 03 3c 56          	add    (%rsi,%rdx,2),%di
    2f19:	01 c7                	add    %eax,%edi
    2f1b:	44 0f b7 d7          	movzwl %di,%r10d
    2f1f:	41 69 c2 cd cc 00 00 	imul   $0xcccd,%r10d,%eax
    2f26:	c1 e8 13             	shr    $0x13,%eax
    2f29:	85 d2                	test   %edx,%edx
    2f2b:	74 0a                	je     2f37 <urdhva_indices_test.c.4609593c+0x5c6>
    2f2d:	44 8d 24 80          	lea    (%rax,%rax,4),%r12d
    2f31:	45 01 e4             	add    %r12d,%r12d
    2f34:	44 29 e7             	sub    %r12d,%edi
    2f37:	4c 8b ad d0 f9 ff ff 	mov    -0x630(%rbp),%r13
    2f3e:	66 41 89 7c 55 00    	mov    %di,0x0(%r13,%rdx,2)
    2f44:	48 ff ca             	dec    %rdx
    2f47:	4c 8b 8d c8 f9 ff ff 	mov    -0x638(%rbp),%r9
    2f4e:	41 89 c6             	mov    %eax,%r14d
    2f51:	45 0f b7 1c 51       	movzwl (%r9,%rdx,2),%r11d
    2f56:	66 45 09 de          	or     %r11w,%r14w
    2f5a:	0f 84 aa 1b 00 00    	je     4b0a <urdhva_indices_test.c.4609593c+0x2199>
    2f60:	48 8b 9d d0 f9 ff ff 	mov    -0x630(%rbp),%rbx
    2f67:	66 44 03 1c 53       	add    (%rbx,%rdx,2),%r11w
    2f6c:	41 01 c3             	add    %eax,%r11d
    2f6f:	41 0f b7 c3          	movzwl %r11w,%eax
    2f73:	69 c0 cd cc 00 00    	imul   $0xcccd,%eax,%eax
    2f79:	c1 e8 13             	shr    $0x13,%eax
    2f7c:	85 d2                	test   %edx,%edx
    2f7e:	74 08                	je     2f88 <urdhva_indices_test.c.4609593c+0x617>
    2f80:	8d 0c 80             	lea    (%rax,%rax,4),%ecx
    2f83:	01 c9                	add    %ecx,%ecx
    2f85:	41 29 cb             	sub    %ecx,%r11d
    2f88:	48 8b bd d0 f9 ff ff 	mov    -0x630(%rbp),%rdi
    2f8f:	66 44 89 1c 57       	mov    %r11w,(%rdi,%rdx,2)
    2f94:	48 ff ca             	dec    %rdx
    2f97:	85 d2                	test   %edx,%edx
    2f99:	0f 88 07 01 00 00    	js     30a6 <urdhva_indices_test.c.4609593c+0x735>
    2f9f:	4c 8b 85 c8 f9 ff ff 	mov    -0x638(%rbp),%r8
    2fa6:	4c 8b 95 d0 f9 ff ff 	mov    -0x630(%rbp),%r10
    2fad:	45 0f b7 24 50       	movzwl (%r8,%rdx,2),%r12d
    2fb2:	41 89 c5             	mov    %eax,%r13d
    2fb5:	45 31 c9             	xor    %r9d,%r9d
    2fb8:	66 45 09 e5          	or     %r12w,%r13w
    2fbc:	74 29                	je     2fe7 <urdhva_indices_test.c.4609593c+0x676>
    2fbe:	66 45 03 24 52       	add    (%r10,%rdx,2),%r12w
    2fc3:	44 01 e0             	add    %r12d,%eax
    2fc6:	0f b7 f0             	movzwl %ax,%esi
    2fc9:	44 69 ce cd cc 00 00 	imul   $0xcccd,%esi,%r9d
    2fd0:	41 c1 e9 13          	shr    $0x13,%r9d
    2fd4:	85 d2                	test   %edx,%edx
    2fd6:	74 0a                	je     2fe2 <urdhva_indices_test.c.4609593c+0x671>
    2fd8:	47 8d 1c 89          	lea    (%r9,%r9,4),%r11d
    2fdc:	45 01 db             	add    %r11d,%r11d
    2fdf:	44 29 d8             	sub    %r11d,%eax
    2fe2:	66 41 89 04 52       	mov    %ax,(%r10,%rdx,2)
    2fe7:	4c 8d 72 ff          	lea    -0x1(%rdx),%r14
    2feb:	43 0f b7 04 70       	movzwl (%r8,%r14,2),%eax
    2ff0:	44 89 cb             	mov    %r9d,%ebx
    2ff3:	31 c9                	xor    %ecx,%ecx
    2ff5:	66 09 c3             	or     %ax,%bx
    2ff8:	74 25                	je     301f <urdhva_indices_test.c.4609593c+0x6ae>
    2ffa:	66 43 03 04 72       	add    (%r10,%r14,2),%ax
    2fff:	44 01 c8             	add    %r9d,%eax
    3002:	0f b7 d0             	movzwl %ax,%edx
    3005:	69 ca cd cc 00 00    	imul   $0xcccd,%edx,%ecx
    300b:	c1 e9 13             	shr    $0x13,%ecx
    300e:	45 85 f6             	test   %r14d,%r14d
    3011:	74 07                	je     301a <urdhva_indices_test.c.4609593c+0x6a9>
    3013:	8d 3c 89             	lea    (%rcx,%rcx,4),%edi
    3016:	01 ff                	add    %edi,%edi
    3018:	29 f8                	sub    %edi,%eax
    301a:	66 43 89 04 72       	mov    %ax,(%r10,%r14,2)
    301f:	4d 8d 66 ff          	lea    -0x1(%r14),%r12
    3023:	47 0f b7 2c 60       	movzwl (%r8,%r12,2),%r13d
    3028:	41 89 c9             	mov    %ecx,%r9d
    302b:	45 31 db             	xor    %r11d,%r11d
    302e:	66 45 09 e9          	or     %r13w,%r9w
    3032:	74 2a                	je     305e <urdhva_indices_test.c.4609593c+0x6ed>
    3034:	66 47 03 2c 62       	add    (%r10,%r12,2),%r13w
    3039:	41 01 cd             	add    %ecx,%r13d
    303c:	41 0f b7 f5          	movzwl %r13w,%esi
    3040:	44 69 de cd cc 00 00 	imul   $0xcccd,%esi,%r11d
    3047:	41 c1 eb 13          	shr    $0x13,%r11d
    304b:	45 85 e4             	test   %r12d,%r12d
    304e:	74 09                	je     3059 <urdhva_indices_test.c.4609593c+0x6e8>
    3050:	43 8d 04 9b          	lea    (%r11,%r11,4),%eax
    3054:	01 c0                	add    %eax,%eax
    3056:	41 29 c5             	sub    %eax,%r13d
    3059:	66 47 89 2c 62       	mov    %r13w,(%r10,%r12,2)
    305e:	49 8d 4e fe          	lea    -0x2(%r14),%rcx
    3062:	41 0f b7 14 48       	movzwl (%r8,%rcx,2),%edx
    3067:	44 89 db             	mov    %r11d,%ebx
    306a:	31 c0                	xor    %eax,%eax
    306c:	66 09 d3             	or     %dx,%bx
    306f:	74 27                	je     3098 <urdhva_indices_test.c.4609593c+0x727>
    3071:	66 41 03 14 4a       	add    (%r10,%rcx,2),%dx
    3076:	44 01 da             	add    %r11d,%edx
    3079:	0f b7 fa             	movzwl %dx,%edi
    307c:	69 c7 cd cc 00 00    	imul   $0xcccd,%edi,%eax
    3082:	c1 e8 13             	shr    $0x13,%eax
    3085:	85 c9                	test   %ecx,%ecx
    3087:	74 0a                	je     3093 <urdhva_indices_test.c.4609593c+0x722>
    3089:	44 8d 24 80          	lea    (%rax,%rax,4),%r12d
    308d:	45 01 e4             	add    %r12d,%r12d
    3090:	44 29 e2             	sub    %r12d,%edx
    3093:	66 41 89 14 4a       	mov    %dx,(%r10,%rcx,2)
    3098:	49 8d 56 fd          	lea    -0x3(%r14),%rdx
    309c:	41 83 ee 03          	sub    $0x3,%r14d
    30a0:	0f 89 07 ff ff ff    	jns    2fad <urdhva_indices_test.c.4609593c+0x63c>
    30a6:	4c 8b 95 d0 f9 ff ff 	mov    -0x630(%rbp),%r10
    30ad:	44 8b 85 b8 f9 ff ff 	mov    -0x648(%rbp),%r8d
    30b4:	45 0f b7 22          	movzwl (%r10),%r12d
    30b8:	45 8d 68 ff          	lea    -0x1(%r8),%r13d
    30bc:	66 41 83 fc 09       	cmp    $0x9,%r12w
    30c1:	0f 86 56 19 00 00    	jbe    4a1d <urdhva_indices_test.c.4609593c+0x20ac>
    30c7:	41 0f b7 dc          	movzwl %r12w,%ebx
    30cb:	45 0f b7 cc          	movzwl %r12w,%r9d
    30cf:	45 89 ee             	mov    %r13d,%r14d
    30d2:	66 0f 1f 44 00 00    	nopw   0x0(%rax,%rax,1)
    30d8:	45 89 c9             	mov    %r9d,%r9d
    30db:	41 bb cd cc cc cc    	mov    $0xcccccccd,%r11d
    30e1:	4c 89 ce             	mov    %r9,%rsi
    30e4:	4d 0f af cb          	imul   %r11,%r9
    30e8:	41 ff c6             	inc    %r14d
    30eb:	49 c1 e9 23          	shr    $0x23,%r9
    30ef:	83 fe 63             	cmp    $0x63,%esi
    30f2:	7f e4                	jg     30d8 <urdhva_indices_test.c.4609593c+0x767>
    30f4:	49 63 f6             	movslq %r14d,%rsi
    30f7:	49 89 f6             	mov    %rsi,%r14
    30fa:	48 8b bd 30 f9 ff ff 	mov    -0x6d0(%rbp),%rdi
    3101:	89 b5 c8 f9 ff ff    	mov    %esi,-0x638(%rbp)
    3107:	45 29 ee             	sub    %r13d,%r14d
    310a:	48 01 f6             	add    %rsi,%rsi
    310d:	e8 fe e2 ff ff       	call   1410 <realloc@plt>
    3112:	49 63 ce             	movslq %r14d,%rcx
    3115:	48 89 05 0c 4f 00 00 	mov    %rax,0x4f0c(%rip)        # 8028 <msb_result>
    311c:	48 89 c6             	mov    %rax,%rsi
    311f:	4c 8d 14 48          	lea    (%rax,%rcx,2),%r10
    3123:	89 d8                	mov    %ebx,%eax
    3125:	eb 0c                	jmp    3133 <urdhva_indices_test.c.4609593c+0x7c2>
    3127:	66 0f 1f 84 00 00 00 	nopw   0x0(%rax,%rax,1)
    312e:	00 00 
    3130:	0f b7 c0             	movzwl %ax,%eax
    3133:	69 c0 cd cc 00 00    	imul   $0xcccd,%eax,%eax
    3139:	44 89 e7             	mov    %r12d,%edi
    313c:	44 89 e3             	mov    %r12d,%ebx
    313f:	c1 e8 13             	shr    $0x13,%eax
    3142:	8d 14 80             	lea    (%rax,%rax,4),%edx
    3145:	01 d2                	add    %edx,%edx
    3147:	29 d7                	sub    %edx,%edi
    3149:	66 41 89 3a          	mov    %di,(%r10)
    314d:	41 89 c4             	mov    %eax,%r12d
    3150:	49 83 ea 02          	sub    $0x2,%r10
    3154:	66 83 fb 09          	cmp    $0x9,%bx
    3158:	77 d6                	ja     3130 <urdhva_indices_test.c.4609593c+0x7bf>
    315a:	4c 8b 8d d0 f9 ff ff 	mov    -0x630(%rbp),%r9
    3161:	41 ff c6             	inc    %r14d
    3164:	66 41 89 01          	mov    %ax,(%r9)
    3168:	41 83 fd 01          	cmp    $0x1,%r13d
    316c:	7e 31                	jle    319f <urdhva_indices_test.c.4609593c+0x82e>
    316e:	44 8b 85 b8 f9 ff ff 	mov    -0x648(%rbp),%r8d
    3175:	49 83 c1 02          	add    $0x2,%r9
    3179:	41 83 e8 03          	sub    $0x3,%r8d
    317d:	4d 63 ee             	movslq %r14d,%r13
    3180:	48 89 b5 d8 f9 ff ff 	mov    %rsi,-0x628(%rbp)
    3187:	4a 8d 3c 6e          	lea    (%rsi,%r13,2),%rdi
    318b:	4b 8d 54 00 02       	lea    0x2(%r8,%r8,1),%rdx
    3190:	4c 89 ce             	mov    %r9,%rsi
    3193:	e8 48 e2 ff ff       	call   13e0 <memcpy@plt>
    3198:	48 8b b5 d8 f9 ff ff 	mov    -0x628(%rbp),%rsi
    319f:	44 8b 9d c8 f9 ff ff 	mov    -0x638(%rbp),%r11d
    31a6:	c7 85 d8 f9 ff ff 00 	movl   $0x0,-0x628(%rbp)
    31ad:	00 00 00 
    31b0:	49 89 f2             	mov    %rsi,%r10
    31b3:	45 85 db             	test   %r11d,%r11d
    31b6:	0f 8e e3 1b 00 00    	jle    4d9f <urdhva_indices_test.c.4609593c+0x242e>
    31bc:	44 89 db             	mov    %r11d,%ebx
    31bf:	83 e3 07             	and    $0x7,%ebx
    31c2:	0f 84 11 1b 00 00    	je     4cd9 <urdhva_indices_test.c.4609593c+0x2368>
    31c8:	83 fb 01             	cmp    $0x1,%ebx
    31cb:	0f 84 b0 00 00 00    	je     3281 <urdhva_indices_test.c.4609593c+0x910>
    31d1:	83 fb 02             	cmp    $0x2,%ebx
    31d4:	0f 84 8f 00 00 00    	je     3269 <urdhva_indices_test.c.4609593c+0x8f8>
    31da:	83 fb 03             	cmp    $0x3,%ebx
    31dd:	74 72                	je     3251 <urdhva_indices_test.c.4609593c+0x8e0>
    31df:	83 fb 04             	cmp    $0x4,%ebx
    31e2:	74 55                	je     3239 <urdhva_indices_test.c.4609593c+0x8c8>
    31e4:	83 fb 05             	cmp    $0x5,%ebx
    31e7:	74 38                	je     3221 <urdhva_indices_test.c.4609593c+0x8b0>
    31e9:	83 fb 06             	cmp    $0x6,%ebx
    31ec:	74 1b                	je     3209 <urdhva_indices_test.c.4609593c+0x898>
    31ee:	66 83 3e 00          	cmpw   $0x0,(%rsi)
    31f2:	49 89 f6             	mov    %rsi,%r14
    31f5:	0f 85 6d 01 00 00    	jne    3368 <urdhva_indices_test.c.4609593c+0x9f7>
    31fb:	c7 85 d8 f9 ff ff 01 	movl   $0x1,-0x628(%rbp)
    3202:	00 00 00 
    3205:	4c 8d 56 02          	lea    0x2(%rsi),%r10
    3209:	66 41 83 3a 00       	cmpw   $0x0,(%r10)
    320e:	4d 89 d6             	mov    %r10,%r14
    3211:	0f 85 51 01 00 00    	jne    3368 <urdhva_indices_test.c.4609593c+0x9f7>
    3217:	ff 85 d8 f9 ff ff    	incl   -0x628(%rbp)
    321d:	49 83 c2 02          	add    $0x2,%r10
    3221:	66 41 83 3a 00       	cmpw   $0x0,(%r10)
    3226:	4d 89 d6             	mov    %r10,%r14
    3229:	0f 85 39 01 00 00    	jne    3368 <urdhva_indices_test.c.4609593c+0x9f7>
    322f:	ff 85 d8 f9 ff ff    	incl   -0x628(%rbp)
    3235:	49 83 c2 02          	add    $0x2,%r10
    3239:	66 41 83 3a 00       	cmpw   $0x0,(%r10)
    323e:	4d 89 d6             	mov    %r10,%r14
    3241:	0f 85 21 01 00 00    	jne    3368 <urdhva_indices_test.c.4609593c+0x9f7>
    3247:	ff 85 d8 f9 ff ff    	incl   -0x628(%rbp)
    324d:	49 83 c2 02          	add    $0x2,%r10
    3251:	66 41 83 3a 00       	cmpw   $0x0,(%r10)
    3256:	4d 89 d6             	mov    %r10,%r14
    3259:	0f 85 09 01 00 00    	jne    3368 <urdhva_indices_test.c.4609593c+0x9f7>
    325f:	ff 85 d8 f9 ff ff    	incl   -0x628(%rbp)
    3265:	49 83 c2 02          	add    $0x2,%r10
    3269:	66 41 83 3a 00       	cmpw   $0x0,(%r10)
    326e:	4d 89 d6             	mov    %r10,%r14
    3271:	0f 85 f1 00 00 00    	jne    3368 <urdhva_indices_test.c.4609593c+0x9f7>
    3277:	ff 85 d8 f9 ff ff    	incl   -0x628(%rbp)
    327d:	49 83 c2 02          	add    $0x2,%r10
    3281:	66 41 83 3a 00       	cmpw   $0x0,(%r10)
    3286:	4d 89 d6             	mov    %r10,%r14
    3289:	0f 85 d9 00 00 00    	jne    3368 <urdhva_indices_test.c.4609593c+0x9f7>
    328f:	ff 85 d8 f9 ff ff    	incl   -0x628(%rbp)
    3295:	49 83 c2 02          	add    $0x2,%r10
    3299:	44 8b b5 d8 f9 ff ff 	mov    -0x628(%rbp),%r14d
    32a0:	44 89 f0             	mov    %r14d,%eax
    32a3:	44 3b b5 c8 f9 ff ff 	cmp    -0x638(%rbp),%r14d
    32aa:	0f 84 ad 00 00 00    	je     335d <urdhva_indices_test.c.4609593c+0x9ec>
    32b0:	66 41 83 3a 00       	cmpw   $0x0,(%r10)
    32b5:	4d 89 d6             	mov    %r10,%r14
    32b8:	0f 85 80 17 00 00    	jne    4a3e <urdhva_indices_test.c.4609593c+0x20cd>
    32be:	8d 48 01             	lea    0x1(%rax),%ecx
    32c1:	66 41 83 7a 02 00    	cmpw   $0x0,0x2(%r10)
    32c7:	89 c8                	mov    %ecx,%eax
    32c9:	4d 8d 72 02          	lea    0x2(%r10),%r14
    32cd:	0f 85 6b 17 00 00    	jne    4a3e <urdhva_indices_test.c.4609593c+0x20cd>
    32d3:	ff c0                	inc    %eax
    32d5:	66 41 83 7a 04 00    	cmpw   $0x0,0x4(%r10)
    32db:	4d 8d 72 04          	lea    0x4(%r10),%r14
    32df:	0f 85 59 17 00 00    	jne    4a3e <urdhva_indices_test.c.4609593c+0x20cd>
    32e5:	66 41 83 7a 06 00    	cmpw   $0x0,0x6(%r10)
    32eb:	8d 41 02             	lea    0x2(%rcx),%eax
    32ee:	4d 8d 72 06          	lea    0x6(%r10),%r14
    32f2:	0f 85 46 17 00 00    	jne    4a3e <urdhva_indices_test.c.4609593c+0x20cd>
    32f8:	66 41 83 7a 08 00    	cmpw   $0x0,0x8(%r10)
    32fe:	8d 41 03             	lea    0x3(%rcx),%eax
    3301:	4d 8d 72 08          	lea    0x8(%r10),%r14
    3305:	0f 85 33 17 00 00    	jne    4a3e <urdhva_indices_test.c.4609593c+0x20cd>
    330b:	66 41 83 7a 0a 00    	cmpw   $0x0,0xa(%r10)
    3311:	8d 41 04             	lea    0x4(%rcx),%eax
    3314:	4d 8d 72 0a          	lea    0xa(%r10),%r14
    3318:	0f 85 20 17 00 00    	jne    4a3e <urdhva_indices_test.c.4609593c+0x20cd>
    331e:	66 41 83 7a 0c 00    	cmpw   $0x0,0xc(%r10)
    3324:	8d 41 05             	lea    0x5(%rcx),%eax
    3327:	4d 8d 72 0c          	lea    0xc(%r10),%r14
    332b:	0f 85 0d 17 00 00    	jne    4a3e <urdhva_indices_test.c.4609593c+0x20cd>
    3331:	66 41 83 7a 0e 00    	cmpw   $0x0,0xe(%r10)
    3337:	8d 41 06             	lea    0x6(%rcx),%eax
    333a:	4d 8d 72 0e          	lea    0xe(%r10),%r14
    333e:	0f 85 fa 16 00 00    	jne    4a3e <urdhva_indices_test.c.4609593c+0x20cd>
    3344:	8d 41 07             	lea    0x7(%rcx),%eax
    3347:	49 83 c2 10          	add    $0x10,%r10
    334b:	3b 85 c8 f9 ff ff    	cmp    -0x638(%rbp),%eax
    3351:	0f 85 59 ff ff ff    	jne    32b0 <urdhva_indices_test.c.4609593c+0x93f>
    3357:	89 85 d8 f9 ff ff    	mov    %eax,-0x628(%rbp)
    335d:	48 63 95 d8 f9 ff ff 	movslq -0x628(%rbp),%rdx
    3364:	4c 8d 34 56          	lea    (%rsi,%rdx,2),%r14
    3368:	0f 31                	rdtsc  
    336a:	48 c1 e2 20          	shl    $0x20,%rdx
    336e:	89 c7                	mov    %eax,%edi
    3370:	48 09 fa             	or     %rdi,%rdx
    3373:	48 89 15 9e 4c 00 00 	mov    %rdx,0x4c9e(%rip)        # 8018 <end_ticks>
    337a:	4c 8b ad a0 f9 ff ff 	mov    -0x660(%rbp),%r13
    3381:	4c 8b a5 98 f9 ff ff 	mov    -0x668(%rbp),%r12
    3388:	0f 1f 84 00 00 00 00 	nopl   0x0(%rax,%rax,1)
    338f:	00 
    3390:	41 8b 7d 00          	mov    0x0(%r13),%edi
    3394:	31 d2                	xor    %edx,%edx
    3396:	31 c0                	xor    %eax,%eax
    3398:	be 01 24 00 00       	mov    $0x2401,%esi
    339d:	e8 be df ff ff       	call   1360 <ioctl@plt>
    33a2:	83 f8 ff             	cmp    $0xffffffff,%eax
    33a5:	0f 84 04 1a 00 00    	je     4daf <urdhva_indices_test.c.4609593c+0x243e>
    33ab:	49 83 c5 04          	add    $0x4,%r13
    33af:	4d 39 ec             	cmp    %r13,%r12
    33b2:	75 dc                	jne    3390 <urdhva_indices_test.c.4609593c+0xa1f>
    33b4:	bf 0a 00 00 00       	mov    $0xa,%edi
    33b9:	e8 e2 de ff ff       	call   12a0 <putchar@plt>
    33be:	4c 8d 8d b0 fa ff ff 	lea    -0x550(%rbp),%r9
    33c5:	4c 89 8d d0 f9 ff ff 	mov    %r9,-0x630(%rbp)
    33cc:	4c 8b a5 a0 f9 ff ff 	mov    -0x660(%rbp),%r12
    33d3:	48 8d 9d e8 fa ff ff 	lea    -0x518(%rbp),%rbx
    33da:	4d 89 cd             	mov    %r9,%r13
    33dd:	0f 1f 00             	nopl   (%rax)
    33e0:	41 8b 3c 24          	mov    (%r12),%edi
    33e4:	ba 08 00 00 00       	mov    $0x8,%edx
    33e9:	4c 89 ee             	mov    %r13,%rsi
    33ec:	e8 9f df ff ff       	call   1390 <read@plt>
    33f1:	48 83 f8 ff          	cmp    $0xffffffffffffffff,%rax
    33f5:	0f 84 ca 19 00 00    	je     4dc5 <urdhva_indices_test.c.4609593c+0x2454>
    33fb:	49 83 c5 08          	add    $0x8,%r13
    33ff:	49 83 c4 04          	add    $0x4,%r12
    3403:	4c 39 eb             	cmp    %r13,%rbx
    3406:	75 d8                	jne    33e0 <urdhva_indices_test.c.4609593c+0xa6f>
    3408:	4c 8b a5 d0 f9 ff ff 	mov    -0x630(%rbp),%r12
    340f:	4c 8b ad 80 f9 ff ff 	mov    -0x680(%rbp),%r13
    3416:	66 2e 0f 1f 84 00 00 	cs nopw 0x0(%rax,%rax,1)
    341d:	00 00 00 
    3420:	49 8b 0c 24          	mov    (%r12),%rcx
    3424:	48 8d 15 c0 2c 00 00 	lea    0x2cc0(%rip),%rdx        # 60eb <_IO_stdin_used+0xeb>
    342b:	be 01 00 00 00       	mov    $0x1,%esi
    3430:	4c 89 ef             	mov    %r13,%rdi
    3433:	31 c0                	xor    %eax,%eax
    3435:	49 83 c4 08          	add    $0x8,%r12
    3439:	e8 22 e0 ff ff       	call   1460 <__fprintf_chk@plt>
    343e:	4c 39 e3             	cmp    %r12,%rbx
    3441:	75 dd                	jne    3420 <urdhva_indices_test.c.4609593c+0xaaf>
    3443:	48 8b b5 80 f9 ff ff 	mov    -0x680(%rbp),%rsi
    344a:	bf 0a 00 00 00       	mov    $0xa,%edi
    344f:	4c 8b a5 d0 f9 ff ff 	mov    -0x630(%rbp),%r12
    3456:	e8 25 df ff ff       	call   1380 <fputc@plt>
    345b:	48 8b 15 b6 4b 00 00 	mov    0x4bb6(%rip),%rdx        # 8018 <end_ticks>
    3462:	48 8d 35 57 2e 00 00 	lea    0x2e57(%rip),%rsi        # 62c0 <_IO_stdin_used+0x2c0>
    3469:	48 2b 15 b0 4b 00 00 	sub    0x4bb0(%rip),%rdx        # 8020 <start_ticks>
    3470:	bf 01 00 00 00       	mov    $0x1,%edi
    3475:	31 c0                	xor    %eax,%eax
    3477:	e8 a4 df ff ff       	call   1420 <__printf_chk@plt>
    347c:	8b 85 68 f9 ff ff    	mov    -0x698(%rbp),%eax
    3482:	be 04 00 00 00       	mov    $0x4,%esi
    3487:	03 85 6c f9 ff ff    	add    -0x694(%rbp),%eax
    348d:	89 85 d0 f9 ff ff    	mov    %eax,-0x630(%rbp)
    3493:	48 98                	cltq   
    3495:	48 89 c7             	mov    %rax,%rdi
    3498:	48 89 85 60 f9 ff ff 	mov    %rax,-0x6a0(%rbp)
    349f:	e8 1c df ff ff       	call   13c0 <calloc@plt>
    34a4:	48 89 85 c0 f9 ff ff 	mov    %rax,-0x640(%rbp)
    34ab:	4c 8b 85 a0 f9 ff ff 	mov    -0x660(%rbp),%r8
    34b2:	4c 89 a5 a8 f9 ff ff 	mov    %r12,-0x658(%rbp)
    34b9:	4c 8b ad 98 f9 ff ff 	mov    -0x668(%rbp),%r13
    34c0:	48 89 9d b8 f9 ff ff 	mov    %rbx,-0x648(%rbp)
    34c7:	4c 89 c3             	mov    %r8,%rbx
    34ca:	66 0f 1f 44 00 00    	nopw   0x0(%rax,%rax,1)
    34d0:	44 8b 23             	mov    (%rbx),%r12d
    34d3:	31 d2                	xor    %edx,%edx
    34d5:	be 03 24 00 00       	mov    $0x2403,%esi
    34da:	44 89 e7             	mov    %r12d,%edi
    34dd:	31 c0                	xor    %eax,%eax
    34df:	e8 7c de ff ff       	call   1360 <ioctl@plt>
    34e4:	48 83 c3 04          	add    $0x4,%rbx
    34e8:	31 d2                	xor    %edx,%edx
    34ea:	be 00 24 00 00       	mov    $0x2400,%esi
    34ef:	44 89 e7             	mov    %r12d,%edi
    34f2:	31 c0                	xor    %eax,%eax
    34f4:	e8 67 de ff ff       	call   1360 <ioctl@plt>
    34f9:	49 39 dd             	cmp    %rbx,%r13
    34fc:	75 d2                	jne    34d0 <urdhva_indices_test.c.4609593c+0xb5f>
    34fe:	48 8b 9d b8 f9 ff ff 	mov    -0x648(%rbp),%rbx
    3505:	4c 8b a5 a8 f9 ff ff 	mov    -0x658(%rbp),%r12
    350c:	0f 31                	rdtsc  
    350e:	48 c1 e2 20          	shl    $0x20,%rdx
    3512:	89 c6                	mov    %eax,%esi
    3514:	44 8b 9d 6c f9 ff ff 	mov    -0x694(%rbp),%r11d
    351b:	48 09 f2             	or     %rsi,%rdx
    351e:	48 89 15 fb 4a 00 00 	mov    %rdx,0x4afb(%rip)        # 8020 <start_ticks>
    3525:	41 ff cb             	dec    %r11d
    3528:	0f 88 5f 02 00 00    	js     378d <urdhva_indices_test.c.4609593c+0xe1c>
    352e:	44 8b 95 68 f9 ff ff 	mov    -0x698(%rbp),%r10d
    3535:	45 89 d0             	mov    %r10d,%r8d
    3538:	41 ff c8             	dec    %r8d
    353b:	0f 88 4c 02 00 00    	js     378d <urdhva_indices_test.c.4609593c+0xe1c>
    3541:	48 8b 8d c0 f9 ff ff 	mov    -0x640(%rbp),%rcx
    3548:	4c 89 b5 b8 f9 ff ff 	mov    %r14,-0x648(%rbp)
    354f:	4d 63 cb             	movslq %r11d,%r9
    3552:	4c 8b 9d b0 f9 ff ff 	mov    -0x650(%rbp),%r11
    3559:	4a 8d 0c 89          	lea    (%rcx,%r9,4),%rcx
    355d:	4d 63 d2             	movslq %r10d,%r10
    3560:	4d 63 c0             	movslq %r8d,%r8
    3563:	0f 1f 44 00 00       	nopl   0x0(%rax,%rax,1)
    3568:	43 8b 3c 8b          	mov    (%r11,%r9,4),%edi
    356c:	47 8b 34 87          	mov    (%r15,%r8,4),%r14d
    3570:	44 89 c6             	mov    %r8d,%esi
    3573:	44 0f af f7          	imul   %edi,%r14d
    3577:	83 e6 03             	and    $0x3,%esi
    357a:	46 03 34 91          	add    (%rcx,%r10,4),%r14d
    357e:	4d 63 ee             	movslq %r14d,%r13
    3581:	49 69 c5 67 66 66 66 	imul   $0x66666667,%r13,%rax
    3588:	44 89 f2             	mov    %r14d,%edx
    358b:	c1 fa 1f             	sar    $0x1f,%edx
    358e:	48 c1 f8 22          	sar    $0x22,%rax
    3592:	29 d0                	sub    %edx,%eax
    3594:	44 8d 2c 80          	lea    (%rax,%rax,4),%r13d
    3598:	45 01 ed             	add    %r13d,%r13d
    359b:	45 29 ee             	sub    %r13d,%r14d
    359e:	46 89 74 81 04       	mov    %r14d,0x4(%rcx,%r8,4)
    35a3:	45 89 c6             	mov    %r8d,%r14d
    35a6:	42 03 04 81          	add    (%rcx,%r8,4),%eax
    35aa:	41 ff ce             	dec    %r14d
    35ad:	42 89 04 81          	mov    %eax,(%rcx,%r8,4)
    35b1:	49 8d 50 ff          	lea    -0x1(%r8),%rdx
    35b5:	0f 88 bb 01 00 00    	js     3776 <urdhva_indices_test.c.4609593c+0xe05>
    35bb:	85 f6                	test   %esi,%esi
    35bd:	0f 84 bb 00 00 00    	je     367e <urdhva_indices_test.c.4609593c+0xd0d>
    35c3:	83 fe 01             	cmp    $0x1,%esi
    35c6:	74 76                	je     363e <urdhva_indices_test.c.4609593c+0xccd>
    35c8:	83 fe 02             	cmp    $0x2,%esi
    35cb:	74 39                	je     3606 <urdhva_indices_test.c.4609593c+0xc95>
    35cd:	41 8b 34 97          	mov    (%r15,%rdx,4),%esi
    35d1:	0f af f7             	imul   %edi,%esi
    35d4:	01 c6                	add    %eax,%esi
    35d6:	48 63 c6             	movslq %esi,%rax
    35d9:	48 69 c0 67 66 66 66 	imul   $0x66666667,%rax,%rax
    35e0:	41 89 f5             	mov    %esi,%r13d
    35e3:	41 c1 fd 1f          	sar    $0x1f,%r13d
    35e7:	48 c1 f8 22          	sar    $0x22,%rax
    35eb:	44 29 e8             	sub    %r13d,%eax
    35ee:	44 8d 34 80          	lea    (%rax,%rax,4),%r14d
    35f2:	45 01 f6             	add    %r14d,%r14d
    35f5:	03 04 91             	add    (%rcx,%rdx,4),%eax
    35f8:	44 29 f6             	sub    %r14d,%esi
    35fb:	89 74 91 04          	mov    %esi,0x4(%rcx,%rdx,4)
    35ff:	89 04 91             	mov    %eax,(%rcx,%rdx,4)
    3602:	49 8d 50 fe          	lea    -0x2(%r8),%rdx
    3606:	41 8b 34 97          	mov    (%r15,%rdx,4),%esi
    360a:	0f af f7             	imul   %edi,%esi
    360d:	01 c6                	add    %eax,%esi
    360f:	48 63 c6             	movslq %esi,%rax
    3612:	48 69 c0 67 66 66 66 	imul   $0x66666667,%rax,%rax
    3619:	41 89 f5             	mov    %esi,%r13d
    361c:	41 c1 fd 1f          	sar    $0x1f,%r13d
    3620:	48 c1 f8 22          	sar    $0x22,%rax
    3624:	44 29 e8             	sub    %r13d,%eax
    3627:	44 8d 34 80          	lea    (%rax,%rax,4),%r14d
    362b:	45 01 f6             	add    %r14d,%r14d
    362e:	03 04 91             	add    (%rcx,%rdx,4),%eax
    3631:	44 29 f6             	sub    %r14d,%esi
    3634:	89 74 91 04          	mov    %esi,0x4(%rcx,%rdx,4)
    3638:	89 04 91             	mov    %eax,(%rcx,%rdx,4)
    363b:	48 ff ca             	dec    %rdx
    363e:	41 8b 34 97          	mov    (%r15,%rdx,4),%esi
    3642:	0f af f7             	imul   %edi,%esi
    3645:	01 c6                	add    %eax,%esi
    3647:	48 63 c6             	movslq %esi,%rax
    364a:	48 69 c0 67 66 66 66 	imul   $0x66666667,%rax,%rax
    3651:	41 89 f5             	mov    %esi,%r13d
    3654:	41 c1 fd 1f          	sar    $0x1f,%r13d
    3658:	48 c1 f8 22          	sar    $0x22,%rax
    365c:	44 29 e8             	sub    %r13d,%eax
    365f:	44 8d 34 80          	lea    (%rax,%rax,4),%r14d
    3663:	45 01 f6             	add    %r14d,%r14d
    3666:	03 04 91             	add    (%rcx,%rdx,4),%eax
    3669:	44 29 f6             	sub    %r14d,%esi
    366c:	89 74 91 04          	mov    %esi,0x4(%rcx,%rdx,4)
    3670:	89 04 91             	mov    %eax,(%rcx,%rdx,4)
    3673:	48 ff ca             	dec    %rdx
    3676:	85 d2                	test   %edx,%edx
    3678:	0f 88 f8 00 00 00    	js     3776 <urdhva_indices_test.c.4609593c+0xe05>
    367e:	41 8b 34 97          	mov    (%r15,%rdx,4),%esi
    3682:	0f af f7             	imul   %edi,%esi
    3685:	01 f0                	add    %esi,%eax
    3687:	4c 63 e8             	movslq %eax,%r13
    368a:	49 69 f5 67 66 66 66 	imul   $0x66666667,%r13,%rsi
    3691:	41 89 c6             	mov    %eax,%r14d
    3694:	41 c1 fe 1f          	sar    $0x1f,%r14d
    3698:	48 c1 fe 22          	sar    $0x22,%rsi
    369c:	44 29 f6             	sub    %r14d,%esi
    369f:	44 8d 2c b6          	lea    (%rsi,%rsi,4),%r13d
    36a3:	45 01 ed             	add    %r13d,%r13d
    36a6:	44 29 e8             	sub    %r13d,%eax
    36a9:	89 44 91 04          	mov    %eax,0x4(%rcx,%rdx,4)
    36ad:	41 8b 44 97 fc       	mov    -0x4(%r15,%rdx,4),%eax
    36b2:	03 34 91             	add    (%rcx,%rdx,4),%esi
    36b5:	0f af c7             	imul   %edi,%eax
    36b8:	89 34 91             	mov    %esi,(%rcx,%rdx,4)
    36bb:	4c 8d 6a ff          	lea    -0x1(%rdx),%r13
    36bf:	01 c6                	add    %eax,%esi
    36c1:	4c 63 f6             	movslq %esi,%r14
    36c4:	49 69 c6 67 66 66 66 	imul   $0x66666667,%r14,%rax
    36cb:	41 89 f6             	mov    %esi,%r14d
    36ce:	41 c1 fe 1f          	sar    $0x1f,%r14d
    36d2:	48 c1 f8 22          	sar    $0x22,%rax
    36d6:	44 29 f0             	sub    %r14d,%eax
    36d9:	44 8d 34 80          	lea    (%rax,%rax,4),%r14d
    36dd:	45 01 f6             	add    %r14d,%r14d
    36e0:	42 03 04 a9          	add    (%rcx,%r13,4),%eax
    36e4:	44 29 f6             	sub    %r14d,%esi
    36e7:	42 89 74 a9 04       	mov    %esi,0x4(%rcx,%r13,4)
    36ec:	42 89 04 a9          	mov    %eax,(%rcx,%r13,4)
    36f0:	45 8b 6c 97 f8       	mov    -0x8(%r15,%rdx,4),%r13d
    36f5:	48 8d 72 fe          	lea    -0x2(%rdx),%rsi
    36f9:	44 0f af ef          	imul   %edi,%r13d
    36fd:	41 01 c5             	add    %eax,%r13d
    3700:	49 63 c5             	movslq %r13d,%rax
    3703:	48 69 c0 67 66 66 66 	imul   $0x66666667,%rax,%rax
    370a:	45 89 ee             	mov    %r13d,%r14d
    370d:	41 c1 fe 1f          	sar    $0x1f,%r14d
    3711:	48 c1 f8 22          	sar    $0x22,%rax
    3715:	44 29 f0             	sub    %r14d,%eax
    3718:	44 8d 34 80          	lea    (%rax,%rax,4),%r14d
    371c:	45 01 f6             	add    %r14d,%r14d
    371f:	45 29 f5             	sub    %r14d,%r13d
    3722:	44 89 6c b1 04       	mov    %r13d,0x4(%rcx,%rsi,4)
    3727:	45 8b 6c 97 f4       	mov    -0xc(%r15,%rdx,4),%r13d
    372c:	03 04 b1             	add    (%rcx,%rsi,4),%eax
    372f:	44 0f af ef          	imul   %edi,%r13d
    3733:	89 04 b1             	mov    %eax,(%rcx,%rsi,4)
    3736:	48 8d 72 fd          	lea    -0x3(%rdx),%rsi
    373a:	41 01 c5             	add    %eax,%r13d
    373d:	49 63 c5             	movslq %r13d,%rax
    3740:	48 69 c0 67 66 66 66 	imul   $0x66666667,%rax,%rax
    3747:	45 89 ee             	mov    %r13d,%r14d
    374a:	41 c1 fe 1f          	sar    $0x1f,%r14d
    374e:	48 c1 f8 22          	sar    $0x22,%rax
    3752:	44 29 f0             	sub    %r14d,%eax
    3755:	44 8d 34 80          	lea    (%rax,%rax,4),%r14d
    3759:	45 01 f6             	add    %r14d,%r14d
    375c:	45 29 f5             	sub    %r14d,%r13d
    375f:	03 04 b1             	add    (%rcx,%rsi,4),%eax
    3762:	48 83 ea 04          	sub    $0x4,%rdx
    3766:	44 89 6c b1 04       	mov    %r13d,0x4(%rcx,%rsi,4)
    376b:	89 04 b1             	mov    %eax,(%rcx,%rsi,4)
    376e:	85 d2                	test   %edx,%edx
    3770:	0f 89 08 ff ff ff    	jns    367e <urdhva_indices_test.c.4609593c+0xd0d>
    3776:	49 ff c9             	dec    %r9
    3779:	48 83 e9 04          	sub    $0x4,%rcx
    377d:	45 85 c9             	test   %r9d,%r9d
    3780:	0f 89 e2 fd ff ff    	jns    3568 <urdhva_indices_test.c.4609593c+0xbf7>
    3786:	4c 8b b5 b8 f9 ff ff 	mov    -0x648(%rbp),%r14
    378d:	0f 31                	rdtsc  
    378f:	41 89 c7             	mov    %eax,%r15d
    3792:	48 c1 e2 20          	shl    $0x20,%rdx
    3796:	4c 09 fa             	or     %r15,%rdx
    3799:	48 89 15 78 48 00 00 	mov    %rdx,0x4878(%rip)        # 8018 <end_ticks>
    37a0:	4c 8b ad a0 f9 ff ff 	mov    -0x660(%rbp),%r13
    37a7:	4c 8b bd 98 f9 ff ff 	mov    -0x668(%rbp),%r15
    37ae:	66 90                	xchg   %ax,%ax
    37b0:	41 8b 7d 00          	mov    0x0(%r13),%edi
    37b4:	31 d2                	xor    %edx,%edx
    37b6:	31 c0                	xor    %eax,%eax
    37b8:	be 01 24 00 00       	mov    $0x2401,%esi
    37bd:	e8 9e db ff ff       	call   1360 <ioctl@plt>
    37c2:	83 f8 ff             	cmp    $0xffffffff,%eax
    37c5:	0f 84 e4 15 00 00    	je     4daf <urdhva_indices_test.c.4609593c+0x243e>
    37cb:	49 83 c5 04          	add    $0x4,%r13
    37cf:	4d 39 ef             	cmp    %r13,%r15
    37d2:	75 dc                	jne    37b0 <urdhva_indices_test.c.4609593c+0xe3f>
    37d4:	4c 8b bd a0 f9 ff ff 	mov    -0x660(%rbp),%r15
    37db:	4d 89 e5             	mov    %r12,%r13
    37de:	66 90                	xchg   %ax,%ax
    37e0:	41 8b 3f             	mov    (%r15),%edi
    37e3:	ba 08 00 00 00       	mov    $0x8,%edx
    37e8:	4c 89 ee             	mov    %r13,%rsi
    37eb:	e8 a0 db ff ff       	call   1390 <read@plt>
    37f0:	48 83 f8 ff          	cmp    $0xffffffffffffffff,%rax
    37f4:	0f 84 cb 15 00 00    	je     4dc5 <urdhva_indices_test.c.4609593c+0x2454>
    37fa:	49 83 c5 08          	add    $0x8,%r13
    37fe:	49 83 c7 04          	add    $0x4,%r15
    3802:	4c 39 eb             	cmp    %r13,%rbx
    3805:	75 d9                	jne    37e0 <urdhva_indices_test.c.4609593c+0xe6f>
    3807:	4c 8b bd 70 f9 ff ff 	mov    -0x690(%rbp),%r15
    380e:	4d 89 e5             	mov    %r12,%r13
    3811:	0f 1f 80 00 00 00 00 	nopl   0x0(%rax)
    3818:	49 8b 4d 00          	mov    0x0(%r13),%rcx
    381c:	48 8d 15 c8 28 00 00 	lea    0x28c8(%rip),%rdx        # 60eb <_IO_stdin_used+0xeb>
    3823:	be 01 00 00 00       	mov    $0x1,%esi
    3828:	4c 89 ff             	mov    %r15,%rdi
    382b:	31 c0                	xor    %eax,%eax
    382d:	49 83 c5 08          	add    $0x8,%r13
    3831:	e8 2a dc ff ff       	call   1460 <__fprintf_chk@plt>
    3836:	4c 39 eb             	cmp    %r13,%rbx
    3839:	75 dd                	jne    3818 <urdhva_indices_test.c.4609593c+0xea7>
    383b:	48 8b b5 70 f9 ff ff 	mov    -0x690(%rbp),%rsi
    3842:	bf 0a 00 00 00       	mov    $0xa,%edi
    3847:	e8 34 db ff ff       	call   1380 <fputc@plt>
    384c:	48 8b 15 c5 47 00 00 	mov    0x47c5(%rip),%rdx        # 8018 <end_ticks>
    3853:	48 8d 35 96 2a 00 00 	lea    0x2a96(%rip),%rsi        # 62f0 <_IO_stdin_used+0x2f0>
    385a:	48 2b 15 bf 47 00 00 	sub    0x47bf(%rip),%rdx        # 8020 <start_ticks>
    3861:	bf 01 00 00 00       	mov    $0x1,%edi
    3866:	31 c0                	xor    %eax,%eax
    3868:	e8 b3 db ff ff       	call   1420 <__printf_chk@plt>
    386d:	48 8b b5 90 f9 ff ff 	mov    -0x670(%rbp),%rsi
    3874:	48 8b bd 48 f9 ff ff 	mov    -0x6b8(%rbp),%rdi
    387b:	ba 0a 00 00 00       	mov    $0xa,%edx
    3880:	e8 2b da ff ff       	call   12b0 <__gmpz_set_str@plt>
    3885:	48 8b b5 88 f9 ff ff 	mov    -0x678(%rbp),%rsi
    388c:	48 8b bd 50 f9 ff ff 	mov    -0x6b0(%rbp),%rdi
    3893:	ba 0a 00 00 00       	mov    $0xa,%edx
    3898:	e8 13 da ff ff       	call   12b0 <__gmpz_set_str@plt>
    389d:	4c 89 a5 b8 f9 ff ff 	mov    %r12,-0x648(%rbp)
    38a4:	4c 8b ad a0 f9 ff ff 	mov    -0x660(%rbp),%r13
    38ab:	4c 8b bd 98 f9 ff ff 	mov    -0x668(%rbp),%r15
    38b2:	66 0f 1f 44 00 00    	nopw   0x0(%rax,%rax,1)
    38b8:	45 8b 65 00          	mov    0x0(%r13),%r12d
    38bc:	31 d2                	xor    %edx,%edx
    38be:	be 03 24 00 00       	mov    $0x2403,%esi
    38c3:	44 89 e7             	mov    %r12d,%edi
    38c6:	31 c0                	xor    %eax,%eax
    38c8:	e8 93 da ff ff       	call   1360 <ioctl@plt>
    38cd:	49 83 c5 04          	add    $0x4,%r13
    38d1:	31 d2                	xor    %edx,%edx
    38d3:	be 00 24 00 00       	mov    $0x2400,%esi
    38d8:	44 89 e7             	mov    %r12d,%edi
    38db:	31 c0                	xor    %eax,%eax
    38dd:	e8 7e da ff ff       	call   1360 <ioctl@plt>
    38e2:	4d 39 ef             	cmp    %r13,%r15
    38e5:	75 d1                	jne    38b8 <urdhva_indices_test.c.4609593c+0xf47>
    38e7:	4c 8b a5 b8 f9 ff ff 	mov    -0x648(%rbp),%r12
    38ee:	0f 31                	rdtsc  
    38f0:	89 c7                	mov    %eax,%edi
    38f2:	48 c1 e2 20          	shl    $0x20,%rdx
    38f6:	48 09 fa             	or     %rdi,%rdx
    38f9:	48 89 15 20 47 00 00 	mov    %rdx,0x4720(%rip)        # 8020 <start_ticks>
    3900:	48 8b b5 48 f9 ff ff 	mov    -0x6b8(%rbp),%rsi
    3907:	48 8b 95 50 f9 ff ff 	mov    -0x6b0(%rbp),%rdx
    390e:	48 8b bd 58 f9 ff ff 	mov    -0x6a8(%rbp),%rdi
    3915:	e8 16 da ff ff       	call   1330 <__gmpz_mul@plt>
    391a:	0f 31                	rdtsc  
    391c:	48 c1 e2 20          	shl    $0x20,%rdx
    3920:	89 c1                	mov    %eax,%ecx
    3922:	48 09 ca             	or     %rcx,%rdx
    3925:	48 89 15 ec 46 00 00 	mov    %rdx,0x46ec(%rip)        # 8018 <end_ticks>
    392c:	4c 8b ad a0 f9 ff ff 	mov    -0x660(%rbp),%r13
    3933:	4c 8b bd 98 f9 ff ff 	mov    -0x668(%rbp),%r15
    393a:	66 0f 1f 44 00 00    	nopw   0x0(%rax,%rax,1)
    3940:	41 8b 7d 00          	mov    0x0(%r13),%edi
    3944:	31 d2                	xor    %edx,%edx
    3946:	31 c0                	xor    %eax,%eax
    3948:	be 01 24 00 00       	mov    $0x2401,%esi
    394d:	e8 0e da ff ff       	call   1360 <ioctl@plt>
    3952:	83 f8 ff             	cmp    $0xffffffff,%eax
    3955:	0f 84 54 14 00 00    	je     4daf <urdhva_indices_test.c.4609593c+0x243e>
    395b:	49 83 c5 04          	add    $0x4,%r13
    395f:	4d 39 ef             	cmp    %r13,%r15
    3962:	75 dc                	jne    3940 <urdhva_indices_test.c.4609593c+0xfcf>
    3964:	4c 8b bd 40 f9 ff ff 	mov    -0x6c0(%rbp),%r15
    396b:	4d 89 e5             	mov    %r12,%r13
    396e:	66 90                	xchg   %ax,%ax
    3970:	41 8b 3f             	mov    (%r15),%edi
    3973:	ba 08 00 00 00       	mov    $0x8,%edx
    3978:	4c 89 ee             	mov    %r13,%rsi
    397b:	e8 10 da ff ff       	call   1390 <read@plt>
    3980:	48 83 f8 ff          	cmp    $0xffffffffffffffff,%rax
    3984:	0f 84 3b 14 00 00    	je     4dc5 <urdhva_indices_test.c.4609593c+0x2454>
    398a:	49 83 c5 08          	add    $0x8,%r13
    398e:	49 83 c7 04          	add    $0x4,%r15
    3992:	4c 39 eb             	cmp    %r13,%rbx
    3995:	75 d9                	jne    3970 <urdhva_indices_test.c.4609593c+0xfff>
    3997:	4c 8b ad 78 f9 ff ff 	mov    -0x688(%rbp),%r13
    399e:	66 90                	xchg   %ax,%ax
    39a0:	49 8b 0c 24          	mov    (%r12),%rcx
    39a4:	48 8d 15 40 27 00 00 	lea    0x2740(%rip),%rdx        # 60eb <_IO_stdin_used+0xeb>
    39ab:	be 01 00 00 00       	mov    $0x1,%esi
    39b0:	4c 89 ef             	mov    %r13,%rdi
    39b3:	31 c0                	xor    %eax,%eax
    39b5:	49 83 c4 08          	add    $0x8,%r12
    39b9:	e8 a2 da ff ff       	call   1460 <__fprintf_chk@plt>
    39be:	4c 39 e3             	cmp    %r12,%rbx
    39c1:	75 dd                	jne    39a0 <urdhva_indices_test.c.4609593c+0x102f>
    39c3:	4c 89 ee             	mov    %r13,%rsi
    39c6:	bf 0a 00 00 00       	mov    $0xa,%edi
    39cb:	4c 89 ad 78 f9 ff ff 	mov    %r13,-0x688(%rbp)
    39d2:	e8 a9 d9 ff ff       	call   1380 <fputc@plt>
    39d7:	48 8b 15 3a 46 00 00 	mov    0x463a(%rip),%rdx        # 8018 <end_ticks>
    39de:	48 8d 35 0b 27 00 00 	lea    0x270b(%rip),%rsi        # 60f0 <_IO_stdin_used+0xf0>
    39e5:	48 2b 15 34 46 00 00 	sub    0x4634(%rip),%rdx        # 8020 <start_ticks>
    39ec:	bf 01 00 00 00       	mov    $0x1,%edi
    39f1:	31 c0                	xor    %eax,%eax
    39f3:	e8 28 da ff ff       	call   1420 <__printf_chk@plt>
    39f8:	48 8b 95 58 f9 ff ff 	mov    -0x6a8(%rbp),%rdx
    39ff:	be 0a 00 00 00       	mov    $0xa,%esi
    3a04:	31 ff                	xor    %edi,%edi
    3a06:	e8 f5 d8 ff ff       	call   1300 <__gmpz_get_str@plt>
    3a0b:	48 89 c7             	mov    %rax,%rdi
    3a0e:	49 89 c7             	mov    %rax,%r15
    3a11:	e8 da d8 ff ff       	call   12f0 <strlen@plt>
    3a16:	4c 63 e8             	movslq %eax,%r13
    3a19:	be 04 00 00 00       	mov    $0x4,%esi
    3a1e:	4c 89 ef             	mov    %r13,%rdi
    3a21:	49 89 c4             	mov    %rax,%r12
    3a24:	89 c3                	mov    %eax,%ebx
    3a26:	e8 95 d9 ff ff       	call   13c0 <calloc@plt>
    3a2b:	48 89 c1             	mov    %rax,%rcx
    3a2e:	45 85 e4             	test   %r12d,%r12d
    3a31:	0f 8e a9 12 00 00    	jle    4ce0 <urdhva_indices_test.c.4609593c+0x236f>
    3a37:	45 8d 44 24 ff       	lea    -0x1(%r12),%r8d
    3a3c:	41 83 f8 1e          	cmp    $0x1e,%r8d
    3a40:	0f 86 32 13 00 00    	jbe    4d78 <urdhva_indices_test.c.4609593c+0x2407>
    3a46:	45 89 e1             	mov    %r12d,%r9d
    3a49:	41 c1 e9 05          	shr    $0x5,%r9d
    3a4d:	45 8d 51 ff          	lea    -0x1(%r9),%r10d
    3a51:	49 c1 e2 05          	shl    $0x5,%r10
    3a55:	4d 8d 5f 20          	lea    0x20(%r15),%r11
    3a59:	4d 01 da             	add    %r11,%r10
    3a5c:	4c 89 d6             	mov    %r10,%rsi
    3a5f:	4c 29 fe             	sub    %r15,%rsi
    3a62:	83 e6 20             	and    $0x20,%esi
    3a65:	4c 89 ff             	mov    %r15,%rdi
    3a68:	74 76                	je     3ae0 <urdhva_indices_test.c.4609593c+0x116f>
    3a6a:	62 d1 7f 28 6f 07    	vmovdqu8 (%r15),%ymm0
    3a70:	4c 89 df             	mov    %r11,%rdi
    3a73:	c4 e3 7d 39 c2 01    	vextracti128 $0x1,%ymm0,%xmm2
    3a79:	c4 e2 7d 20 d8       	vpmovsxbw %xmm0,%ymm3
    3a7e:	c4 e2 7d 20 ea       	vpmovsxbw %xmm2,%ymm5
    3a83:	c5 e5 fd 25 f5 28 00 	vpaddw 0x28f5(%rip),%ymm3,%ymm4        # 6380 <_IO_stdin_used+0x380>
    3a8a:	00 
    3a8b:	c5 d5 fd 35 ed 28 00 	vpaddw 0x28ed(%rip),%ymm5,%ymm6        # 6380 <_IO_stdin_used+0x380>
    3a92:	00 
    3a93:	c4 e3 7d 39 e7 01    	vextracti128 $0x1,%ymm4,%xmm7
    3a99:	c4 c3 7d 39 f2 01    	vextracti128 $0x1,%ymm6,%xmm10
    3a9f:	c4 e2 7d 23 cc       	vpmovsxwd %xmm4,%ymm1
    3aa4:	c4 62 7d 23 c7       	vpmovsxwd %xmm7,%ymm8
    3aa9:	c4 62 7d 23 ce       	vpmovsxwd %xmm6,%ymm9
    3aae:	c4 42 7d 23 da       	vpmovsxwd %xmm10,%ymm11
    3ab3:	c5 fe 7f 08          	vmovdqu %ymm1,(%rax)
    3ab7:	c5 7e 7f 40 20       	vmovdqu %ymm8,0x20(%rax)
    3abc:	c5 7e 7f 48 40       	vmovdqu %ymm9,0x40(%rax)
    3ac1:	c5 7e 7f 58 60       	vmovdqu %ymm11,0x60(%rax)
    3ac6:	48 8d 80 80 00 00 00 	lea    0x80(%rax),%rax
    3acd:	4d 39 da             	cmp    %r11,%r10
    3ad0:	0f 84 dd 00 00 00    	je     3bb3 <urdhva_indices_test.c.4609593c+0x1242>
    3ad6:	66 2e 0f 1f 84 00 00 	cs nopw 0x0(%rax,%rax,1)
    3add:	00 00 00 
    3ae0:	62 71 7f 28 6f 27    	vmovdqu8 (%rdi),%ymm12
    3ae6:	62 71 7f 28 6f 47 01 	vmovdqu8 0x20(%rdi),%ymm8
    3aed:	c4 42 7d 20 ec       	vpmovsxbw %xmm12,%ymm13
    3af2:	c4 43 7d 39 e7 01    	vextracti128 $0x1,%ymm12,%xmm15
    3af8:	c4 43 7d 39 c3 01    	vextracti128 $0x1,%ymm8,%xmm11
    3afe:	c5 15 fd 35 7a 28 00 	vpaddw 0x287a(%rip),%ymm13,%ymm14        # 6380 <_IO_stdin_used+0x380>
    3b05:	00 
    3b06:	c4 c2 7d 20 c7       	vpmovsxbw %xmm15,%ymm0
    3b0b:	c4 42 7d 20 c8       	vpmovsxbw %xmm8,%ymm9
    3b10:	c4 42 7d 20 e3       	vpmovsxbw %xmm11,%ymm12
    3b15:	c5 fd fd 1d 63 28 00 	vpaddw 0x2863(%rip),%ymm0,%ymm3        # 6380 <_IO_stdin_used+0x380>
    3b1c:	00 
    3b1d:	c5 35 fd 15 5b 28 00 	vpaddw 0x285b(%rip),%ymm9,%ymm10        # 6380 <_IO_stdin_used+0x380>
    3b24:	00 
    3b25:	c5 1d fd 2d 53 28 00 	vpaddw 0x2853(%rip),%ymm12,%ymm13        # 6380 <_IO_stdin_used+0x380>
    3b2c:	00 
    3b2d:	c4 c2 7d 23 e6       	vpmovsxwd %xmm14,%ymm4
    3b32:	c4 63 7d 39 f2 01    	vextracti128 $0x1,%ymm14,%xmm2
    3b38:	c5 fe 7f 20          	vmovdqu %ymm4,(%rax)
    3b3c:	c4 e3 7d 39 d9 01    	vextracti128 $0x1,%ymm3,%xmm1
    3b42:	c4 43 7d 39 d7 01    	vextracti128 $0x1,%ymm10,%xmm15
    3b48:	c4 63 7d 39 ec 01    	vextracti128 $0x1,%ymm13,%xmm4
    3b4e:	c4 e2 7d 23 ea       	vpmovsxwd %xmm2,%ymm5
    3b53:	c4 e2 7d 23 f3       	vpmovsxwd %xmm3,%ymm6
    3b58:	c4 e2 7d 23 f9       	vpmovsxwd %xmm1,%ymm7
    3b5d:	c4 42 7d 23 f2       	vpmovsxwd %xmm10,%ymm14
    3b62:	c4 c2 7d 23 c7       	vpmovsxwd %xmm15,%ymm0
    3b67:	c4 c2 7d 23 dd       	vpmovsxwd %xmm13,%ymm3
    3b6c:	c4 e2 7d 23 d4       	vpmovsxwd %xmm4,%ymm2
    3b71:	48 83 c7 40          	add    $0x40,%rdi
    3b75:	c5 fe 7f 68 20       	vmovdqu %ymm5,0x20(%rax)
    3b7a:	c5 fe 7f 70 40       	vmovdqu %ymm6,0x40(%rax)
    3b7f:	c5 fe 7f 78 60       	vmovdqu %ymm7,0x60(%rax)
    3b84:	c5 7e 7f b0 80 00 00 	vmovdqu %ymm14,0x80(%rax)
    3b8b:	00 
    3b8c:	c5 fe 7f 80 a0 00 00 	vmovdqu %ymm0,0xa0(%rax)
    3b93:	00 
    3b94:	c5 fe 7f 98 c0 00 00 	vmovdqu %ymm3,0xc0(%rax)
    3b9b:	00 
    3b9c:	c5 fe 7f 90 e0 00 00 	vmovdqu %ymm2,0xe0(%rax)
    3ba3:	00 
    3ba4:	48 05 00 01 00 00    	add    $0x100,%rax
    3baa:	49 39 fa             	cmp    %rdi,%r10
    3bad:	0f 85 2d ff ff ff    	jne    3ae0 <urdhva_indices_test.c.4609593c+0x116f>
    3bb3:	44 89 e2             	mov    %r12d,%edx
    3bb6:	83 e2 e0             	and    $0xffffffe0,%edx
    3bb9:	89 d0                	mov    %edx,%eax
    3bbb:	44 39 e2             	cmp    %r12d,%edx
    3bbe:	0f 84 e3 11 00 00    	je     4da7 <urdhva_indices_test.c.4609593c+0x2436>
    3bc4:	c5 f8 77             	vzeroupper 
    3bc7:	45 89 e0             	mov    %r12d,%r8d
    3bca:	41 29 d0             	sub    %edx,%r8d
    3bcd:	45 8d 48 ff          	lea    -0x1(%r8),%r9d
    3bd1:	41 83 f9 0e          	cmp    $0xe,%r9d
    3bd5:	76 73                	jbe    3c4a <urdhva_indices_test.c.4609593c+0x12d9>
    3bd7:	62 d1 7f 08 6f 2c 17 	vmovdqu8 (%r15,%rdx,1),%xmm5
    3bde:	45 89 c3             	mov    %r8d,%r11d
    3be1:	c5 c1 73 dd 08       	vpsrldq $0x8,%xmm5,%xmm7
    3be6:	c4 e2 79 20 f5       	vpmovsxbw %xmm5,%xmm6
    3beb:	c4 62 79 20 c7       	vpmovsxbw %xmm7,%xmm8
    3bf0:	c5 c9 fd 0d 88 27 00 	vpaddw 0x2788(%rip),%xmm6,%xmm1        # 6380 <_IO_stdin_used+0x380>
    3bf7:	00 
    3bf8:	c5 39 fd 0d 80 27 00 	vpaddw 0x2780(%rip),%xmm8,%xmm9        # 6380 <_IO_stdin_used+0x380>
    3bff:	00 
    3c00:	c5 a1 73 d9 08       	vpsrldq $0x8,%xmm1,%xmm11
    3c05:	c4 c1 09 73 d9 08    	vpsrldq $0x8,%xmm9,%xmm14
    3c0b:	4c 8d 14 91          	lea    (%rcx,%rdx,4),%r10
    3c0f:	c4 62 79 23 d1       	vpmovsxwd %xmm1,%xmm10
    3c14:	c4 42 79 23 e3       	vpmovsxwd %xmm11,%xmm12
    3c19:	c4 42 79 23 e9       	vpmovsxwd %xmm9,%xmm13
    3c1e:	c4 42 79 23 fe       	vpmovsxwd %xmm14,%xmm15
    3c23:	41 83 e3 f0          	and    $0xfffffff0,%r11d
    3c27:	c4 41 7a 7f 12       	vmovdqu %xmm10,(%r10)
    3c2c:	c4 41 7a 7f 62 10    	vmovdqu %xmm12,0x10(%r10)
    3c32:	c4 41 7a 7f 6a 20    	vmovdqu %xmm13,0x20(%r10)
    3c38:	c4 41 7a 7f 7a 30    	vmovdqu %xmm15,0x30(%r10)
    3c3e:	44 01 d8             	add    %r11d,%eax
    3c41:	45 39 c3             	cmp    %r8d,%r11d
    3c44:	0f 84 9e 01 00 00    	je     3de8 <urdhva_indices_test.c.4609593c+0x1477>
    3c4a:	48 63 f0             	movslq %eax,%rsi
    3c4d:	41 0f be 3c 37       	movsbl (%r15,%rsi,1),%edi
    3c52:	44 8d 40 01          	lea    0x1(%rax),%r8d
    3c56:	83 ef 30             	sub    $0x30,%edi
    3c59:	89 3c b1             	mov    %edi,(%rcx,%rsi,4)
    3c5c:	48 8d 14 b5 00 00 00 	lea    0x0(,%rsi,4),%rdx
    3c63:	00 
    3c64:	45 39 c4             	cmp    %r8d,%r12d
    3c67:	0f 8e 7b 01 00 00    	jle    3de8 <urdhva_indices_test.c.4609593c+0x1477>
    3c6d:	4d 63 c8             	movslq %r8d,%r9
    3c70:	47 0f be 14 0f       	movsbl (%r15,%r9,1),%r10d
    3c75:	44 8d 58 02          	lea    0x2(%rax),%r11d
    3c79:	41 83 ea 30          	sub    $0x30,%r10d
    3c7d:	44 89 54 11 04       	mov    %r10d,0x4(%rcx,%rdx,1)
    3c82:	45 39 dc             	cmp    %r11d,%r12d
    3c85:	0f 8e 5d 01 00 00    	jle    3de8 <urdhva_indices_test.c.4609593c+0x1477>
    3c8b:	49 63 f3             	movslq %r11d,%rsi
    3c8e:	41 0f be 3c 37       	movsbl (%r15,%rsi,1),%edi
    3c93:	44 8d 40 03          	lea    0x3(%rax),%r8d
    3c97:	83 ef 30             	sub    $0x30,%edi
    3c9a:	89 7c 11 08          	mov    %edi,0x8(%rcx,%rdx,1)
    3c9e:	45 39 c4             	cmp    %r8d,%r12d
    3ca1:	0f 8e 41 01 00 00    	jle    3de8 <urdhva_indices_test.c.4609593c+0x1477>
    3ca7:	4d 63 c8             	movslq %r8d,%r9
    3caa:	47 0f be 14 0f       	movsbl (%r15,%r9,1),%r10d
    3caf:	44 8d 58 04          	lea    0x4(%rax),%r11d
    3cb3:	41 83 ea 30          	sub    $0x30,%r10d
    3cb7:	44 89 54 11 0c       	mov    %r10d,0xc(%rcx,%rdx,1)
    3cbc:	45 39 dc             	cmp    %r11d,%r12d
    3cbf:	0f 8e 23 01 00 00    	jle    3de8 <urdhva_indices_test.c.4609593c+0x1477>
    3cc5:	49 63 f3             	movslq %r11d,%rsi
    3cc8:	41 0f be 3c 37       	movsbl (%r15,%rsi,1),%edi
    3ccd:	44 8d 40 05          	lea    0x5(%rax),%r8d
    3cd1:	83 ef 30             	sub    $0x30,%edi
    3cd4:	89 7c 11 10          	mov    %edi,0x10(%rcx,%rdx,1)
    3cd8:	45 39 c4             	cmp    %r8d,%r12d
    3cdb:	0f 8e 07 01 00 00    	jle    3de8 <urdhva_indices_test.c.4609593c+0x1477>
    3ce1:	4d 63 c8             	movslq %r8d,%r9
    3ce4:	47 0f be 14 0f       	movsbl (%r15,%r9,1),%r10d
    3ce9:	44 8d 58 06          	lea    0x6(%rax),%r11d
    3ced:	41 83 ea 30          	sub    $0x30,%r10d
    3cf1:	44 89 54 11 14       	mov    %r10d,0x14(%rcx,%rdx,1)
    3cf6:	45 39 dc             	cmp    %r11d,%r12d
    3cf9:	0f 8e e9 00 00 00    	jle    3de8 <urdhva_indices_test.c.4609593c+0x1477>
    3cff:	49 63 f3             	movslq %r11d,%rsi
    3d02:	41 0f be 3c 37       	movsbl (%r15,%rsi,1),%edi
    3d07:	44 8d 40 07          	lea    0x7(%rax),%r8d
    3d0b:	83 ef 30             	sub    $0x30,%edi
    3d0e:	89 7c 11 18          	mov    %edi,0x18(%rcx,%rdx,1)
    3d12:	45 39 c4             	cmp    %r8d,%r12d
    3d15:	0f 8e cd 00 00 00    	jle    3de8 <urdhva_indices_test.c.4609593c+0x1477>
    3d1b:	4d 63 c8             	movslq %r8d,%r9
    3d1e:	47 0f be 14 0f       	movsbl (%r15,%r9,1),%r10d
    3d23:	44 8d 58 08          	lea    0x8(%rax),%r11d
    3d27:	41 83 ea 30          	sub    $0x30,%r10d
    3d2b:	44 89 54 11 1c       	mov    %r10d,0x1c(%rcx,%rdx,1)
    3d30:	45 39 dc             	cmp    %r11d,%r12d
    3d33:	0f 8e af 00 00 00    	jle    3de8 <urdhva_indices_test.c.4609593c+0x1477>
    3d39:	49 63 f3             	movslq %r11d,%rsi
    3d3c:	41 0f be 3c 37       	movsbl (%r15,%rsi,1),%edi
    3d41:	44 8d 40 09          	lea    0x9(%rax),%r8d
    3d45:	83 ef 30             	sub    $0x30,%edi
    3d48:	89 7c 11 20          	mov    %edi,0x20(%rcx,%rdx,1)
    3d4c:	45 39 c4             	cmp    %r8d,%r12d
    3d4f:	0f 8e 93 00 00 00    	jle    3de8 <urdhva_indices_test.c.4609593c+0x1477>
    3d55:	4d 63 c8             	movslq %r8d,%r9
    3d58:	47 0f be 14 0f       	movsbl (%r15,%r9,1),%r10d
    3d5d:	44 8d 58 0a          	lea    0xa(%rax),%r11d
    3d61:	41 83 ea 30          	sub    $0x30,%r10d
    3d65:	44 89 54 11 24       	mov    %r10d,0x24(%rcx,%rdx,1)
    3d6a:	45 39 dc             	cmp    %r11d,%r12d
    3d6d:	7e 79                	jle    3de8 <urdhva_indices_test.c.4609593c+0x1477>
    3d6f:	49 63 f3             	movslq %r11d,%rsi
    3d72:	41 0f be 3c 37       	movsbl (%r15,%rsi,1),%edi
    3d77:	44 8d 40 0b          	lea    0xb(%rax),%r8d
    3d7b:	83 ef 30             	sub    $0x30,%edi
    3d7e:	89 7c 11 28          	mov    %edi,0x28(%rcx,%rdx,1)
    3d82:	45 39 c4             	cmp    %r8d,%r12d
    3d85:	7e 61                	jle    3de8 <urdhva_indices_test.c.4609593c+0x1477>
    3d87:	4d 63 c8             	movslq %r8d,%r9
    3d8a:	47 0f be 14 0f       	movsbl (%r15,%r9,1),%r10d
    3d8f:	44 8d 58 0c          	lea    0xc(%rax),%r11d
    3d93:	41 83 ea 30          	sub    $0x30,%r10d
    3d97:	44 89 54 11 2c       	mov    %r10d,0x2c(%rcx,%rdx,1)
    3d9c:	45 39 dc             	cmp    %r11d,%r12d
    3d9f:	7e 47                	jle    3de8 <urdhva_indices_test.c.4609593c+0x1477>
    3da1:	49 63 f3             	movslq %r11d,%rsi
    3da4:	41 0f be 3c 37       	movsbl (%r15,%rsi,1),%edi
    3da9:	44 8d 40 0d          	lea    0xd(%rax),%r8d
    3dad:	83 ef 30             	sub    $0x30,%edi
    3db0:	89 7c 11 30          	mov    %edi,0x30(%rcx,%rdx,1)
    3db4:	45 39 c4             	cmp    %r8d,%r12d
    3db7:	7e 2f                	jle    3de8 <urdhva_indices_test.c.4609593c+0x1477>
    3db9:	4d 63 c8             	movslq %r8d,%r9
    3dbc:	47 0f be 14 0f       	movsbl (%r15,%r9,1),%r10d
    3dc1:	83 c0 0e             	add    $0xe,%eax
    3dc4:	41 83 ea 30          	sub    $0x30,%r10d
    3dc8:	44 89 54 11 34       	mov    %r10d,0x34(%rcx,%rdx,1)
    3dcd:	41 39 c4             	cmp    %eax,%r12d
    3dd0:	7e 16                	jle    3de8 <urdhva_indices_test.c.4609593c+0x1477>
    3dd2:	48 98                	cltq   
    3dd4:	45 0f be 3c 07       	movsbl (%r15,%rax,1),%r15d
    3dd9:	41 83 ef 30          	sub    $0x30,%r15d
    3ddd:	44 89 7c 11 38       	mov    %r15d,0x38(%rcx,%rdx,1)
    3de2:	66 0f 1f 44 00 00    	nopw   0x0(%rax,%rax,1)
    3de8:	41 89 dc             	mov    %ebx,%r12d
    3deb:	48 89 c8             	mov    %rcx,%rax
    3dee:	31 f6                	xor    %esi,%esi
    3df0:	41 83 e4 07          	and    $0x7,%r12d
    3df4:	0f 84 a5 00 00 00    	je     3e9f <urdhva_indices_test.c.4609593c+0x152e>
    3dfa:	41 83 fc 01          	cmp    $0x1,%r12d
    3dfe:	0f 84 80 00 00 00    	je     3e84 <urdhva_indices_test.c.4609593c+0x1513>
    3e04:	41 83 fc 02          	cmp    $0x2,%r12d
    3e08:	74 65                	je     3e6f <urdhva_indices_test.c.4609593c+0x14fe>
    3e0a:	41 83 fc 03          	cmp    $0x3,%r12d
    3e0e:	74 4c                	je     3e5c <urdhva_indices_test.c.4609593c+0x14eb>
    3e10:	41 83 fc 04          	cmp    $0x4,%r12d
    3e14:	74 34                	je     3e4a <urdhva_indices_test.c.4609593c+0x14d9>
    3e16:	41 83 fc 05          	cmp    $0x5,%r12d
    3e1a:	74 1c                	je     3e38 <urdhva_indices_test.c.4609593c+0x14c7>
    3e1c:	41 83 fc 06          	cmp    $0x6,%r12d
    3e20:	0f 85 06 0e 00 00    	jne    4c2c <urdhva_indices_test.c.4609593c+0x22bb>
    3e26:	83 38 00             	cmpl   $0x0,(%rax)
    3e29:	49 89 c4             	mov    %rax,%r12
    3e2c:	0f 85 fe 00 00 00    	jne    3f30 <urdhva_indices_test.c.4609593c+0x15bf>
    3e32:	ff c6                	inc    %esi
    3e34:	48 83 c0 04          	add    $0x4,%rax
    3e38:	83 38 00             	cmpl   $0x0,(%rax)
    3e3b:	49 89 c4             	mov    %rax,%r12
    3e3e:	0f 85 ec 00 00 00    	jne    3f30 <urdhva_indices_test.c.4609593c+0x15bf>
    3e44:	ff c6                	inc    %esi
    3e46:	48 83 c0 04          	add    $0x4,%rax
    3e4a:	83 38 00             	cmpl   $0x0,(%rax)
    3e4d:	49 89 c4             	mov    %rax,%r12
    3e50:	0f 85 da 00 00 00    	jne    3f30 <urdhva_indices_test.c.4609593c+0x15bf>
    3e56:	ff c6                	inc    %esi
    3e58:	48 83 c0 04          	add    $0x4,%rax
    3e5c:	8b 10                	mov    (%rax),%edx
    3e5e:	49 89 c4             	mov    %rax,%r12
    3e61:	85 d2                	test   %edx,%edx
    3e63:	0f 85 c7 00 00 00    	jne    3f30 <urdhva_indices_test.c.4609593c+0x15bf>
    3e69:	ff c6                	inc    %esi
    3e6b:	48 83 c0 04          	add    $0x4,%rax
    3e6f:	44 8b 18             	mov    (%rax),%r11d
    3e72:	49 89 c4             	mov    %rax,%r12
    3e75:	45 85 db             	test   %r11d,%r11d
    3e78:	0f 85 b2 00 00 00    	jne    3f30 <urdhva_indices_test.c.4609593c+0x15bf>
    3e7e:	ff c6                	inc    %esi
    3e80:	48 83 c0 04          	add    $0x4,%rax
    3e84:	8b 38                	mov    (%rax),%edi
    3e86:	49 89 c4             	mov    %rax,%r12
    3e89:	85 ff                	test   %edi,%edi
    3e8b:	0f 85 9f 00 00 00    	jne    3f30 <urdhva_indices_test.c.4609593c+0x15bf>
    3e91:	ff c6                	inc    %esi
    3e93:	48 83 c0 04          	add    $0x4,%rax
    3e97:	39 f3                	cmp    %esi,%ebx
    3e99:	0f 84 8d 00 00 00    	je     3f2c <urdhva_indices_test.c.4609593c+0x15bb>
    3e9f:	44 8b 00             	mov    (%rax),%r8d
    3ea2:	49 89 c4             	mov    %rax,%r12
    3ea5:	45 85 c0             	test   %r8d,%r8d
    3ea8:	0f 85 82 00 00 00    	jne    3f30 <urdhva_indices_test.c.4609593c+0x15bf>
    3eae:	44 8b 48 04          	mov    0x4(%rax),%r9d
    3eb2:	8d 56 01             	lea    0x1(%rsi),%edx
    3eb5:	89 d6                	mov    %edx,%esi
    3eb7:	4c 8d 60 04          	lea    0x4(%rax),%r12
    3ebb:	45 85 c9             	test   %r9d,%r9d
    3ebe:	75 70                	jne    3f30 <urdhva_indices_test.c.4609593c+0x15bf>
    3ec0:	44 8b 50 08          	mov    0x8(%rax),%r10d
    3ec4:	ff c6                	inc    %esi
    3ec6:	4c 8d 60 08          	lea    0x8(%rax),%r12
    3eca:	45 85 d2             	test   %r10d,%r10d
    3ecd:	75 61                	jne    3f30 <urdhva_indices_test.c.4609593c+0x15bf>
    3ecf:	44 8b 78 0c          	mov    0xc(%rax),%r15d
    3ed3:	8d 72 02             	lea    0x2(%rdx),%esi
    3ed6:	4c 8d 60 0c          	lea    0xc(%rax),%r12
    3eda:	45 85 ff             	test   %r15d,%r15d
    3edd:	75 51                	jne    3f30 <urdhva_indices_test.c.4609593c+0x15bf>
    3edf:	44 8b 58 10          	mov    0x10(%rax),%r11d
    3ee3:	8d 72 03             	lea    0x3(%rdx),%esi
    3ee6:	4c 8d 60 10          	lea    0x10(%rax),%r12
    3eea:	45 85 db             	test   %r11d,%r11d
    3eed:	75 41                	jne    3f30 <urdhva_indices_test.c.4609593c+0x15bf>
    3eef:	8b 78 14             	mov    0x14(%rax),%edi
    3ef2:	8d 72 04             	lea    0x4(%rdx),%esi
    3ef5:	4c 8d 60 14          	lea    0x14(%rax),%r12
    3ef9:	85 ff                	test   %edi,%edi
    3efb:	75 33                	jne    3f30 <urdhva_indices_test.c.4609593c+0x15bf>
    3efd:	44 8b 40 18          	mov    0x18(%rax),%r8d
    3f01:	8d 72 05             	lea    0x5(%rdx),%esi
    3f04:	4c 8d 60 18          	lea    0x18(%rax),%r12
    3f08:	45 85 c0             	test   %r8d,%r8d
    3f0b:	75 23                	jne    3f30 <urdhva_indices_test.c.4609593c+0x15bf>
    3f0d:	44 8b 48 1c          	mov    0x1c(%rax),%r9d
    3f11:	8d 72 06             	lea    0x6(%rdx),%esi
    3f14:	4c 8d 60 1c          	lea    0x1c(%rax),%r12
    3f18:	45 85 c9             	test   %r9d,%r9d
    3f1b:	75 13                	jne    3f30 <urdhva_indices_test.c.4609593c+0x15bf>
    3f1d:	8d 72 07             	lea    0x7(%rdx),%esi
    3f20:	48 83 c0 20          	add    $0x20,%rax
    3f24:	39 f3                	cmp    %esi,%ebx
    3f26:	0f 85 73 ff ff ff    	jne    3e9f <urdhva_indices_test.c.4609593c+0x152e>
    3f2c:	4e 8d 24 a9          	lea    (%rcx,%r13,4),%r12
    3f30:	44 8b ad d0 f9 ff ff 	mov    -0x630(%rbp),%r13d
    3f37:	48 8b 85 c0 f9 ff ff 	mov    -0x640(%rbp),%rax
    3f3e:	31 d2                	xor    %edx,%edx
    3f40:	45 85 ed             	test   %r13d,%r13d
    3f43:	0f 8e 0b 04 00 00    	jle    4354 <urdhva_indices_test.c.4609593c+0x19e3>
    3f49:	44 89 ef             	mov    %r13d,%edi
    3f4c:	83 e7 07             	and    $0x7,%edi
    3f4f:	0f 84 bd 00 00 00    	je     4012 <urdhva_indices_test.c.4609593c+0x16a1>
    3f55:	83 ff 01             	cmp    $0x1,%edi
    3f58:	0f 84 93 00 00 00    	je     3ff1 <urdhva_indices_test.c.4609593c+0x1680>
    3f5e:	83 ff 02             	cmp    $0x2,%edi
    3f61:	74 79                	je     3fdc <urdhva_indices_test.c.4609593c+0x166b>
    3f63:	83 ff 03             	cmp    $0x3,%edi
    3f66:	74 61                	je     3fc9 <urdhva_indices_test.c.4609593c+0x1658>
    3f68:	83 ff 04             	cmp    $0x4,%edi
    3f6b:	74 4a                	je     3fb7 <urdhva_indices_test.c.4609593c+0x1646>
    3f6d:	83 ff 05             	cmp    $0x5,%edi
    3f70:	74 33                	je     3fa5 <urdhva_indices_test.c.4609593c+0x1634>
    3f72:	83 ff 06             	cmp    $0x6,%edi
    3f75:	74 1c                	je     3f93 <urdhva_indices_test.c.4609593c+0x1622>
    3f77:	48 8b 85 c0 f9 ff ff 	mov    -0x640(%rbp),%rax
    3f7e:	83 38 00             	cmpl   $0x0,(%rax)
    3f81:	49 89 c5             	mov    %rax,%r13
    3f84:	0f 85 2f 01 00 00    	jne    40b9 <urdhva_indices_test.c.4609593c+0x1748>
    3f8a:	ba 01 00 00 00       	mov    $0x1,%edx
    3f8f:	48 83 c0 04          	add    $0x4,%rax
    3f93:	83 38 00             	cmpl   $0x0,(%rax)
    3f96:	49 89 c5             	mov    %rax,%r13
    3f99:	0f 85 1a 01 00 00    	jne    40b9 <urdhva_indices_test.c.4609593c+0x1748>
    3f9f:	ff c2                	inc    %edx
    3fa1:	48 83 c0 04          	add    $0x4,%rax
    3fa5:	83 38 00             	cmpl   $0x0,(%rax)
    3fa8:	49 89 c5             	mov    %rax,%r13
    3fab:	0f 85 08 01 00 00    	jne    40b9 <urdhva_indices_test.c.4609593c+0x1748>
    3fb1:	ff c2                	inc    %edx
    3fb3:	48 83 c0 04          	add    $0x4,%rax
    3fb7:	83 38 00             	cmpl   $0x0,(%rax)
    3fba:	49 89 c5             	mov    %rax,%r13
    3fbd:	0f 85 f6 00 00 00    	jne    40b9 <urdhva_indices_test.c.4609593c+0x1748>
    3fc3:	ff c2                	inc    %edx
    3fc5:	48 83 c0 04          	add    $0x4,%rax
    3fc9:	8b 08                	mov    (%rax),%ecx
    3fcb:	49 89 c5             	mov    %rax,%r13
    3fce:	85 c9                	test   %ecx,%ecx
    3fd0:	0f 85 e3 00 00 00    	jne    40b9 <urdhva_indices_test.c.4609593c+0x1748>
    3fd6:	ff c2                	inc    %edx
    3fd8:	48 83 c0 04          	add    $0x4,%rax
    3fdc:	44 8b 10             	mov    (%rax),%r10d
    3fdf:	49 89 c5             	mov    %rax,%r13
    3fe2:	45 85 d2             	test   %r10d,%r10d
    3fe5:	0f 85 ce 00 00 00    	jne    40b9 <urdhva_indices_test.c.4609593c+0x1748>
    3feb:	ff c2                	inc    %edx
    3fed:	48 83 c0 04          	add    $0x4,%rax
    3ff1:	44 8b 38             	mov    (%rax),%r15d
    3ff4:	49 89 c5             	mov    %rax,%r13
    3ff7:	45 85 ff             	test   %r15d,%r15d
    3ffa:	0f 85 b9 00 00 00    	jne    40b9 <urdhva_indices_test.c.4609593c+0x1748>
    4000:	ff c2                	inc    %edx
    4002:	48 83 c0 04          	add    $0x4,%rax
    4006:	39 95 d0 f9 ff ff    	cmp    %edx,-0x630(%rbp)
    400c:	0f 84 95 00 00 00    	je     40a7 <urdhva_indices_test.c.4609593c+0x1736>
    4012:	44 8b 18             	mov    (%rax),%r11d
    4015:	49 89 c5             	mov    %rax,%r13
    4018:	45 85 db             	test   %r11d,%r11d
    401b:	0f 85 98 00 00 00    	jne    40b9 <urdhva_indices_test.c.4609593c+0x1748>
    4021:	44 8b 40 04          	mov    0x4(%rax),%r8d
    4025:	8d 4a 01             	lea    0x1(%rdx),%ecx
    4028:	89 ca                	mov    %ecx,%edx
    402a:	4c 8d 68 04          	lea    0x4(%rax),%r13
    402e:	45 85 c0             	test   %r8d,%r8d
    4031:	0f 85 82 00 00 00    	jne    40b9 <urdhva_indices_test.c.4609593c+0x1748>
    4037:	44 8b 48 08          	mov    0x8(%rax),%r9d
    403b:	ff c2                	inc    %edx
    403d:	4c 8d 68 08          	lea    0x8(%rax),%r13
    4041:	45 85 c9             	test   %r9d,%r9d
    4044:	75 73                	jne    40b9 <urdhva_indices_test.c.4609593c+0x1748>
    4046:	8b 78 0c             	mov    0xc(%rax),%edi
    4049:	8d 51 02             	lea    0x2(%rcx),%edx
    404c:	4c 8d 68 0c          	lea    0xc(%rax),%r13
    4050:	85 ff                	test   %edi,%edi
    4052:	75 65                	jne    40b9 <urdhva_indices_test.c.4609593c+0x1748>
    4054:	44 8b 50 10          	mov    0x10(%rax),%r10d
    4058:	8d 51 03             	lea    0x3(%rcx),%edx
    405b:	4c 8d 68 10          	lea    0x10(%rax),%r13
    405f:	45 85 d2             	test   %r10d,%r10d
    4062:	75 55                	jne    40b9 <urdhva_indices_test.c.4609593c+0x1748>
    4064:	44 8b 78 14          	mov    0x14(%rax),%r15d
    4068:	8d 51 04             	lea    0x4(%rcx),%edx
    406b:	4c 8d 68 14          	lea    0x14(%rax),%r13
    406f:	45 85 ff             	test   %r15d,%r15d
    4072:	75 45                	jne    40b9 <urdhva_indices_test.c.4609593c+0x1748>
    4074:	44 8b 58 18          	mov    0x18(%rax),%r11d
    4078:	8d 51 05             	lea    0x5(%rcx),%edx
    407b:	4c 8d 68 18          	lea    0x18(%rax),%r13
    407f:	45 85 db             	test   %r11d,%r11d
    4082:	75 35                	jne    40b9 <urdhva_indices_test.c.4609593c+0x1748>
    4084:	44 8b 40 1c          	mov    0x1c(%rax),%r8d
    4088:	8d 51 06             	lea    0x6(%rcx),%edx
    408b:	4c 8d 68 1c          	lea    0x1c(%rax),%r13
    408f:	45 85 c0             	test   %r8d,%r8d
    4092:	75 25                	jne    40b9 <urdhva_indices_test.c.4609593c+0x1748>
    4094:	8d 51 07             	lea    0x7(%rcx),%edx
    4097:	48 83 c0 20          	add    $0x20,%rax
    409b:	39 95 d0 f9 ff ff    	cmp    %edx,-0x630(%rbp)
    40a1:	0f 85 6b ff ff ff    	jne    4012 <urdhva_indices_test.c.4609593c+0x16a1>
    40a7:	48 8b 85 c0 f9 ff ff 	mov    -0x640(%rbp),%rax
    40ae:	48 8b 8d 60 f9 ff ff 	mov    -0x6a0(%rbp),%rcx
    40b5:	4c 8d 2c 88          	lea    (%rax,%rcx,4),%r13
    40b9:	44 8b 8d d0 f9 ff ff 	mov    -0x630(%rbp),%r9d
    40c0:	41 29 d1             	sub    %edx,%r9d
    40c3:	45 85 c9             	test   %r9d,%r9d
    40c6:	0f 8e 88 02 00 00    	jle    4354 <urdhva_indices_test.c.4609593c+0x19e3>
    40cc:	4d 63 d1             	movslq %r9d,%r10
    40cf:	31 c0                	xor    %eax,%eax
    40d1:	41 83 e1 07          	and    $0x7,%r9d
    40d5:	0f 84 3c 01 00 00    	je     4217 <urdhva_indices_test.c.4609593c+0x18a6>
    40db:	49 83 f9 01          	cmp    $0x1,%r9
    40df:	0f 84 04 01 00 00    	je     41e9 <urdhva_indices_test.c.4609593c+0x1878>
    40e5:	49 83 f9 02          	cmp    $0x2,%r9
    40e9:	0f 84 d5 00 00 00    	je     41c4 <urdhva_indices_test.c.4609593c+0x1853>
    40ef:	49 83 f9 03          	cmp    $0x3,%r9
    40f3:	0f 84 a6 00 00 00    	je     419f <urdhva_indices_test.c.4609593c+0x182e>
    40f9:	49 83 f9 04          	cmp    $0x4,%r9
    40fd:	74 7b                	je     417a <urdhva_indices_test.c.4609593c+0x1809>
    40ff:	49 83 f9 05          	cmp    $0x5,%r9
    4103:	74 50                	je     4155 <urdhva_indices_test.c.4609593c+0x17e4>
    4105:	49 83 f9 06          	cmp    $0x6,%r9
    4109:	74 25                	je     4130 <urdhva_indices_test.c.4609593c+0x17bf>
    410b:	45 8b 45 00          	mov    0x0(%r13),%r8d
    410f:	41 0f b7 0e          	movzwl (%r14),%ecx
    4113:	45 8b 0c 24          	mov    (%r12),%r9d
    4117:	31 d2                	xor    %edx,%edx
    4119:	41 39 c8             	cmp    %ecx,%r8d
    411c:	0f 85 5e 03 00 00    	jne    4480 <urdhva_indices_test.c.4609593c+0x1b0f>
    4122:	45 39 c8             	cmp    %r9d,%r8d
    4125:	0f 85 55 03 00 00    	jne    4480 <urdhva_indices_test.c.4609593c+0x1b0f>
    412b:	b8 01 00 00 00       	mov    $0x1,%eax
    4130:	45 8b 44 85 00       	mov    0x0(%r13,%rax,4),%r8d
    4135:	41 0f b7 0c 46       	movzwl (%r14,%rax,2),%ecx
    413a:	45 8b 0c 84          	mov    (%r12,%rax,4),%r9d
    413e:	89 c2                	mov    %eax,%edx
    4140:	41 39 c8             	cmp    %ecx,%r8d
    4143:	0f 85 37 03 00 00    	jne    4480 <urdhva_indices_test.c.4609593c+0x1b0f>
    4149:	45 39 c8             	cmp    %r9d,%r8d
    414c:	0f 85 2e 03 00 00    	jne    4480 <urdhva_indices_test.c.4609593c+0x1b0f>
    4152:	48 ff c0             	inc    %rax
    4155:	45 8b 44 85 00       	mov    0x0(%r13,%rax,4),%r8d
    415a:	41 0f b7 0c 46       	movzwl (%r14,%rax,2),%ecx
    415f:	45 8b 0c 84          	mov    (%r12,%rax,4),%r9d
    4163:	89 c2                	mov    %eax,%edx
    4165:	41 39 c8             	cmp    %ecx,%r8d
    4168:	0f 85 12 03 00 00    	jne    4480 <urdhva_indices_test.c.4609593c+0x1b0f>
    416e:	45 39 c8             	cmp    %r9d,%r8d
    4171:	0f 85 09 03 00 00    	jne    4480 <urdhva_indices_test.c.4609593c+0x1b0f>
    4177:	48 ff c0             	inc    %rax
    417a:	45 8b 44 85 00       	mov    0x0(%r13,%rax,4),%r8d
    417f:	41 0f b7 0c 46       	movzwl (%r14,%rax,2),%ecx
    4184:	45 8b 0c 84          	mov    (%r12,%rax,4),%r9d
    4188:	89 c2                	mov    %eax,%edx
    418a:	41 39 c8             	cmp    %ecx,%r8d
    418d:	0f 85 ed 02 00 00    	jne    4480 <urdhva_indices_test.c.4609593c+0x1b0f>
    4193:	45 39 c8             	cmp    %r9d,%r8d
    4196:	0f 85 e4 02 00 00    	jne    4480 <urdhva_indices_test.c.4609593c+0x1b0f>
    419c:	48 ff c0             	inc    %rax
    419f:	45 8b 44 85 00       	mov    0x0(%r13,%rax,4),%r8d
    41a4:	41 0f b7 0c 46       	movzwl (%r14,%rax,2),%ecx
    41a9:	45 8b 0c 84          	mov    (%r12,%rax,4),%r9d
    41ad:	89 c2                	mov    %eax,%edx
    41af:	41 39 c8             	cmp    %ecx,%r8d
    41b2:	0f 85 c8 02 00 00    	jne    4480 <urdhva_indices_test.c.4609593c+0x1b0f>
    41b8:	45 39 c8             	cmp    %r9d,%r8d
    41bb:	0f 85 bf 02 00 00    	jne    4480 <urdhva_indices_test.c.4609593c+0x1b0f>
    41c1:	48 ff c0             	inc    %rax
    41c4:	45 8b 44 85 00       	mov    0x0(%r13,%rax,4),%r8d
    41c9:	41 0f b7 0c 46       	movzwl (%r14,%rax,2),%ecx
    41ce:	45 8b 0c 84          	mov    (%r12,%rax,4),%r9d
    41d2:	89 c2                	mov    %eax,%edx
    41d4:	41 39 c8             	cmp    %ecx,%r8d
    41d7:	0f 85 a3 02 00 00    	jne    4480 <urdhva_indices_test.c.4609593c+0x1b0f>
    41dd:	45 39 c8             	cmp    %r9d,%r8d
    41e0:	0f 85 9a 02 00 00    	jne    4480 <urdhva_indices_test.c.4609593c+0x1b0f>
    41e6:	48 ff c0             	inc    %rax
    41e9:	45 8b 44 85 00       	mov    0x0(%r13,%rax,4),%r8d
    41ee:	41 0f b7 0c 46       	movzwl (%r14,%rax,2),%ecx
    41f3:	45 8b 0c 84          	mov    (%r12,%rax,4),%r9d
    41f7:	89 c2                	mov    %eax,%edx
    41f9:	41 39 c8             	cmp    %ecx,%r8d
    41fc:	0f 85 7e 02 00 00    	jne    4480 <urdhva_indices_test.c.4609593c+0x1b0f>
    4202:	45 39 c8             	cmp    %r9d,%r8d
    4205:	0f 85 75 02 00 00    	jne    4480 <urdhva_indices_test.c.4609593c+0x1b0f>
    420b:	48 ff c0             	inc    %rax
    420e:	49 39 c2             	cmp    %rax,%r10
    4211:	0f 84 3d 01 00 00    	je     4354 <urdhva_indices_test.c.4609593c+0x19e3>
    4217:	45 8b 44 85 00       	mov    0x0(%r13,%rax,4),%r8d
    421c:	41 0f b7 0c 46       	movzwl (%r14,%rax,2),%ecx
    4221:	45 8b 0c 84          	mov    (%r12,%rax,4),%r9d
    4225:	89 c2                	mov    %eax,%edx
    4227:	41 39 c8             	cmp    %ecx,%r8d
    422a:	0f 85 50 02 00 00    	jne    4480 <urdhva_indices_test.c.4609593c+0x1b0f>
    4230:	45 39 c8             	cmp    %r9d,%r8d
    4233:	0f 85 47 02 00 00    	jne    4480 <urdhva_indices_test.c.4609593c+0x1b0f>
    4239:	48 8d 78 01          	lea    0x1(%rax),%rdi
    423d:	45 8b 44 bd 00       	mov    0x0(%r13,%rdi,4),%r8d
    4242:	41 0f b7 0c 7e       	movzwl (%r14,%rdi,2),%ecx
    4247:	45 8b 0c bc          	mov    (%r12,%rdi,4),%r9d
    424b:	89 fa                	mov    %edi,%edx
    424d:	41 39 c8             	cmp    %ecx,%r8d
    4250:	0f 85 2a 02 00 00    	jne    4480 <urdhva_indices_test.c.4609593c+0x1b0f>
    4256:	45 39 c8             	cmp    %r9d,%r8d
    4259:	0f 85 21 02 00 00    	jne    4480 <urdhva_indices_test.c.4609593c+0x1b0f>
    425f:	4c 8d 78 02          	lea    0x2(%rax),%r15
    4263:	47 8b 44 bd 00       	mov    0x0(%r13,%r15,4),%r8d
    4268:	43 0f b7 0c 7e       	movzwl (%r14,%r15,2),%ecx
    426d:	47 8b 0c bc          	mov    (%r12,%r15,4),%r9d
    4271:	44 89 fa             	mov    %r15d,%edx
    4274:	41 39 c8             	cmp    %ecx,%r8d
    4277:	0f 85 03 02 00 00    	jne    4480 <urdhva_indices_test.c.4609593c+0x1b0f>
    427d:	45 39 c8             	cmp    %r9d,%r8d
    4280:	0f 85 fa 01 00 00    	jne    4480 <urdhva_indices_test.c.4609593c+0x1b0f>
    4286:	4c 8d 58 03          	lea    0x3(%rax),%r11
    428a:	47 8b 44 9d 00       	mov    0x0(%r13,%r11,4),%r8d
    428f:	43 0f b7 0c 5e       	movzwl (%r14,%r11,2),%ecx
    4294:	47 8b 0c 9c          	mov    (%r12,%r11,4),%r9d
    4298:	44 89 da             	mov    %r11d,%edx
    429b:	41 39 c8             	cmp    %ecx,%r8d
    429e:	0f 85 dc 01 00 00    	jne    4480 <urdhva_indices_test.c.4609593c+0x1b0f>
    42a4:	45 39 c8             	cmp    %r9d,%r8d
    42a7:	0f 85 d3 01 00 00    	jne    4480 <urdhva_indices_test.c.4609593c+0x1b0f>
    42ad:	48 83 c0 04          	add    $0x4,%rax
    42b1:	45 8b 44 85 00       	mov    0x0(%r13,%rax,4),%r8d
    42b6:	41 0f b7 0c 46       	movzwl (%r14,%rax,2),%ecx
    42bb:	45 8b 0c 84          	mov    (%r12,%rax,4),%r9d
    42bf:	89 c2                	mov    %eax,%edx
    42c1:	41 39 c8             	cmp    %ecx,%r8d
    42c4:	0f 85 b6 01 00 00    	jne    4480 <urdhva_indices_test.c.4609593c+0x1b0f>
    42ca:	45 39 c8             	cmp    %r9d,%r8d
    42cd:	0f 85 ad 01 00 00    	jne    4480 <urdhva_indices_test.c.4609593c+0x1b0f>
    42d3:	48 8d 47 04          	lea    0x4(%rdi),%rax
    42d7:	45 8b 44 85 00       	mov    0x0(%r13,%rax,4),%r8d
    42dc:	41 0f b7 0c 46       	movzwl (%r14,%rax,2),%ecx
    42e1:	45 8b 0c 84          	mov    (%r12,%rax,4),%r9d
    42e5:	89 c2                	mov    %eax,%edx
    42e7:	41 39 c8             	cmp    %ecx,%r8d
    42ea:	0f 85 90 01 00 00    	jne    4480 <urdhva_indices_test.c.4609593c+0x1b0f>
    42f0:	45 39 c8             	cmp    %r9d,%r8d
    42f3:	0f 85 87 01 00 00    	jne    4480 <urdhva_indices_test.c.4609593c+0x1b0f>
    42f9:	4c 8d 4f 05          	lea    0x5(%rdi),%r9
    42fd:	47 8b 44 8d 00       	mov    0x0(%r13,%r9,4),%r8d
    4302:	43 0f b7 0c 4e       	movzwl (%r14,%r9,2),%ecx
    4307:	44 89 ca             	mov    %r9d,%edx
    430a:	47 8b 0c 8c          	mov    (%r12,%r9,4),%r9d
    430e:	41 39 c8             	cmp    %ecx,%r8d
    4311:	0f 85 69 01 00 00    	jne    4480 <urdhva_indices_test.c.4609593c+0x1b0f>
    4317:	45 39 c8             	cmp    %r9d,%r8d
    431a:	0f 85 60 01 00 00    	jne    4480 <urdhva_indices_test.c.4609593c+0x1b0f>
    4320:	4c 8d 7f 06          	lea    0x6(%rdi),%r15
    4324:	47 8b 44 bd 00       	mov    0x0(%r13,%r15,4),%r8d
    4329:	43 0f b7 0c 7e       	movzwl (%r14,%r15,2),%ecx
    432e:	47 8b 0c bc          	mov    (%r12,%r15,4),%r9d
    4332:	44 89 fa             	mov    %r15d,%edx
    4335:	41 39 c8             	cmp    %ecx,%r8d
    4338:	0f 85 42 01 00 00    	jne    4480 <urdhva_indices_test.c.4609593c+0x1b0f>
    433e:	45 39 c8             	cmp    %r9d,%r8d
    4341:	0f 85 39 01 00 00    	jne    4480 <urdhva_indices_test.c.4609593c+0x1b0f>
    4347:	48 8d 47 07          	lea    0x7(%rdi),%rax
    434b:	49 39 c2             	cmp    %rax,%r10
    434e:	0f 85 c3 fe ff ff    	jne    4217 <urdhva_indices_test.c.4609593c+0x18a6>
    4354:	44 8b b5 2c f9 ff ff 	mov    -0x6d4(%rbp),%r14d
    435b:	48 8d 35 03 1e 00 00 	lea    0x1e03(%rip),%rsi        # 6165 <_IO_stdin_used+0x165>
    4362:	44 89 f3             	mov    %r14d,%ebx
    4365:	44 89 f2             	mov    %r14d,%edx
    4368:	bf 01 00 00 00       	mov    $0x1,%edi
    436d:	31 c0                	xor    %eax,%eax
    436f:	ff c3                	inc    %ebx
    4371:	e8 aa d0 ff ff       	call   1420 <__printf_chk@plt>
    4376:	89 9d 2c f9 ff ff    	mov    %ebx,-0x6d4(%rbp)
    437c:	81 fb e8 03 00 00    	cmp    $0x3e8,%ebx
    4382:	0f 85 19 d5 ff ff    	jne    18a1 <main+0x401>
    4388:	48 8b bd 80 f9 ff ff 	mov    -0x680(%rbp),%rdi
    438f:	45 31 e4             	xor    %r12d,%r12d
    4392:	e8 49 cf ff ff       	call   12e0 <fclose@plt>
    4397:	48 8b bd 78 f9 ff ff 	mov    -0x688(%rbp),%rdi
    439e:	e8 3d cf ff ff       	call   12e0 <fclose@plt>
    43a3:	48 8b b5 a0 f9 ff ff 	mov    -0x660(%rbp),%rsi
    43aa:	42 8b 3c a6          	mov    (%rsi,%r12,4),%edi
    43ae:	49 ff c4             	inc    %r12
    43b1:	e8 ba cf ff ff       	call   1370 <close@plt>
    43b6:	49 83 fc 07          	cmp    $0x7,%r12
    43ba:	75 e7                	jne    43a3 <urdhva_indices_test.c.4609593c+0x1a32>
    43bc:	31 c0                	xor    %eax,%eax
    43be:	e9 33 06 00 00       	jmp    49f6 <urdhva_indices_test.c.4609593c+0x2085>
    43c3:	0f 1f 44 00 00       	nopl   0x0(%rax,%rax,1)
    43c8:	4c 8b 8d d0 f9 ff ff 	mov    -0x630(%rbp),%r9
    43cf:	48 8b bd c8 f9 ff ff 	mov    -0x638(%rbp),%rdi
    43d6:	45 31 d2             	xor    %r10d,%r10d
    43d9:	66 41 89 04 19       	mov    %ax,(%r9,%rbx,1)
    43de:	66 44 89 54 1f fe    	mov    %r10w,-0x2(%rdi,%rbx,1)
    43e4:	41 ff c6             	inc    %r14d
    43e7:	48 83 c3 02          	add    $0x2,%rbx
    43eb:	49 83 c5 02          	add    $0x2,%r13
    43ef:	83 bd a8 f9 ff ff 01 	cmpl   $0x1,-0x658(%rbp)
    43f6:	0f 84 30 06 00 00    	je     4a2c <urdhva_indices_test.c.4609593c+0x20bb>
    43fc:	41 b9 01 00 00 00    	mov    $0x1,%r9d
    4402:	e9 e1 e0 ff ff       	jmp    24e8 <main+0x1048>
    4407:	66 0f 1f 84 00 00 00 	nopw   0x0(%rax,%rax,1)
    440e:	00 00 
    4410:	48 8b 8d d0 f9 ff ff 	mov    -0x630(%rbp),%rcx
    4417:	4c 8b 85 c8 f9 ff ff 	mov    -0x638(%rbp),%r8
    441e:	31 f6                	xor    %esi,%esi
    4420:	66 42 89 04 59       	mov    %ax,(%rcx,%r11,2)
    4425:	66 43 89 74 58 fe    	mov    %si,-0x2(%r8,%r11,2)
    442b:	49 ff c3             	inc    %r11
    442e:	41 ff c1             	inc    %r9d
    4431:	44 39 9d b8 f9 ff ff 	cmp    %r11d,-0x648(%rbp)
    4438:	0f 8f 7a e5 ff ff    	jg     29b8 <urdhva_indices_test.c.4609593c+0x47>
    443e:	e9 d8 e9 ff ff       	jmp    2e1b <urdhva_indices_test.c.4609593c+0x4aa>
    4443:	0f 1f 44 00 00       	nopl   0x0(%rax,%rax,1)
    4448:	45 31 c9             	xor    %r9d,%r9d
    444b:	e9 2e e5 ff ff       	jmp    297e <urdhva_indices_test.c.4609593c+0xd>
    4450:	31 c0                	xor    %eax,%eax
    4452:	e9 c0 e4 ff ff       	jmp    2917 <main+0x1477>
    4457:	66 0f 1f 84 00 00 00 	nopw   0x0(%rax,%rax,1)
    445e:	00 00 
    4460:	31 c0                	xor    %eax,%eax
    4462:	e9 67 e9 ff ff       	jmp    2dce <urdhva_indices_test.c.4609593c+0x45d>
    4467:	49 89 d8             	mov    %rbx,%r8
    446a:	31 d2                	xor    %edx,%edx
    446c:	31 f6                	xor    %esi,%esi
    446e:	31 c0                	xor    %eax,%eax
    4470:	e9 4e e8 ff ff       	jmp    2cc3 <urdhva_indices_test.c.4609593c+0x352>
    4475:	31 d2                	xor    %edx,%edx
    4477:	31 f6                	xor    %esi,%esi
    4479:	31 c0                	xor    %eax,%eax
    447b:	e9 85 e3 ff ff       	jmp    2805 <main+0x1365>
    4480:	89 9d c0 f9 ff ff    	mov    %ebx,-0x640(%rbp)
    4486:	4c 89 f3             	mov    %r14,%rbx
    4489:	44 8b b5 c8 f9 ff ff 	mov    -0x638(%rbp),%r14d
    4490:	bf 01 00 00 00       	mov    $0x1,%edi
    4495:	31 c0                	xor    %eax,%eax
    4497:	41 89 f7             	mov    %esi,%r15d
    449a:	48 8d 35 77 1e 00 00 	lea    0x1e77(%rip),%rsi        # 6318 <_IO_stdin_used+0x318>
    44a1:	44 2b b5 d8 f9 ff ff 	sub    -0x628(%rbp),%r14d
    44a8:	e8 73 cf ff ff       	call   1420 <__printf_chk@plt>
    44ad:	31 c0                	xor    %eax,%eax
    44af:	48 8d 35 58 1c 00 00 	lea    0x1c58(%rip),%rsi        # 610e <_IO_stdin_used+0x10e>
    44b6:	bf 01 00 00 00       	mov    $0x1,%edi
    44bb:	e8 60 cf ff ff       	call   1420 <__printf_chk@plt>
    44c0:	45 85 f6             	test   %r14d,%r14d
    44c3:	0f 8e ca 08 00 00    	jle    4d93 <urdhva_indices_test.c.4609593c+0x2422>
    44c9:	45 8d 46 ff          	lea    -0x1(%r14),%r8d
    44cd:	48 8d 53 02          	lea    0x2(%rbx),%rdx
    44d1:	4a 8d 0c 42          	lea    (%rdx,%r8,2),%rcx
    44d5:	48 89 8d d8 f9 ff ff 	mov    %rcx,-0x628(%rbp)
    44dc:	48 29 d9             	sub    %rbx,%rcx
    44df:	48 83 e9 02          	sub    $0x2,%rcx
    44e3:	48 d1 e9             	shr    %rcx
    44e6:	48 ff c1             	inc    %rcx
    44e9:	4c 8d 35 46 1c 00 00 	lea    0x1c46(%rip),%r14        # 6136 <_IO_stdin_used+0x136>
    44f0:	83 e1 07             	and    $0x7,%ecx
    44f3:	0f 84 bd 00 00 00    	je     45b6 <urdhva_indices_test.c.4609593c+0x1c45>
    44f9:	48 83 f9 01          	cmp    $0x1,%rcx
    44fd:	0f 84 90 00 00 00    	je     4593 <urdhva_indices_test.c.4609593c+0x1c22>
    4503:	48 83 f9 02          	cmp    $0x2,%rcx
    4507:	74 74                	je     457d <urdhva_indices_test.c.4609593c+0x1c0c>
    4509:	48 83 f9 03          	cmp    $0x3,%rcx
    450d:	74 58                	je     4567 <urdhva_indices_test.c.4609593c+0x1bf6>
    450f:	48 83 f9 04          	cmp    $0x4,%rcx
    4513:	74 3c                	je     4551 <urdhva_indices_test.c.4609593c+0x1be0>
    4515:	48 83 f9 05          	cmp    $0x5,%rcx
    4519:	74 20                	je     453b <urdhva_indices_test.c.4609593c+0x1bca>
    451b:	48 83 f9 06          	cmp    $0x6,%rcx
    451f:	0f 85 6b 07 00 00    	jne    4c90 <urdhva_indices_test.c.4609593c+0x231f>
    4525:	0f b7 13             	movzwl (%rbx),%edx
    4528:	4c 89 f6             	mov    %r14,%rsi
    452b:	bf 01 00 00 00       	mov    $0x1,%edi
    4530:	31 c0                	xor    %eax,%eax
    4532:	e8 e9 ce ff ff       	call   1420 <__printf_chk@plt>
    4537:	48 83 c3 02          	add    $0x2,%rbx
    453b:	0f b7 13             	movzwl (%rbx),%edx
    453e:	4c 89 f6             	mov    %r14,%rsi
    4541:	bf 01 00 00 00       	mov    $0x1,%edi
    4546:	31 c0                	xor    %eax,%eax
    4548:	e8 d3 ce ff ff       	call   1420 <__printf_chk@plt>
    454d:	48 83 c3 02          	add    $0x2,%rbx
    4551:	0f b7 13             	movzwl (%rbx),%edx
    4554:	4c 89 f6             	mov    %r14,%rsi
    4557:	bf 01 00 00 00       	mov    $0x1,%edi
    455c:	31 c0                	xor    %eax,%eax
    455e:	e8 bd ce ff ff       	call   1420 <__printf_chk@plt>
    4563:	48 83 c3 02          	add    $0x2,%rbx
    4567:	0f b7 13             	movzwl (%rbx),%edx
    456a:	4c 89 f6             	mov    %r14,%rsi
    456d:	bf 01 00 00 00       	mov    $0x1,%edi
    4572:	31 c0                	xor    %eax,%eax
    4574:	e8 a7 ce ff ff       	call   1420 <__printf_chk@plt>
    4579:	48 83 c3 02          	add    $0x2,%rbx
    457d:	0f b7 13             	movzwl (%rbx),%edx
    4580:	4c 89 f6             	mov    %r14,%rsi
    4583:	bf 01 00 00 00       	mov    $0x1,%edi
    4588:	31 c0                	xor    %eax,%eax
    458a:	e8 91 ce ff ff       	call   1420 <__printf_chk@plt>
    458f:	48 83 c3 02          	add    $0x2,%rbx
    4593:	0f b7 13             	movzwl (%rbx),%edx
    4596:	4c 89 f6             	mov    %r14,%rsi
    4599:	bf 01 00 00 00       	mov    $0x1,%edi
    459e:	31 c0                	xor    %eax,%eax
    45a0:	48 83 c3 02          	add    $0x2,%rbx
    45a4:	e8 77 ce ff ff       	call   1420 <__printf_chk@plt>
    45a9:	48 39 9d d8 f9 ff ff 	cmp    %rbx,-0x628(%rbp)
    45b0:	0f 84 a8 00 00 00    	je     465e <urdhva_indices_test.c.4609593c+0x1ced>
    45b6:	0f b7 13             	movzwl (%rbx),%edx
    45b9:	4c 89 f6             	mov    %r14,%rsi
    45bc:	bf 01 00 00 00       	mov    $0x1,%edi
    45c1:	31 c0                	xor    %eax,%eax
    45c3:	e8 58 ce ff ff       	call   1420 <__printf_chk@plt>
    45c8:	0f b7 53 02          	movzwl 0x2(%rbx),%edx
    45cc:	4c 89 f6             	mov    %r14,%rsi
    45cf:	bf 01 00 00 00       	mov    $0x1,%edi
    45d4:	31 c0                	xor    %eax,%eax
    45d6:	e8 45 ce ff ff       	call   1420 <__printf_chk@plt>
    45db:	0f b7 53 04          	movzwl 0x4(%rbx),%edx
    45df:	4c 89 f6             	mov    %r14,%rsi
    45e2:	bf 01 00 00 00       	mov    $0x1,%edi
    45e7:	31 c0                	xor    %eax,%eax
    45e9:	e8 32 ce ff ff       	call   1420 <__printf_chk@plt>
    45ee:	0f b7 53 06          	movzwl 0x6(%rbx),%edx
    45f2:	4c 89 f6             	mov    %r14,%rsi
    45f5:	bf 01 00 00 00       	mov    $0x1,%edi
    45fa:	31 c0                	xor    %eax,%eax
    45fc:	e8 1f ce ff ff       	call   1420 <__printf_chk@plt>
    4601:	0f b7 53 08          	movzwl 0x8(%rbx),%edx
    4605:	4c 89 f6             	mov    %r14,%rsi
    4608:	bf 01 00 00 00       	mov    $0x1,%edi
    460d:	31 c0                	xor    %eax,%eax
    460f:	e8 0c ce ff ff       	call   1420 <__printf_chk@plt>
    4614:	0f b7 53 0a          	movzwl 0xa(%rbx),%edx
    4618:	4c 89 f6             	mov    %r14,%rsi
    461b:	bf 01 00 00 00       	mov    $0x1,%edi
    4620:	31 c0                	xor    %eax,%eax
    4622:	e8 f9 cd ff ff       	call   1420 <__printf_chk@plt>
    4627:	0f b7 53 0c          	movzwl 0xc(%rbx),%edx
    462b:	4c 89 f6             	mov    %r14,%rsi
    462e:	bf 01 00 00 00       	mov    $0x1,%edi
    4633:	31 c0                	xor    %eax,%eax
    4635:	e8 e6 cd ff ff       	call   1420 <__printf_chk@plt>
    463a:	0f b7 53 0e          	movzwl 0xe(%rbx),%edx
    463e:	4c 89 f6             	mov    %r14,%rsi
    4641:	bf 01 00 00 00       	mov    $0x1,%edi
    4646:	31 c0                	xor    %eax,%eax
    4648:	48 83 c3 10          	add    $0x10,%rbx
    464c:	e8 cf cd ff ff       	call   1420 <__printf_chk@plt>
    4651:	48 39 9d d8 f9 ff ff 	cmp    %rbx,-0x628(%rbp)
    4658:	0f 85 58 ff ff ff    	jne    45b6 <urdhva_indices_test.c.4609593c+0x1c45>
    465e:	bf 0a 00 00 00       	mov    $0xa,%edi
    4663:	e8 38 cc ff ff       	call   12a0 <putchar@plt>
    4668:	48 8d 3d b0 1a 00 00 	lea    0x1ab0(%rip),%rdi        # 611f <_IO_stdin_used+0x11f>
    466f:	e8 4c cc ff ff       	call   12c0 <puts@plt>
    4674:	8b 8d d0 f9 ff ff    	mov    -0x630(%rbp),%ecx
    467a:	41 8b 55 00          	mov    0x0(%r13),%edx
    467e:	ff c9                	dec    %ecx
    4680:	41 89 ca             	mov    %ecx,%r10d
    4683:	41 83 e2 07          	and    $0x7,%r10d
    4687:	bf 01 00 00 00       	mov    $0x1,%edi
    468c:	31 c0                	xor    %eax,%eax
    468e:	4c 89 f6             	mov    %r14,%rsi
    4691:	44 89 95 d8 f9 ff ff 	mov    %r10d,-0x628(%rbp)
    4698:	e8 83 cd ff ff       	call   1420 <__printf_chk@plt>
    469d:	83 bd d0 f9 ff ff 01 	cmpl   $0x1,-0x630(%rbp)
    46a4:	8b bd d8 f9 ff ff    	mov    -0x628(%rbp),%edi
    46aa:	bb 01 00 00 00       	mov    $0x1,%ebx
    46af:	0f 8e 74 01 00 00    	jle    4829 <urdhva_indices_test.c.4609593c+0x1eb8>
    46b5:	85 ff                	test   %edi,%edi
    46b7:	0f 84 bc 00 00 00    	je     4779 <urdhva_indices_test.c.4609593c+0x1e08>
    46bd:	83 ff 01             	cmp    $0x1,%edi
    46c0:	0f 84 90 00 00 00    	je     4756 <urdhva_indices_test.c.4609593c+0x1de5>
    46c6:	83 ff 02             	cmp    $0x2,%edi
    46c9:	74 74                	je     473f <urdhva_indices_test.c.4609593c+0x1dce>
    46cb:	83 ff 03             	cmp    $0x3,%edi
    46ce:	74 58                	je     4728 <urdhva_indices_test.c.4609593c+0x1db7>
    46d0:	83 ff 04             	cmp    $0x4,%edi
    46d3:	74 3c                	je     4711 <urdhva_indices_test.c.4609593c+0x1da0>
    46d5:	83 ff 05             	cmp    $0x5,%edi
    46d8:	74 20                	je     46fa <urdhva_indices_test.c.4609593c+0x1d89>
    46da:	83 ff 06             	cmp    $0x6,%edi
    46dd:	0f 85 d2 05 00 00    	jne    4cb5 <urdhva_indices_test.c.4609593c+0x2344>
    46e3:	41 8b 54 9d 00       	mov    0x0(%r13,%rbx,4),%edx
    46e8:	4c 89 f6             	mov    %r14,%rsi
    46eb:	bf 01 00 00 00       	mov    $0x1,%edi
    46f0:	31 c0                	xor    %eax,%eax
    46f2:	e8 29 cd ff ff       	call   1420 <__printf_chk@plt>
    46f7:	48 ff c3             	inc    %rbx
    46fa:	41 8b 54 9d 00       	mov    0x0(%r13,%rbx,4),%edx
    46ff:	4c 89 f6             	mov    %r14,%rsi
    4702:	bf 01 00 00 00       	mov    $0x1,%edi
    4707:	31 c0                	xor    %eax,%eax
    4709:	e8 12 cd ff ff       	call   1420 <__printf_chk@plt>
    470e:	48 ff c3             	inc    %rbx
    4711:	41 8b 54 9d 00       	mov    0x0(%r13,%rbx,4),%edx
    4716:	4c 89 f6             	mov    %r14,%rsi
    4719:	bf 01 00 00 00       	mov    $0x1,%edi
    471e:	31 c0                	xor    %eax,%eax
    4720:	e8 fb cc ff ff       	call   1420 <__printf_chk@plt>
    4725:	48 ff c3             	inc    %rbx
    4728:	41 8b 54 9d 00       	mov    0x0(%r13,%rbx,4),%edx
    472d:	4c 89 f6             	mov    %r14,%rsi
    4730:	bf 01 00 00 00       	mov    $0x1,%edi
    4735:	31 c0                	xor    %eax,%eax
    4737:	e8 e4 cc ff ff       	call   1420 <__printf_chk@plt>
    473c:	48 ff c3             	inc    %rbx
    473f:	41 8b 54 9d 00       	mov    0x0(%r13,%rbx,4),%edx
    4744:	4c 89 f6             	mov    %r14,%rsi
    4747:	bf 01 00 00 00       	mov    $0x1,%edi
    474c:	31 c0                	xor    %eax,%eax
    474e:	e8 cd cc ff ff       	call   1420 <__printf_chk@plt>
    4753:	48 ff c3             	inc    %rbx
    4756:	41 8b 54 9d 00       	mov    0x0(%r13,%rbx,4),%edx
    475b:	4c 89 f6             	mov    %r14,%rsi
    475e:	bf 01 00 00 00       	mov    $0x1,%edi
    4763:	31 c0                	xor    %eax,%eax
    4765:	48 ff c3             	inc    %rbx
    4768:	e8 b3 cc ff ff       	call   1420 <__printf_chk@plt>
    476d:	39 9d d0 f9 ff ff    	cmp    %ebx,-0x630(%rbp)
    4773:	0f 8e b0 00 00 00    	jle    4829 <urdhva_indices_test.c.4609593c+0x1eb8>
    4779:	41 8b 54 9d 00       	mov    0x0(%r13,%rbx,4),%edx
    477e:	4c 89 f6             	mov    %r14,%rsi
    4781:	bf 01 00 00 00       	mov    $0x1,%edi
    4786:	31 c0                	xor    %eax,%eax
    4788:	e8 93 cc ff ff       	call   1420 <__printf_chk@plt>
    478d:	41 8b 54 9d 04       	mov    0x4(%r13,%rbx,4),%edx
    4792:	4c 89 f6             	mov    %r14,%rsi
    4795:	bf 01 00 00 00       	mov    $0x1,%edi
    479a:	31 c0                	xor    %eax,%eax
    479c:	e8 7f cc ff ff       	call   1420 <__printf_chk@plt>
    47a1:	41 8b 54 9d 08       	mov    0x8(%r13,%rbx,4),%edx
    47a6:	4c 89 f6             	mov    %r14,%rsi
    47a9:	bf 01 00 00 00       	mov    $0x1,%edi
    47ae:	31 c0                	xor    %eax,%eax
    47b0:	e8 6b cc ff ff       	call   1420 <__printf_chk@plt>
    47b5:	41 8b 54 9d 0c       	mov    0xc(%r13,%rbx,4),%edx
    47ba:	4c 89 f6             	mov    %r14,%rsi
    47bd:	bf 01 00 00 00       	mov    $0x1,%edi
    47c2:	31 c0                	xor    %eax,%eax
    47c4:	e8 57 cc ff ff       	call   1420 <__printf_chk@plt>
    47c9:	41 8b 54 9d 10       	mov    0x10(%r13,%rbx,4),%edx
    47ce:	4c 89 f6             	mov    %r14,%rsi
    47d1:	bf 01 00 00 00       	mov    $0x1,%edi
    47d6:	31 c0                	xor    %eax,%eax
    47d8:	e8 43 cc ff ff       	call   1420 <__printf_chk@plt>
    47dd:	41 8b 54 9d 14       	mov    0x14(%r13,%rbx,4),%edx
    47e2:	4c 89 f6             	mov    %r14,%rsi
    47e5:	bf 01 00 00 00       	mov    $0x1,%edi
    47ea:	31 c0                	xor    %eax,%eax
    47ec:	e8 2f cc ff ff       	call   1420 <__printf_chk@plt>
    47f1:	41 8b 54 9d 18       	mov    0x18(%r13,%rbx,4),%edx
    47f6:	4c 89 f6             	mov    %r14,%rsi
    47f9:	bf 01 00 00 00       	mov    $0x1,%edi
    47fe:	31 c0                	xor    %eax,%eax
    4800:	e8 1b cc ff ff       	call   1420 <__printf_chk@plt>
    4805:	41 8b 54 9d 1c       	mov    0x1c(%r13,%rbx,4),%edx
    480a:	4c 89 f6             	mov    %r14,%rsi
    480d:	bf 01 00 00 00       	mov    $0x1,%edi
    4812:	31 c0                	xor    %eax,%eax
    4814:	48 83 c3 08          	add    $0x8,%rbx
    4818:	e8 03 cc ff ff       	call   1420 <__printf_chk@plt>
    481d:	39 9d d0 f9 ff ff    	cmp    %ebx,-0x630(%rbp)
    4823:	0f 8f 50 ff ff ff    	jg     4779 <urdhva_indices_test.c.4609593c+0x1e08>
    4829:	44 8b ad c0 f9 ff ff 	mov    -0x640(%rbp),%r13d
    4830:	bf 0a 00 00 00       	mov    $0xa,%edi
    4835:	e8 66 ca ff ff       	call   12a0 <putchar@plt>
    483a:	45 29 fd             	sub    %r15d,%r13d
    483d:	48 8d 3d f5 18 00 00 	lea    0x18f5(%rip),%rdi        # 6139 <_IO_stdin_used+0x139>
    4844:	e8 77 ca ff ff       	call   12c0 <puts@plt>
    4849:	45 85 ed             	test   %r13d,%r13d
    484c:	0f 8e 93 01 00 00    	jle    49e5 <urdhva_indices_test.c.4609593c+0x2074>
    4852:	45 8d 5d ff          	lea    -0x1(%r13),%r11d
    4856:	4d 8d 7c 24 04       	lea    0x4(%r12),%r15
    485b:	4b 8d 1c 9f          	lea    (%r15,%r11,4),%rbx
    485f:	49 89 d9             	mov    %rbx,%r9
    4862:	4d 29 e1             	sub    %r12,%r9
    4865:	49 83 e9 04          	sub    $0x4,%r9
    4869:	49 c1 e9 02          	shr    $0x2,%r9
    486d:	49 ff c1             	inc    %r9
    4870:	41 83 e1 07          	and    $0x7,%r9d
    4874:	0f 84 bf 00 00 00    	je     4939 <urdhva_indices_test.c.4609593c+0x1fc8>
    487a:	49 83 f9 01          	cmp    $0x1,%r9
    487e:	0f 84 95 00 00 00    	je     4919 <urdhva_indices_test.c.4609593c+0x1fa8>
    4884:	49 83 f9 02          	cmp    $0x2,%r9
    4888:	74 78                	je     4902 <urdhva_indices_test.c.4609593c+0x1f91>
    488a:	49 83 f9 03          	cmp    $0x3,%r9
    488e:	74 5b                	je     48eb <urdhva_indices_test.c.4609593c+0x1f7a>
    4890:	49 83 f9 04          	cmp    $0x4,%r9
    4894:	74 3e                	je     48d4 <urdhva_indices_test.c.4609593c+0x1f63>
    4896:	49 83 f9 05          	cmp    $0x5,%r9
    489a:	74 21                	je     48bd <urdhva_indices_test.c.4609593c+0x1f4c>
    489c:	49 83 f9 06          	cmp    $0x6,%r9
    48a0:	0f 85 cf 03 00 00    	jne    4c75 <urdhva_indices_test.c.4609593c+0x2304>
    48a6:	41 8b 14 24          	mov    (%r12),%edx
    48aa:	4c 89 f6             	mov    %r14,%rsi
    48ad:	bf 01 00 00 00       	mov    $0x1,%edi
    48b2:	31 c0                	xor    %eax,%eax
    48b4:	e8 67 cb ff ff       	call   1420 <__printf_chk@plt>
    48b9:	49 83 c4 04          	add    $0x4,%r12
    48bd:	41 8b 14 24          	mov    (%r12),%edx
    48c1:	4c 89 f6             	mov    %r14,%rsi
    48c4:	bf 01 00 00 00       	mov    $0x1,%edi
    48c9:	31 c0                	xor    %eax,%eax
    48cb:	e8 50 cb ff ff       	call   1420 <__printf_chk@plt>
    48d0:	49 83 c4 04          	add    $0x4,%r12
    48d4:	41 8b 14 24          	mov    (%r12),%edx
    48d8:	4c 89 f6             	mov    %r14,%rsi
    48db:	bf 01 00 00 00       	mov    $0x1,%edi
    48e0:	31 c0                	xor    %eax,%eax
    48e2:	e8 39 cb ff ff       	call   1420 <__printf_chk@plt>
    48e7:	49 83 c4 04          	add    $0x4,%r12
    48eb:	41 8b 14 24          	mov    (%r12),%edx
    48ef:	4c 89 f6             	mov    %r14,%rsi
    48f2:	bf 01 00 00 00       	mov    $0x1,%edi
    48f7:	31 c0                	xor    %eax,%eax
    48f9:	e8 22 cb ff ff       	call   1420 <__printf_chk@plt>
    48fe:	49 83 c4 04          	add    $0x4,%r12
    4902:	41 8b 14 24          	mov    (%r12),%edx
    4906:	4c 89 f6             	mov    %r14,%rsi
    4909:	bf 01 00 00 00       	mov    $0x1,%edi
    490e:	31 c0                	xor    %eax,%eax
    4910:	e8 0b cb ff ff       	call   1420 <__printf_chk@plt>
    4915:	49 83 c4 04          	add    $0x4,%r12
    4919:	41 8b 14 24          	mov    (%r12),%edx
    491d:	4c 89 f6             	mov    %r14,%rsi
    4920:	bf 01 00 00 00       	mov    $0x1,%edi
    4925:	31 c0                	xor    %eax,%eax
    4927:	49 83 c4 04          	add    $0x4,%r12
    492b:	e8 f0 ca ff ff       	call   1420 <__printf_chk@plt>
    4930:	4c 39 e3             	cmp    %r12,%rbx
    4933:	0f 84 ac 00 00 00    	je     49e5 <urdhva_indices_test.c.4609593c+0x2074>
    4939:	41 8b 14 24          	mov    (%r12),%edx
    493d:	4c 89 f6             	mov    %r14,%rsi
    4940:	bf 01 00 00 00       	mov    $0x1,%edi
    4945:	31 c0                	xor    %eax,%eax
    4947:	e8 d4 ca ff ff       	call   1420 <__printf_chk@plt>
    494c:	41 8b 54 24 04       	mov    0x4(%r12),%edx
    4951:	4c 89 f6             	mov    %r14,%rsi
    4954:	bf 01 00 00 00       	mov    $0x1,%edi
    4959:	31 c0                	xor    %eax,%eax
    495b:	e8 c0 ca ff ff       	call   1420 <__printf_chk@plt>
    4960:	41 8b 54 24 08       	mov    0x8(%r12),%edx
    4965:	4c 89 f6             	mov    %r14,%rsi
    4968:	bf 01 00 00 00       	mov    $0x1,%edi
    496d:	31 c0                	xor    %eax,%eax
    496f:	e8 ac ca ff ff       	call   1420 <__printf_chk@plt>
    4974:	41 8b 54 24 0c       	mov    0xc(%r12),%edx
    4979:	4c 89 f6             	mov    %r14,%rsi
    497c:	bf 01 00 00 00       	mov    $0x1,%edi
    4981:	31 c0                	xor    %eax,%eax
    4983:	e8 98 ca ff ff       	call   1420 <__printf_chk@plt>
    4988:	41 8b 54 24 10       	mov    0x10(%r12),%edx
    498d:	4c 89 f6             	mov    %r14,%rsi
    4990:	bf 01 00 00 00       	mov    $0x1,%edi
    4995:	31 c0                	xor    %eax,%eax
    4997:	e8 84 ca ff ff       	call   1420 <__printf_chk@plt>
    499c:	41 8b 54 24 14       	mov    0x14(%r12),%edx
    49a1:	4c 89 f6             	mov    %r14,%rsi
    49a4:	bf 01 00 00 00       	mov    $0x1,%edi
    49a9:	31 c0                	xor    %eax,%eax
    49ab:	e8 70 ca ff ff       	call   1420 <__printf_chk@plt>
    49b0:	41 8b 54 24 18       	mov    0x18(%r12),%edx
    49b5:	4c 89 f6             	mov    %r14,%rsi
    49b8:	bf 01 00 00 00       	mov    $0x1,%edi
    49bd:	31 c0                	xor    %eax,%eax
    49bf:	e8 5c ca ff ff       	call   1420 <__printf_chk@plt>
    49c4:	41 8b 54 24 1c       	mov    0x1c(%r12),%edx
    49c9:	4c 89 f6             	mov    %r14,%rsi
    49cc:	bf 01 00 00 00       	mov    $0x1,%edi
    49d1:	31 c0                	xor    %eax,%eax
    49d3:	49 83 c4 20          	add    $0x20,%r12
    49d7:	e8 44 ca ff ff       	call   1420 <__printf_chk@plt>
    49dc:	4c 39 e3             	cmp    %r12,%rbx
    49df:	0f 85 54 ff ff ff    	jne    4939 <urdhva_indices_test.c.4609593c+0x1fc8>
    49e5:	48 8d 3d 5b 17 00 00 	lea    0x175b(%rip),%rdi        # 6147 <_IO_stdin_used+0x147>
    49ec:	e8 cf c8 ff ff       	call   12c0 <puts@plt>
    49f1:	b8 01 00 00 00       	mov    $0x1,%eax
    49f6:	48 8b 55 c8          	mov    -0x38(%rbp),%rdx
    49fa:	64 48 2b 14 25 28 00 	sub    %fs:0x28,%rdx
    4a01:	00 00 
    4a03:	0f 85 71 04 00 00    	jne    4e7a <urdhva_indices_test.c.4609593c+0x2509>
    4a09:	48 8d 65 d0          	lea    -0x30(%rbp),%rsp
    4a0d:	5b                   	pop    %rbx
    4a0e:	5e                   	pop    %rsi
    4a0f:	41 5c                	pop    %r12
    4a11:	41 5d                	pop    %r13
    4a13:	41 5e                	pop    %r14
    4a15:	41 5f                	pop    %r15
    4a17:	5d                   	pop    %rbp
    4a18:	48 8d 66 f8          	lea    -0x8(%rsi),%rsp
    4a1c:	c3                   	ret    
    4a1d:	44 89 ad c8 f9 ff ff 	mov    %r13d,-0x638(%rbp)
    4a24:	4c 89 d6             	mov    %r10,%rsi
    4a27:	e9 73 e7 ff ff       	jmp    319f <urdhva_indices_test.c.4609593c+0x82e>
    4a2c:	4c 8b bd 38 f9 ff ff 	mov    -0x6c8(%rbp),%r15
    4a33:	41 b9 01 00 00 00    	mov    $0x1,%r9d
    4a39:	e9 33 df ff ff       	jmp    2971 <urdhva_indices_test.c.4609593c>
    4a3e:	89 85 d8 f9 ff ff    	mov    %eax,-0x628(%rbp)
    4a44:	e9 1f e9 ff ff       	jmp    3368 <urdhva_indices_test.c.4609593c+0x9f7>
    4a49:	be 04 00 00 00       	mov    $0x4,%esi
    4a4e:	4c 89 e7             	mov    %r12,%rdi
    4a51:	c5 f8 77             	vzeroupper 
    4a54:	e8 67 c9 ff ff       	call   13c0 <calloc@plt>
    4a59:	49 89 c5             	mov    %rax,%r13
    4a5c:	48 85 c0             	test   %rax,%rax
    4a5f:	0f 84 d8 03 00 00    	je     4e3d <urdhva_indices_test.c.4609593c+0x24cc>
    4a65:	44 89 f0             	mov    %r14d,%eax
    4a68:	ff c8                	dec    %eax
    4a6a:	78 28                	js     4a94 <urdhva_indices_test.c.4609593c+0x2123>
    4a6c:	89 c6                	mov    %eax,%esi
    4a6e:	4c 6b c6 fc          	imul   $0xfffffffffffffffc,%rsi,%r8
    4a72:	48 98                	cltq   
    4a74:	48 8d 14 b5 04 00 00 	lea    0x4(,%rsi,4),%rdx
    4a7b:	00 
    4a7c:	4b 8d 7c a0 fc       	lea    -0x4(%r8,%r12,4),%rdi
    4a81:	49 8d 34 80          	lea    (%r8,%rax,4),%rsi
    4a85:	4c 01 ef             	add    %r13,%rdi
    4a88:	48 03 b5 b0 f9 ff ff 	add    -0x650(%rbp),%rsi
    4a8f:	e8 4c c9 ff ff       	call   13e0 <memcpy@plt>
    4a94:	89 df                	mov    %ebx,%edi
    4a96:	44 29 f7             	sub    %r14d,%edi
    4a99:	48 63 d7             	movslq %edi,%rdx
    4a9c:	48 c1 e2 02          	shl    $0x2,%rdx
    4aa0:	31 f6                	xor    %esi,%esi
    4aa2:	4c 89 ef             	mov    %r13,%rdi
    4aa5:	e8 a6 c8 ff ff       	call   1350 <memset@plt>
    4aaa:	bf 0a 00 00 00       	mov    $0xa,%edi
    4aaf:	e8 ec c7 ff ff       	call   12a0 <putchar@plt>
    4ab4:	48 8b bd b0 f9 ff ff 	mov    -0x650(%rbp),%rdi
    4abb:	4a 8d 34 a5 00 00 00 	lea    0x0(,%r12,4),%rsi
    4ac2:	00 
    4ac3:	e8 48 c9 ff ff       	call   1410 <realloc@plt>
    4ac8:	48 89 85 b0 f9 ff ff 	mov    %rax,-0x650(%rbp)
    4acf:	48 85 c0             	test   %rax,%rax
    4ad2:	0f 84 3e 03 00 00    	je     4e16 <urdhva_indices_test.c.4609593c+0x24a5>
    4ad8:	85 db                	test   %ebx,%ebx
    4ada:	7e 1b                	jle    4af7 <urdhva_indices_test.c.4609593c+0x2186>
    4adc:	44 8d 73 ff          	lea    -0x1(%rbx),%r14d
    4ae0:	48 8b bd b0 f9 ff ff 	mov    -0x650(%rbp),%rdi
    4ae7:	4a 8d 14 b5 04 00 00 	lea    0x4(,%r14,4),%rdx
    4aee:	00 
    4aef:	4c 89 ee             	mov    %r13,%rsi
    4af2:	e8 e9 c8 ff ff       	call   13e0 <memcpy@plt>
    4af7:	4c 89 ef             	mov    %r13,%rdi
    4afa:	e8 91 c7 ff ff       	call   1290 <free@plt>
    4aff:	89 9d 6c f9 ff ff    	mov    %ebx,-0x694(%rbp)
    4b05:	e9 19 d6 ff ff       	jmp    2123 <main+0xc83>
    4b0a:	31 c0                	xor    %eax,%eax
    4b0c:	e9 83 e4 ff ff       	jmp    2f94 <urdhva_indices_test.c.4609593c+0x623>
    4b11:	44 8d 5c 1b ff       	lea    -0x1(%rbx,%rbx,1),%r11d
    4b16:	4d 63 f3             	movslq %r11d,%r14
    4b19:	be 02 00 00 00       	mov    $0x2,%esi
    4b1e:	4c 89 f7             	mov    %r14,%rdi
    4b21:	c5 f8 77             	vzeroupper 
    4b24:	e8 97 c8 ff ff       	call   13c0 <calloc@plt>
    4b29:	be 02 00 00 00       	mov    $0x2,%esi
    4b2e:	4c 89 f7             	mov    %r14,%rdi
    4b31:	48 89 85 d0 f9 ff ff 	mov    %rax,-0x630(%rbp)
    4b38:	e8 83 c8 ff ff       	call   13c0 <calloc@plt>
    4b3d:	be 02 00 00 00       	mov    $0x2,%esi
    4b42:	4c 89 ef             	mov    %r13,%rdi
    4b45:	48 89 85 c8 f9 ff ff 	mov    %rax,-0x638(%rbp)
    4b4c:	e8 6f c8 ff ff       	call   13c0 <calloc@plt>
    4b51:	be 02 00 00 00       	mov    $0x2,%esi
    4b56:	4c 89 ef             	mov    %r13,%rdi
    4b59:	48 89 85 d8 f9 ff ff 	mov    %rax,-0x628(%rbp)
    4b60:	e8 5b c8 ff ff       	call   13c0 <calloc@plt>
    4b65:	44 8d 4b ff          	lea    -0x1(%rbx),%r9d
    4b69:	48 89 85 c0 f9 ff ff 	mov    %rax,-0x640(%rbp)
    4b70:	44 89 8d 60 f9 ff ff 	mov    %r9d,-0x6a0(%rbp)
    4b77:	e9 23 d6 ff ff       	jmp    219f <main+0xcff>
    4b7c:	be 04 00 00 00       	mov    $0x4,%esi
    4b81:	4c 89 ef             	mov    %r13,%rdi
    4b84:	c5 f8 77             	vzeroupper 
    4b87:	e8 34 c8 ff ff       	call   13c0 <calloc@plt>
    4b8c:	49 89 c4             	mov    %rax,%r12
    4b8f:	48 85 c0             	test   %rax,%rax
    4b92:	0f 84 a5 02 00 00    	je     4e3d <urdhva_indices_test.c.4609593c+0x24cc>
    4b98:	89 d8                	mov    %ebx,%eax
    4b9a:	ff c8                	dec    %eax
    4b9c:	78 24                	js     4bc2 <urdhva_indices_test.c.4609593c+0x2251>
    4b9e:	89 c2                	mov    %eax,%edx
    4ba0:	4c 6b da fc          	imul   $0xfffffffffffffffc,%rdx,%r11
    4ba4:	48 98                	cltq   
    4ba6:	48 8d 14 95 04 00 00 	lea    0x4(,%rdx,4),%rdx
    4bad:	00 
    4bae:	4b 8d 7c ab fc       	lea    -0x4(%r11,%r13,4),%rdi
    4bb3:	49 8d 34 83          	lea    (%r11,%rax,4),%rsi
    4bb7:	4c 01 e7             	add    %r12,%rdi
    4bba:	4c 01 fe             	add    %r15,%rsi
    4bbd:	e8 1e c8 ff ff       	call   13e0 <memcpy@plt>
    4bc2:	45 89 f1             	mov    %r14d,%r9d
    4bc5:	41 29 d9             	sub    %ebx,%r9d
    4bc8:	49 63 d1             	movslq %r9d,%rdx
    4bcb:	48 c1 e2 02          	shl    $0x2,%rdx
    4bcf:	31 f6                	xor    %esi,%esi
    4bd1:	4c 89 e7             	mov    %r12,%rdi
    4bd4:	e8 77 c7 ff ff       	call   1350 <memset@plt>
    4bd9:	4c 89 ff             	mov    %r15,%rdi
    4bdc:	4a 8d 34 ad 00 00 00 	lea    0x0(,%r13,4),%rsi
    4be3:	00 
    4be4:	e8 27 c8 ff ff       	call   1410 <realloc@plt>
    4be9:	49 89 c7             	mov    %rax,%r15
    4bec:	48 85 c0             	test   %rax,%rax
    4bef:	0f 84 fa 01 00 00    	je     4def <urdhva_indices_test.c.4609593c+0x247e>
    4bf5:	45 85 f6             	test   %r14d,%r14d
    4bf8:	7e 17                	jle    4c11 <urdhva_indices_test.c.4609593c+0x22a0>
    4bfa:	41 8d 5e ff          	lea    -0x1(%r14),%ebx
    4bfe:	48 8d 14 9d 04 00 00 	lea    0x4(,%rbx,4),%rdx
    4c05:	00 
    4c06:	4c 89 e6             	mov    %r12,%rsi
    4c09:	48 89 c7             	mov    %rax,%rdi
    4c0c:	e8 cf c7 ff ff       	call   13e0 <memcpy@plt>
    4c11:	4c 89 e7             	mov    %r12,%rdi
    4c14:	e8 77 c6 ff ff       	call   1290 <free@plt>
    4c19:	44 89 b5 68 f9 ff ff 	mov    %r14d,-0x698(%rbp)
    4c20:	e9 fe d4 ff ff       	jmp    2123 <main+0xc83>
    4c25:	31 c0                	xor    %eax,%eax
    4c27:	e9 18 e3 ff ff       	jmp    2f44 <urdhva_indices_test.c.4609593c+0x5d3>
    4c2c:	83 39 00             	cmpl   $0x0,(%rcx)
    4c2f:	49 89 cc             	mov    %rcx,%r12
    4c32:	0f 85 f8 f2 ff ff    	jne    3f30 <urdhva_indices_test.c.4609593c+0x15bf>
    4c38:	be 01 00 00 00       	mov    $0x1,%esi
    4c3d:	48 8d 41 04          	lea    0x4(%rcx),%rax
    4c41:	e9 e0 f1 ff ff       	jmp    3e26 <urdhva_indices_test.c.4609593c+0x14b5>
    4c46:	48 8b 8d b0 f9 ff ff 	mov    -0x650(%rbp),%rcx
    4c4d:	45 8b 1c 87          	mov    (%r15,%rax,4),%r11d
    4c51:	8b 34 81             	mov    (%rcx,%rax,4),%esi
    4c54:	4c 8b 8d d8 f9 ff ff 	mov    -0x628(%rbp),%r9
    4c5b:	4c 8b 85 c0 f9 ff ff 	mov    -0x640(%rbp),%r8
    4c62:	66 45 89 1c 41       	mov    %r11w,(%r9,%rax,2)
    4c67:	66 41 89 34 40       	mov    %si,(%r8,%rax,2)
    4c6c:	49 8d 45 fe          	lea    -0x2(%r13),%rax
    4c70:	e9 a3 d5 ff ff       	jmp    2218 <main+0xd78>
    4c75:	41 8b 14 24          	mov    (%r12),%edx
    4c79:	4c 89 f6             	mov    %r14,%rsi
    4c7c:	bf 01 00 00 00       	mov    $0x1,%edi
    4c81:	31 c0                	xor    %eax,%eax
    4c83:	e8 98 c7 ff ff       	call   1420 <__printf_chk@plt>
    4c88:	4d 89 fc             	mov    %r15,%r12
    4c8b:	e9 16 fc ff ff       	jmp    48a6 <urdhva_indices_test.c.4609593c+0x1f35>
    4c90:	48 89 95 c8 f9 ff ff 	mov    %rdx,-0x638(%rbp)
    4c97:	0f b7 13             	movzwl (%rbx),%edx
    4c9a:	4c 89 f6             	mov    %r14,%rsi
    4c9d:	bf 01 00 00 00       	mov    $0x1,%edi
    4ca2:	31 c0                	xor    %eax,%eax
    4ca4:	e8 77 c7 ff ff       	call   1420 <__printf_chk@plt>
    4ca9:	48 8b 9d c8 f9 ff ff 	mov    -0x638(%rbp),%rbx
    4cb0:	e9 70 f8 ff ff       	jmp    4525 <urdhva_indices_test.c.4609593c+0x1bb4>
    4cb5:	41 8b 55 04          	mov    0x4(%r13),%edx
    4cb9:	4c 89 f6             	mov    %r14,%rsi
    4cbc:	bf 01 00 00 00       	mov    $0x1,%edi
    4cc1:	31 c0                	xor    %eax,%eax
    4cc3:	e8 58 c7 ff ff       	call   1420 <__printf_chk@plt>
    4cc8:	bb 02 00 00 00       	mov    $0x2,%ebx
    4ccd:	e9 11 fa ff ff       	jmp    46e3 <urdhva_indices_test.c.4609593c+0x1d72>
    4cd2:	31 c0                	xor    %eax,%eax
    4cd4:	e9 1a e2 ff ff       	jmp    2ef3 <urdhva_indices_test.c.4609593c+0x582>
    4cd9:	31 c0                	xor    %eax,%eax
    4cdb:	e9 d0 e5 ff ff       	jmp    32b0 <urdhva_indices_test.c.4609593c+0x93f>
    4ce0:	49 89 c4             	mov    %rax,%r12
    4ce3:	31 f6                	xor    %esi,%esi
    4ce5:	e9 46 f2 ff ff       	jmp    3f30 <urdhva_indices_test.c.4609593c+0x15bf>
    4cea:	44 39 f3             	cmp    %r14d,%ebx
    4ced:	0f 85 1e d4 ff ff    	jne    2111 <main+0xc71>
    4cf3:	44 8d 74 1b ff       	lea    -0x1(%rbx,%rbx,1),%r14d
    4cf8:	4d 63 f6             	movslq %r14d,%r14
    4cfb:	be 02 00 00 00       	mov    $0x2,%esi
    4d00:	4c 89 f7             	mov    %r14,%rdi
    4d03:	c5 f8 77             	vzeroupper 
    4d06:	e8 b5 c6 ff ff       	call   13c0 <calloc@plt>
    4d0b:	be 02 00 00 00       	mov    $0x2,%esi
    4d10:	4c 89 f7             	mov    %r14,%rdi
    4d13:	48 89 85 d0 f9 ff ff 	mov    %rax,-0x630(%rbp)
    4d1a:	e8 a1 c6 ff ff       	call   13c0 <calloc@plt>
    4d1f:	4c 89 e7             	mov    %r12,%rdi
    4d22:	be 02 00 00 00       	mov    $0x2,%esi
    4d27:	48 89 85 c8 f9 ff ff 	mov    %rax,-0x638(%rbp)
    4d2e:	e8 8d c6 ff ff       	call   13c0 <calloc@plt>
    4d33:	4c 89 e7             	mov    %r12,%rdi
    4d36:	be 02 00 00 00       	mov    $0x2,%esi
    4d3b:	48 89 85 d8 f9 ff ff 	mov    %rax,-0x628(%rbp)
    4d42:	44 8d 63 ff          	lea    -0x1(%rbx),%r12d
    4d46:	e8 75 c6 ff ff       	call   13c0 <calloc@plt>
    4d4b:	48 89 85 c0 f9 ff ff 	mov    %rax,-0x640(%rbp)
    4d52:	44 89 a5 60 f9 ff ff 	mov    %r12d,-0x6a0(%rbp)
    4d59:	e9 8c d6 ff ff       	jmp    23ea <main+0xf4a>
    4d5e:	4c 8b ad c0 f9 ff ff 	mov    -0x640(%rbp),%r13
    4d65:	4c 8b 95 d8 f9 ff ff 	mov    -0x628(%rbp),%r10
    4d6c:	4c 8b a5 b0 f9 ff ff 	mov    -0x650(%rbp),%r12
    4d73:	e9 b2 d5 ff ff       	jmp    232a <main+0xe8a>
    4d78:	31 d2                	xor    %edx,%edx
    4d7a:	31 c0                	xor    %eax,%eax
    4d7c:	e9 46 ee ff ff       	jmp    3bc7 <urdhva_indices_test.c.4609593c+0x1256>
    4d81:	31 d2                	xor    %edx,%edx
    4d83:	31 c0                	xor    %eax,%eax
    4d85:	e9 79 cd ff ff       	jmp    1b03 <main+0x663>
    4d8a:	31 d2                	xor    %edx,%edx
    4d8c:	31 c0                	xor    %eax,%eax
    4d8e:	e9 39 d1 ff ff       	jmp    1ecc <main+0xa2c>
    4d93:	4c 8d 35 9c 13 00 00 	lea    0x139c(%rip),%r14        # 6136 <_IO_stdin_used+0x136>
    4d9a:	e9 bf f8 ff ff       	jmp    465e <urdhva_indices_test.c.4609593c+0x1ced>
    4d9f:	49 89 f6             	mov    %rsi,%r14
    4da2:	e9 c1 e5 ff ff       	jmp    3368 <urdhva_indices_test.c.4609593c+0x9f7>
    4da7:	c5 f8 77             	vzeroupper 
    4daa:	e9 39 f0 ff ff       	jmp    3de8 <urdhva_indices_test.c.4609593c+0x1477>
    4daf:	48 8d 3d 01 13 00 00 	lea    0x1301(%rip),%rdi        # 60b7 <_IO_stdin_used+0xb7>
    4db6:	e8 85 c6 ff ff       	call   1440 <perror@plt>
    4dbb:	bf 01 00 00 00       	mov    $0x1,%edi
    4dc0:	e8 8b c6 ff ff       	call   1450 <exit@plt>
    4dc5:	48 8d 3d 03 13 00 00 	lea    0x1303(%rip),%rdi        # 60cf <_IO_stdin_used+0xcf>
    4dcc:	e8 6f c6 ff ff       	call   1440 <perror@plt>
    4dd1:	bf 01 00 00 00       	mov    $0x1,%edi
    4dd6:	e8 75 c6 ff ff       	call   1450 <exit@plt>
    4ddb:	48 8d 3d 0e 14 00 00 	lea    0x140e(%rip),%rdi        # 61f0 <_IO_stdin_used+0x1f0>
    4de2:	e8 59 c6 ff ff       	call   1440 <perror@plt>
    4de7:	83 c8 ff             	or     $0xffffffff,%eax
    4dea:	e9 07 fc ff ff       	jmp    49f6 <urdhva_indices_test.c.4609593c+0x2085>
    4def:	48 8d 3d a2 14 00 00 	lea    0x14a2(%rip),%rdi        # 6298 <_IO_stdin_used+0x298>
    4df6:	e8 45 c6 ff ff       	call   1440 <perror@plt>
    4dfb:	31 ff                	xor    %edi,%edi
    4dfd:	e8 4e c6 ff ff       	call   1450 <exit@plt>
    4e02:	48 8d 3d 17 14 00 00 	lea    0x1417(%rip),%rdi        # 6220 <_IO_stdin_used+0x220>
    4e09:	e8 32 c6 ff ff       	call   1440 <perror@plt>
    4e0e:	83 c8 ff             	or     $0xffffffff,%eax
    4e11:	e9 e0 fb ff ff       	jmp    49f6 <urdhva_indices_test.c.4609593c+0x2085>
    4e16:	48 8d 3d 53 14 00 00 	lea    0x1453(%rip),%rdi        # 6270 <_IO_stdin_used+0x270>
    4e1d:	e8 1e c6 ff ff       	call   1440 <perror@plt>
    4e22:	31 ff                	xor    %edi,%edi
    4e24:	e8 27 c6 ff ff       	call   1450 <exit@plt>
    4e29:	48 8d 3d 88 13 00 00 	lea    0x1388(%rip),%rdi        # 61b8 <_IO_stdin_used+0x1b8>
    4e30:	e8 0b c6 ff ff       	call   1440 <perror@plt>
    4e35:	83 c8 ff             	or     $0xffffffff,%eax
    4e38:	e9 b9 fb ff ff       	jmp    49f6 <urdhva_indices_test.c.4609593c+0x2085>
    4e3d:	48 8d 3d 04 14 00 00 	lea    0x1404(%rip),%rdi        # 6248 <_IO_stdin_used+0x248>
    4e44:	e8 f7 c5 ff ff       	call   1440 <perror@plt>
    4e49:	31 ff                	xor    %edi,%edi
    4e4b:	e8 00 c6 ff ff       	call   1450 <exit@plt>
    4e50:	4c 8b 25 a1 31 00 00 	mov    0x31a1(%rip),%r12        # 7ff8 <stderr@GLIBC_2.2.5>
    4e57:	89 d9                	mov    %ebx,%ecx
    4e59:	49 8b 3c 24          	mov    (%r12),%rdi
    4e5d:	48 8d 15 db 11 00 00 	lea    0x11db(%rip),%rdx        # 603f <_IO_stdin_used+0x3f>
    4e64:	be 01 00 00 00       	mov    $0x1,%esi
    4e69:	31 c0                	xor    %eax,%eax
    4e6b:	e8 f0 c5 ff ff       	call   1460 <__fprintf_chk@plt>
    4e70:	bf 01 00 00 00       	mov    $0x1,%edi
    4e75:	e8 d6 c5 ff ff       	call   1450 <exit@plt>
    4e7a:	e8 91 c4 ff ff       	call   1310 <__stack_chk_fail@plt>
    4e7f:	90                   	nop

0000000000004e80 <set_fast_math>:
    4e80:	f3 0f 1e fa          	endbr64 
    4e84:	0f ae 5c 24 fc       	stmxcsr -0x4(%rsp)
    4e89:	81 4c 24 fc 40 80 00 	orl    $0x8040,-0x4(%rsp)
    4e90:	00 
    4e91:	0f ae 54 24 fc       	ldmxcsr -0x4(%rsp)
    4e96:	c3                   	ret    
    4e97:	66 0f 1f 84 00 00 00 	nopw   0x0(%rax,%rax,1)
    4e9e:	00 00 

0000000000004ea0 <_start>:
    4ea0:	f3 0f 1e fa          	endbr64 
    4ea4:	31 ed                	xor    %ebp,%ebp
    4ea6:	49 89 d1             	mov    %rdx,%r9
    4ea9:	5e                   	pop    %rsi
    4eaa:	48 89 e2             	mov    %rsp,%rdx
    4ead:	48 83 e4 f0          	and    $0xfffffffffffffff0,%rsp
    4eb1:	50                   	push   %rax
    4eb2:	54                   	push   %rsp
    4eb3:	45 31 c0             	xor    %r8d,%r8d
    4eb6:	31 c9                	xor    %ecx,%ecx
    4eb8:	48 8d 3d e1 c5 ff ff 	lea    -0x3a1f(%rip),%rdi        # 14a0 <main>
    4ebf:	ff 15 0b 31 00 00    	call   *0x310b(%rip)        # 7fd0 <__libc_start_main@GLIBC_2.34>
    4ec5:	f4                   	hlt    
    4ec6:	66 2e 0f 1f 84 00 00 	cs nopw 0x0(%rax,%rax,1)
    4ecd:	00 00 00 

0000000000004ed0 <deregister_tm_clones>:
    4ed0:	48 8d 3d 39 31 00 00 	lea    0x3139(%rip),%rdi        # 8010 <__TMC_END__>
    4ed7:	48 8d 05 32 31 00 00 	lea    0x3132(%rip),%rax        # 8010 <__TMC_END__>
    4ede:	48 39 f8             	cmp    %rdi,%rax
    4ee1:	74 15                	je     4ef8 <deregister_tm_clones+0x28>
    4ee3:	48 8b 05 ee 30 00 00 	mov    0x30ee(%rip),%rax        # 7fd8 <_ITM_deregisterTMCloneTable@Base>
    4eea:	48 85 c0             	test   %rax,%rax
    4eed:	74 09                	je     4ef8 <deregister_tm_clones+0x28>
    4eef:	ff e0                	jmp    *%rax
    4ef1:	0f 1f 80 00 00 00 00 	nopl   0x0(%rax)
    4ef8:	c3                   	ret    
    4ef9:	0f 1f 80 00 00 00 00 	nopl   0x0(%rax)

0000000000004f00 <register_tm_clones>:
    4f00:	48 8d 3d 09 31 00 00 	lea    0x3109(%rip),%rdi        # 8010 <__TMC_END__>
    4f07:	48 8d 35 02 31 00 00 	lea    0x3102(%rip),%rsi        # 8010 <__TMC_END__>
    4f0e:	48 29 fe             	sub    %rdi,%rsi
    4f11:	48 89 f0             	mov    %rsi,%rax
    4f14:	48 c1 ee 3f          	shr    $0x3f,%rsi
    4f18:	48 c1 f8 03          	sar    $0x3,%rax
    4f1c:	48 01 c6             	add    %rax,%rsi
    4f1f:	48 d1 fe             	sar    %rsi
    4f22:	74 14                	je     4f38 <register_tm_clones+0x38>
    4f24:	48 8b 05 bd 30 00 00 	mov    0x30bd(%rip),%rax        # 7fe8 <_ITM_registerTMCloneTable@Base>
    4f2b:	48 85 c0             	test   %rax,%rax
    4f2e:	74 08                	je     4f38 <register_tm_clones+0x38>
    4f30:	ff e0                	jmp    *%rax
    4f32:	66 0f 1f 44 00 00    	nopw   0x0(%rax,%rax,1)
    4f38:	c3                   	ret    
    4f39:	0f 1f 80 00 00 00 00 	nopl   0x0(%rax)

0000000000004f40 <__do_global_dtors_aux>:
    4f40:	f3 0f 1e fa          	endbr64 
    4f44:	80 3d c5 30 00 00 00 	cmpb   $0x0,0x30c5(%rip)        # 8010 <__TMC_END__>
    4f4b:	75 2b                	jne    4f78 <__do_global_dtors_aux+0x38>
    4f4d:	55                   	push   %rbp
    4f4e:	48 83 3d 9a 30 00 00 	cmpq   $0x0,0x309a(%rip)        # 7ff0 <__cxa_finalize@GLIBC_2.2.5>
    4f55:	00 
    4f56:	48 89 e5             	mov    %rsp,%rbp
    4f59:	74 0c                	je     4f67 <__do_global_dtors_aux+0x27>
    4f5b:	48 8b 3d a6 30 00 00 	mov    0x30a6(%rip),%rdi        # 8008 <__dso_handle>
    4f62:	e8 f9 c2 ff ff       	call   1260 <__cxa_finalize@plt>
    4f67:	e8 64 ff ff ff       	call   4ed0 <deregister_tm_clones>
    4f6c:	c6 05 9d 30 00 00 01 	movb   $0x1,0x309d(%rip)        # 8010 <__TMC_END__>
    4f73:	5d                   	pop    %rbp
    4f74:	c3                   	ret    
    4f75:	0f 1f 00             	nopl   (%rax)
    4f78:	c3                   	ret    
    4f79:	0f 1f 80 00 00 00 00 	nopl   0x0(%rax)

0000000000004f80 <frame_dummy>:
    4f80:	f3 0f 1e fa          	endbr64 
    4f84:	e9 77 ff ff ff       	jmp    4f00 <register_tm_clones>
    4f89:	0f 1f 80 00 00 00 00 	nopl   0x0(%rax)

0000000000004f90 <generateRandomNumber>:
    4f90:	41 55                	push   %r13
    4f92:	41 54                	push   %r12
    4f94:	55                   	push   %rbp
    4f95:	53                   	push   %rbx
    4f96:	48 63 df             	movslq %edi,%rbx
    4f99:	48 83 ec 48          	sub    $0x48,%rsp
    4f9d:	48 8d 6c 24 10       	lea    0x10(%rsp),%rbp
    4fa2:	48 89 ef             	mov    %rbp,%rdi
    4fa5:	64 48 8b 04 25 28 00 	mov    %fs:0x28,%rax
    4fac:	00 00 
    4fae:	48 89 44 24 38       	mov    %rax,0x38(%rsp)
    4fb3:	31 c0                	xor    %eax,%eax
    4fb5:	e8 f6 c3 ff ff       	call   13b0 <__gmp_randinit_default@plt>
    4fba:	31 ff                	xor    %edi,%edi
    4fbc:	e8 2f c4 ff ff       	call   13f0 <time@plt>
    4fc1:	48 8d 34 03          	lea    (%rbx,%rax,1),%rsi
    4fc5:	49 89 e4             	mov    %rsp,%r12
    4fc8:	48 89 ef             	mov    %rbp,%rdi
    4fcb:	e8 a0 c2 ff ff       	call   1270 <__gmp_randseed_ui@plt>
    4fd0:	4c 89 e7             	mov    %r12,%rdi
    4fd3:	e8 98 c4 ff ff       	call   1470 <__gmpz_init@plt>
    4fd8:	ba 00 20 00 00       	mov    $0x2000,%edx
    4fdd:	48 89 ee             	mov    %rbp,%rsi
    4fe0:	4c 89 e7             	mov    %r12,%rdi
    4fe3:	e8 98 c4 ff ff       	call   1480 <__gmpz_urandomb@plt>
    4fe8:	31 ff                	xor    %edi,%edi
    4fea:	4c 89 e2             	mov    %r12,%rdx
    4fed:	be 0a 00 00 00       	mov    $0xa,%esi
    4ff2:	e8 09 c3 ff ff       	call   1300 <__gmpz_get_str@plt>
    4ff7:	4c 89 e7             	mov    %r12,%rdi
    4ffa:	49 89 c5             	mov    %rax,%r13
    4ffd:	e8 fe c3 ff ff       	call   1400 <__gmpz_clear@plt>
    5002:	48 89 ef             	mov    %rbp,%rdi
    5005:	e8 16 c3 ff ff       	call   1320 <__gmp_randclear@plt>
    500a:	48 8b 44 24 38       	mov    0x38(%rsp),%rax
    500f:	64 48 2b 04 25 28 00 	sub    %fs:0x28,%rax
    5016:	00 00 
    5018:	75 0e                	jne    5028 <generateRandomNumber+0x98>
    501a:	48 83 c4 48          	add    $0x48,%rsp
    501e:	5b                   	pop    %rbx
    501f:	5d                   	pop    %rbp
    5020:	41 5c                	pop    %r12
    5022:	4c 89 e8             	mov    %r13,%rax
    5025:	41 5d                	pop    %r13
    5027:	c3                   	ret    
    5028:	e8 e3 c2 ff ff       	call   1310 <__stack_chk_fail@plt>
    502d:	0f 1f 00             	nopl   (%rax)

0000000000005030 <generate_seed>:
    5030:	53                   	push   %rbx
    5031:	31 f6                	xor    %esi,%esi
    5033:	48 83 ec 20          	sub    $0x20,%rsp
    5037:	48 89 e7             	mov    %rsp,%rdi
    503a:	64 48 8b 04 25 28 00 	mov    %fs:0x28,%rax
    5041:	00 00 
    5043:	48 89 44 24 18       	mov    %rax,0x18(%rsp)
    5048:	31 c0                	xor    %eax,%eax
    504a:	e8 f1 c2 ff ff       	call   1340 <gettimeofday@plt>
    504f:	c5 f8 57 c0          	vxorps %xmm0,%xmm0,%xmm0
    5053:	c4 e1 fb 2a 0c 24    	vcvtsi2sdq (%rsp),%xmm0,%xmm1
    5059:	c4 e1 fb 2a 54 24 08 	vcvtsi2sdq 0x8(%rsp),%xmm0,%xmm2
    5060:	c4 e2 e9 99 0d 0f 13 	vfmadd132sd 0x130f(%rip),%xmm2,%xmm1        # 6378 <_IO_stdin_used+0x378>
    5067:	00 00 
    5069:	c4 e1 f9 7e cb       	vmovq  %xmm1,%rbx
    506e:	e8 5d c2 ff ff       	call   12d0 <getpid@plt>
    5073:	c4 e1 f9 6e db       	vmovq  %rbx,%xmm3
    5078:	89 c7                	mov    %eax,%edi
    507a:	62 f1 ff 08 78 c3    	vcvttsd2usi %xmm3,%rax
    5080:	31 c7                	xor    %eax,%edi
    5082:	e8 19 c3 ff ff       	call   13a0 <srand@plt>
    5087:	48 8b 44 24 18       	mov    0x18(%rsp),%rax
    508c:	64 48 2b 04 25 28 00 	sub    %fs:0x28,%rax
    5093:	00 00 
    5095:	75 06                	jne    509d <generate_seed+0x6d>
    5097:	48 83 c4 20          	add    $0x20,%rsp
    509b:	5b                   	pop    %rbx
    509c:	c3                   	ret    
    509d:	e8 6e c2 ff ff       	call   1310 <__stack_chk_fail@plt>

Disassembly of section .fini:

00000000000050a4 <_fini>:
    50a4:	f3 0f 1e fa          	endbr64 
    50a8:	48 83 ec 08          	sub    $0x8,%rsp
    50ac:	48 83 c4 08          	add    $0x8,%rsp
    50b0:	c3                   	ret    
